 l2test

 Timestamp is 5d455511 (Sat Aug 03 15:04:09 2019)

 Preferred load address is 00400000

 Start         Length     Name                   Class
 0001:00000000 000baf24H .text                   CODE
 0001:000baf30 00007823H .text$x                 CODE
 0002:00000000 000074a1H .rdata                  DATA
 0002:000074a8 00001164H .rdata$r                DATA
 0002:00008610 00009a58H .xdata$x                DATA
 0002:00012068 00000000H .edata                  DATA
 0003:00000000 00000004H .CRT$XCA                DATA
 0003:00000004 0000031cH .CRT$XCU                DATA
 0003:00000320 00000004H .CRT$XCZ                DATA
 0003:00000324 00000004H .CRT$XIA                DATA
 0003:00000328 00000010H .CRT$XIC                DATA
 0003:00000338 00000004H .CRT$XIY                DATA
 0003:0000033c 00000004H .CRT$XIZ                DATA
 0003:00000340 00000004H .CRT$XPA                DATA
 0003:00000344 00000004H .CRT$XPX                DATA
 0003:00000348 00000004H .CRT$XPZ                DATA
 0003:0000034c 00000004H .CRT$XTA                DATA
 0003:00000350 00000004H .CRT$XTB                DATA
 0003:00000354 00000004H .CRT$XTZ                DATA
 0003:00000360 00002b04H .data                   DATA
 0003:00002e68 00101eb4H .bss                    DATA
 0004:00000000 00000028H .idata$2                DATA
 0004:00000028 00000014H .idata$3                DATA
 0004:0000003c 000001acH .idata$4                DATA
 0004:000001e8 000001acH .idata$5                DATA
 0004:00000394 000009b4H .idata$6                DATA

  Address         Publics by Value              Rva+Base     Lib:Object

 0001:00000200       ?setRecovery@@YAX_N@Z      00401200 f   l2test.obj
 0001:00000230       ?isRecovery@@YA_NXZ        00401230 f   l2test.obj
 0001:00000260       ?doFile@@YAXAAVLivingstone_debug@@AAVOptionFinder@@@Z 00401260 f   l2test.obj
 0001:00000360       ??0MBA_string@@QAE@PBD@Z   00401360 f i l2test.obj
 0001:00000400       ??2Pooled@@SAPAXI@Z        00401400 f i l2test.obj
 0001:00000440       ??0Pooled@@IAE@XZ          00401440 f i l2test.obj
 0001:00000470       ??1Pooled@@IAE@XZ          00401470 f i l2test.obj
 0001:000004a0       ??0String_value@MBA_string@@QAE@PBD@Z 004014a0 f i l2test.obj
 0001:00000560       ??1MBA_string@@QAE@XZ      00401560 f i l2test.obj
 0001:00000610       ??9MBA_string@@QBE_NPBD@Z  00401610 f i l2test.obj
 0001:00000660       ??8MBA_string@@QBE_NPBD@Z  00401660 f i l2test.obj
 0001:000006b0       ?compare@MBA_string@@QBEHPBD@Z 004016b0 f i l2test.obj
 0001:00000700       ??_GString_value@MBA_string@@QAEPAXI@Z 00401700 f i l2test.obj
 0001:00000760       ??3Pooled@@SAXPAXI@Z       00401760 f i l2test.obj
 0001:000007a0       ??1String_value@MBA_string@@QAE@XZ 004017a0 f i l2test.obj
 0001:00000820       ??6@YAAAV?$basic_ostream@DU?$char_traits@D@std@@@std@@AAV01@ABVMBA_string@@@Z 00401820 f i l2test.obj
 0001:00000870       ?c_str@MBA_string@@QBEPBDXZ 00401870 f i l2test.obj
 0001:000008a0       ?set_filename@Livingstone@@QAEXABVMBA_string@@@Z 004018a0 f i l2test.obj
 0001:000008f0       ?setFilename@Livingstone_reader@@QAEXABVMBA_string@@@Z 004018f0 f i l2test.obj
 0001:00000930       ??4MBA_string@@QAEAAV0@ABV0@@Z 00401930 f i l2test.obj
 0001:000009e0       ?get_filename@Livingstone@@QBEABVMBA_string@@XZ 004019e0 f i l2test.obj
 0001:00000a20       ?getFilename@Livingstone_reader@@QBEABVMBA_string@@XZ 00401a20 f i l2test.obj
 0001:00000a50       ?getReader@Livingstone@@QBEAAVLivingstone_reader@@XZ 00401a50 f i l2test.obj
 0001:00000b00       ??0L2_fatal_error@@QAE@VMBA_string@@@Z 00401b00 f i l2test.obj
 0001:00000b80       ??0MBA_string@@QAE@ABV0@@Z 00401b80 f i l2test.obj
 0001:00000be0       ??1L2_fatal_error@@QAE@XZ  00401be0 f i l2test.obj
 0001:00000c20       ??0L2_fatal_error@@QAE@ABV0@@Z 00401c20 f i l2test.obj
 0001:00000c60       ?optarg@OptionFinder@@QBEPBDXZ 00401c60 f i l2test.obj
 0001:00000c90       ?doHelp@@YAXAAVLivingstone_debug@@AAVOptionFinder@@@Z 00401c90 f   l2test.obj
 0001:00000ce0       ?doVerbose@@YAXAAVLivingstone_debug@@AAVOptionFinder@@@Z 00401ce0 f   l2test.obj
 0001:00000e30       ?set_verbose_reader@Livingstone_reader@@QAEX_N@Z 00401e30 f i l2test.obj
 0001:00000e70       ?set_verbose_optimizer@Livingstone_reader@@QAEX_N@Z 00401e70 f i l2test.obj
 0001:00000eb0       ?set_verbosity@Livingstone@@QAEX_N00@Z 00401eb0 f i l2test.obj
 0001:00000f00       ?set_verbosity@Livingstone_reader@@QAEX_N0@Z 00401f00 f i l2test.obj
 0001:00000f50       ?set_verbose_writer@Livingstone@@QAEX_N@Z 00401f50 f i l2test.obj
 0001:00000f80       ?processOptions@@YAXAAVLivingstone_debug@@PAPAD@Z 00401f80 f   l2test.obj
 0001:00001210       ?endl@std@@YAAAV?$basic_ostream@DU?$char_traits@D@std@@@1@AAV21@@Z 00402210 f i l2test.obj
 0001:00001250       ?set_search_style@Livingstone@@QAEXW4Search_style@Tracker@@@Z 00402250 f i l2test.obj
 0001:00001290       ?set_search_style@L2_parameters@@QAEXW4Search_style@Tracker@@@Z 00402290 f i l2test.obj
 0001:000012c0       ?set_cbfs_maxcand@Livingstone@@QAEXI@Z 004022c0 f i l2test.obj
 0001:00001300       ?set_cbfs_max_candidates@L2_parameters@@QAEXI@Z 00402300 f i l2test.obj
 0001:00001330       ?set_cbfs_max_candidate_classes@Livingstone@@QAEXI@Z 00402330 f i l2test.obj
 0001:00001370       ?set_cbfs_max_candidate_classes@L2_parameters@@QAEXI@Z 00402370 f i l2test.obj
 0001:000013a0       ?set_cbfs_search@Livingstone@@QAEXI@Z 004023a0 f i l2test.obj
 0001:000013e0       ?set_cbfs_search_space@L2_parameters@@QAEXI@Z 004023e0 f i l2test.obj
 0001:00001410       ?set_cover_maxrank@Livingstone@@QAEXI@Z 00402410 f i l2test.obj
 0001:00001450       ?set_cover_max_rank@L2_parameters@@QAEXI@Z 00402450 f i l2test.obj
 0001:00001480       ?set_history@Livingstone@@QAEXI@Z 00402480 f i l2test.obj
 0001:000014c0       ?set_history@L2_parameters@@QAEXI@Z 004024c0 f i l2test.obj
 0001:000014f0       ?set_progress_style_str@Livingstone@@QAEXABVMBA_string@@@Z 004024f0 f i l2test.obj
 0001:00001540       ?set_progress_style@Livingstone@@QAEXW4Progress_style@T_system@@@Z 00402540 f i l2test.obj
 0001:000015a0       ?setUseOptimizer@Livingstone_reader@@QAEX_N@Z 004025a0 f i l2test.obj
 0001:000015d0       ?set_progress_style@L2_parameters@@QAEXW4Progress_style@T_system@@@Z 004025d0 f i l2test.obj
 0001:00001600       ?set_max_truncated_candidates@Livingstone@@QAEXI@Z 00402600 f i l2test.obj
 0001:00001640       ?set_max_truncated_candidates@L2_parameters@@QAEXI@Z 00402640 f i l2test.obj
 0001:00001670       ?set_use_optimizer@Livingstone@@QAEX_N@Z 00402670 f i l2test.obj
 0001:000016c0       _main                      004026c0 f   l2test.obj
 0001:00001af0       ?verbose_optimizer@Livingstone_reader@@QBE_NXZ 00402af0 f i l2test.obj
 0001:00001b20       ?optimize@Livingstone_reader@@QAE_NXZ 00402b20 f i l2test.obj
 0001:00001b90       ?setPlanning@T_system@@QAEXXZ 00402b90 f i l2test.obj
 0001:00001bc0       ?get_t_system@Tracker@@QAEAAVT_system@@XZ 00402bc0 f i l2test.obj
 0001:00001bf0       ?print_search_parameters@Livingstone@@QBEXXZ 00402bf0 f i l2test.obj
 0001:00001c30       ?get_use_optimizer@Livingstone@@QBE_NXZ 00402c30 f i l2test.obj
 0001:00001c70       ?getUseOptimizer@Livingstone_reader@@QBE_NXZ 00402c70 f i l2test.obj
 0001:00001ca0       ?get_tracker@Livingstone@@QAEPAVTracker@@XZ 00402ca0 f i l2test.obj
 0001:00001cd0       ?run@Livingstone_debug@@QAE_NXZ 00402cd0 f i l2test.obj
 0001:00001d10       ??6?$basic_ostream@DU?$char_traits@D@std@@@std@@QAEAAV01@P6AAAV01@AAV01@@Z@Z 00402d10 f i l2test.obj
 0001:00001d60       ?put@?$basic_ostream@DU?$char_traits@D@std@@@std@@QAEAAV12@D@Z 00402d60 f i l2test.obj
 0001:00001ea0       ?eq_int_type@?$char_traits@D@std@@SA_NABH0@Z 00402ea0 f i l2test.obj
 0001:00001ed0       ?eof@?$char_traits@D@std@@SAHXZ 00402ed0 f i l2test.obj
 0001:00001f00       ?flush@?$basic_ostream@DU?$char_traits@D@std@@@std@@QAEAAV12@XZ 00402f00 f i l2test.obj
 0001:00001f90       ?fail@ios_base@std@@QBE_NXZ 00402f90 f i l2test.obj
 0001:00001fd0       ?rdstate@ios_base@std@@QBEHXZ 00402fd0 f i l2test.obj
 0001:00002000       ?setstate@?$basic_ios@DU?$char_traits@D@std@@@std@@QAEXH_N@Z 00403000 f i l2test.obj
 0001:00002050       ?rdbuf@?$basic_ios@DU?$char_traits@D@std@@@std@@QBEPAV?$basic_streambuf@DU?$char_traits@D@std@@@2@XZ 00403050 f i l2test.obj
 0001:00002080       ?clear@?$basic_ios@DU?$char_traits@D@std@@@std@@QAEXH_N@Z 00403080 f i l2test.obj
 0001:000020e0       ??0sentry@?$basic_ostream@DU?$char_traits@D@std@@@std@@QAE@AAV12@@Z 004030e0 f i l2test.obj
 0001:00002130       ??1sentry@?$basic_ostream@DU?$char_traits@D@std@@@std@@QAE@XZ 00403130 f i l2test.obj
 0001:00002180       ??Bsentry@?$basic_ostream@DU?$char_traits@D@std@@@std@@QBE_NXZ 00403180 f i l2test.obj
 0001:000021b0       ?pubsync@?$basic_streambuf@DU?$char_traits@D@std@@@std@@QAEHXZ 004031b0 f i l2test.obj
 0001:00002200       ?sputc@?$basic_streambuf@DU?$char_traits@D@std@@@std@@QAEHD@Z 00403200 f i l2test.obj
 0001:000022a0       ?to_int_type@?$char_traits@D@std@@SAHABD@Z 004032a0 f i l2test.obj
 0001:000022d0       ?pptr@?$basic_streambuf@DU?$char_traits@D@std@@@std@@IBEPADXZ 004032d0 f i l2test.obj
 0001:00002300       ?epptr@?$basic_streambuf@DU?$char_traits@D@std@@@std@@IBEPADXZ 00403300 f i l2test.obj
 0001:00002340       ?opfx@?$basic_ostream@DU?$char_traits@D@std@@@std@@QAE_NXZ 00403340 f i l2test.obj
 0001:000023d0       ?good@ios_base@std@@QBE_NXZ 004033d0 f i l2test.obj
 0001:00002410       ?osfx@?$basic_ostream@DU?$char_traits@D@std@@@std@@QAEXXZ 00403410 f i l2test.obj
 0001:00002460       ?flags@ios_base@std@@QBEHXZ 00403460 f i l2test.obj
 0001:00002490       ?tie@?$basic_ios@DU?$char_traits@D@std@@@std@@QBEPAV?$basic_ostream@DU?$char_traits@D@std@@@2@XZ 00403490 f i l2test.obj
 0001:000024c0       ?_Pninc@?$basic_streambuf@DU?$char_traits@D@std@@@std@@IAEPADXZ 004034c0 f i l2test.obj
 0001:00002520       ?L2_free_array_no_dtor@@YAXPADI@Z 00403520 f i l2test.obj
 0001:00002560       ??6std@@YAAAV?$basic_ostream@DU?$char_traits@D@std@@@0@AAV10@PBD@Z 00403560 f i l2test.obj
 0001:00002840       ?length@?$char_traits@D@std@@SAIPBD@Z 00403840 f i l2test.obj
 0001:00002880       ?width@ios_base@std@@QBEHXZ 00403880 f i l2test.obj
 0001:000028b0       ?width@ios_base@std@@QAEHH@Z 004038b0 f i l2test.obj
 0001:000028f0       ?fill@?$basic_ios@DU?$char_traits@D@std@@@std@@QBEDXZ 004038f0 f i l2test.obj
 0001:00002920       ?sputn@?$basic_streambuf@DU?$char_traits@D@std@@@std@@QAEHPBDH@Z 00403920 f i l2test.obj
 0001:000029b0       ?id@?$ctype@G@std@@$D      004039b0 f i l2test.obj
 0001:00002a30       ?id@?$ctype@G@std@@$E      00403a30 f i l2test.obj
 0001:00002c50       ??0OptionFinder@@QAE@PBQBDPBUOption@@I@Z 00403c50 f   readersd:options.obj
 0001:00002ca0       ?printOptions@OptionFinder@@QAEXAAV?$basic_ostream@DU?$char_traits@D@std@@@std@@@Z 00403ca0 f   readersd:options.obj
 0001:00002e70       ?printOptions@OptionFinder@@QAEXXZ 00403e70 f   readersd:options.obj
 0001:00002eb0       ?find_long_option@OptionFinder@@AAEPBUOption@@PBD@Z 00403eb0 f   readersd:options.obj
 0001:00002f70       ?find_short_option@OptionFinder@@AAEPBUOption@@D@Z 00403f70 f   readersd:options.obj
 0001:00002fe0       ?next_option@OptionFinder@@QAEHXZ 00403fe0 f   readersd:options.obj
 0001:000031a0       ??6std@@YAAAV?$basic_ostream@DU?$char_traits@D@std@@@0@AAV10@D@Z 004041a0 f i readersd:options.obj
 0001:000036f0       ?discover_file_type@from_any@@SA?AW4FileType@1@ABVMBA_string@@0@Z 004046f0 f   readersd:from_any.obj
 0001:00003800       ??4MBA_string@@QAEAAV0@PBD@Z 00404800 f i readersd:from_any.obj
 0001:000038b0       ??0from_any@@QAE@PAVL2_file@@VMBA_string@@1@Z 004048b0 f   readersd:from_any.obj
 0001:00003970       ??1L2_file_reader@@UAE@XZ  00404970 f i readersd:from_any.obj
 0001:000039d0       ??0L2_file_reader@@IAE@PAVL2_file@@@Z 004049d0 f i readersd:from_any.obj
 0001:00003a30       ??_EL2_file_reader@@UAEPAXI@Z 00404a30 f i readersd:from_any.obj
 0001:00003a30       ??_GL2_file_reader@@UAEPAXI@Z 00404a30 f i readersd:from_any.obj
 0001:00003a90       ??_Gfrom_any@@UAEPAXI@Z    00404a90 f i readersd:from_any.obj
 0001:00003a90       ??_Efrom_any@@UAEPAXI@Z    00404a90 f i readersd:from_any.obj
 0001:00003af0       ??1from_any@@UAE@XZ        00404af0 f i readersd:from_any.obj
 0001:00003b60       ??0from_any@@QAE@PAVL2_file@@VMBA_string@@W4FileType@0@@Z 00404b60 f   readersd:from_any.obj
 0001:00003c00       ?doRead@from_any@@AAE_NAAVL2_file_reader@@@Z 00404c00 f   readersd:from_any.obj
 0001:00003d80       ?setVerbose@L2_file_reader@@QAEX_N@Z 00404d80 f i readersd:from_any.obj
 0001:00003db0       ?isVerbose@L2_file_reader@@QBE_NXZ 00404db0 f i readersd:from_any.obj
 0001:00003de0       ??1L2_error@@QAE@XZ        00404de0 f i readersd:from_any.obj
 0001:00003e20       ?readXMPL@from_any@@AAE_NXZ 00404e20 f   readersd:from_any.obj
 0001:00003f10       ?dest@L2_file_reader@@IAEPAVL2_file@@XZ 00404f10 f i readersd:from_any.obj
 0001:00003f40       ??0from_xmpl@@QAE@PAVL2_file@@ABVMBA_string@@@Z 00404f40 f i readersd:from_any.obj
 0001:000040e0       ??1from_xmpl@@UAE@XZ       004050e0 f i readersd:from_any.obj
 0001:000041e0       ??_Efrom_xmpl@@UAEPAXI@Z   004051e0 f i readersd:from_any.obj
 0001:000041e0       ??_Gfrom_xmpl@@UAEPAXI@Z   004051e0 f i readersd:from_any.obj
 0001:00004240       ?readL2@from_any@@AAE_NXZ  00405240 f   readersd:from_any.obj
 0001:00004370       ??0from_l2@@QAE@PAVL2_file@@VMBA_string@@@Z 00405370 f i readersd:from_any.obj
 0001:00004500       ??_Gfrom_l2@@UAEPAXI@Z     00405500 f i readersd:from_any.obj
 0001:00004500       ??_Efrom_l2@@UAEPAXI@Z     00405500 f i readersd:from_any.obj
 0001:00004560       ?readL2bin@from_any@@AAE_NXZ 00405560 f   readersd:from_any.obj
 0001:00004660       ?read@from_any@@UAE_NXZ    00405660 f   readersd:from_any.obj
 0001:00004800       ??0MBA_string@@QAE@H@Z     00405800 f i readersd:from_any.obj
 0001:000048e0       ??HMBA_string@@QBE?AV0@ABV0@@Z 004058e0 f i readersd:from_any.obj
 0001:00004950       ??0MBA_string@@QAE@PBDI0I@Z 00405950 f i readersd:from_any.obj
 0001:00004a30       ??0String_value@MBA_string@@QAE@PBDI@Z 00405a30 f i readersd:from_any.obj
 0001:00004af0       ?size@MBA_string@@QBEIXZ   00405af0 f i readersd:from_any.obj
 0001:00004b20       ??HMBA_string@@QBE?AV0@PBD@Z 00405b20 f i readersd:from_any.obj
 0001:00004b90       ??H@YA?AVMBA_string@@PBDABV0@@Z 00405b90 f i readersd:from_any.obj
 0001:00004c00       ??0?$Slist@PAVL2rClause@@@@QAE@XZ 00405c00 f i readersd:from_any.obj
 0001:00004c40       ??1?$Slist@PAVL2rClause@@@@QAE@XZ 00405c40 f i readersd:from_any.obj
 0001:00004c80       ??0?$Slist@PAVL2rProposition@@@@QAE@XZ 00405c80 f i readersd:from_any.obj
 0001:00004cc0       ??1?$Slist@PAVL2rProposition@@@@QAE@XZ 00405cc0 f i readersd:from_any.obj
 0001:00004d00       ??0?$Hash_table@VMBA_string@@PAVdbg_L2rEnumeration@@@@QAE@P6AIABVMBA_string@@@Z@Z 00405d00 f i readersd:from_any.obj
 0001:00004d70       ??1?$Hash_table@VMBA_string@@PAVdbg_L2rEnumeration@@@@QAE@XZ 00405d70 f i readersd:from_any.obj
 0001:00004dc0       ??0?$Hash_table@VMBA_string@@PAVdbg_L2rVariable@@@@QAE@P6AIABVMBA_string@@@Z@Z 00405dc0 f i readersd:from_any.obj
 0001:00004e30       ??1?$Hash_table@VMBA_string@@PAVdbg_L2rVariable@@@@QAE@XZ 00405e30 f i readersd:from_any.obj
 0001:00004e80       ??0?$Slist@PAVL2rTransition@@@@QAE@XZ 00405e80 f i readersd:from_any.obj
 0001:00004ec0       ??1?$Slist@PAVL2rTransition@@@@QAE@XZ 00405ec0 f i readersd:from_any.obj
 0001:00004f00       ?erase@?$Slist@PAVL2rClause@@@@QAEXXZ 00405f00 f i readersd:from_any.obj
 0001:00004f60       ?erase@?$Slist@PAVL2rProposition@@@@QAEXXZ 00405f60 f i readersd:from_any.obj
 0001:00004fc0       ?erase@?$Slist@PAVL2rTransition@@@@QAEXXZ 00405fc0 f i readersd:from_any.obj
 0001:00005020       ?delete_list@?$Slist_item@PAVL2rClause@@@@QAEXXZ 00406020 f i readersd:from_any.obj
 0001:000050a0       ?delete_list@?$Slist_item@PAVL2rProposition@@@@QAEXXZ 004060a0 f i readersd:from_any.obj
 0001:00005120       ?delete_list@?$Slist_item@PAVL2rTransition@@@@QAEXXZ 00406120 f i readersd:from_any.obj
 0001:000051a0       ??_G?$Slist_item@PAVL2rClause@@@@QAEPAXI@Z 004061a0 f i readersd:from_any.obj
 0001:00005200       ??_G?$Slist_item@PAVL2rProposition@@@@QAEPAXI@Z 00406200 f i readersd:from_any.obj
 0001:00005260       ??_G?$Slist_item@PAVL2rTransition@@@@QAEPAXI@Z 00406260 f i readersd:from_any.obj
 0001:000052c0       ??1?$Slist_item@PAVL2rClause@@@@QAE@XZ 004062c0 f i readersd:from_any.obj
 0001:00005300       ??1?$Slist_item@PAVL2rProposition@@@@QAE@XZ 00406300 f i readersd:from_any.obj
 0001:00005340       ??1?$Slist_item@PAVL2rTransition@@@@QAE@XZ 00406340 f i readersd:from_any.obj
 0001:00005380       ?search_dict_by_key@@YA?AW4FileType@from_any@@PBU?$String_key_dict_item@W4FileType@from_any@@@@W412@PBD@Z 00406380 f i readersd:from_any.obj
 0001:00005400       ?L2_initialize_array@@YAPAV?$Slist@U?$MBApair@$$CBVMBA_string@@QAVdbg_L2rEnumeration@@@@@@PAV1@I@Z 00406400 f i readersd:from_any.obj
 0001:000054b0       ??2@YAPAXIPAX@Z            004064b0 f i readersd:from_any.obj
 0001:000054e0       ??3@YAXPAX0@Z              004064e0 f i readersd:from_any.obj
 0001:00005500       ?L2_free_array@@YAXPAV?$Slist@U?$MBApair@$$CBVMBA_string@@QAVdbg_L2rEnumeration@@@@@@I@Z 00406500 f i readersd:from_any.obj
 0001:000055b0       ?L2_initialize_array@@YAPAV?$Slist@U?$MBApair@$$CBVMBA_string@@QAVdbg_L2rVariable@@@@@@PAV1@I@Z 004065b0 f i readersd:from_any.obj
 0001:00005660       ?L2_free_array@@YAXPAV?$Slist@U?$MBApair@$$CBVMBA_string@@QAVdbg_L2rVariable@@@@@@I@Z 00406660 f i readersd:from_any.obj
 0001:00005710       ??_G?$Slist@U?$MBApair@$$CBVMBA_string@@QAVdbg_L2rEnumeration@@@@@@QAEPAXI@Z 00406710 f i readersd:from_any.obj
 0001:00005770       ??_G?$Slist@U?$MBApair@$$CBVMBA_string@@QAVdbg_L2rVariable@@@@@@QAEPAXI@Z 00406770 f i readersd:from_any.obj
 0001:000057d0       ??0?$Slist@U?$MBApair@$$CBVMBA_string@@QAVdbg_L2rEnumeration@@@@@@QAE@XZ 004067d0 f i readersd:from_any.obj
 0001:00005810       ??1?$Slist@U?$MBApair@$$CBVMBA_string@@QAVdbg_L2rEnumeration@@@@@@QAE@XZ 00406810 f i readersd:from_any.obj
 0001:00005850       ??0?$Slist@U?$MBApair@$$CBVMBA_string@@QAVdbg_L2rVariable@@@@@@QAE@XZ 00406850 f i readersd:from_any.obj
 0001:00005890       ??1?$Slist@U?$MBApair@$$CBVMBA_string@@QAVdbg_L2rVariable@@@@@@QAE@XZ 00406890 f i readersd:from_any.obj
 0001:000058d0       ?erase@?$Slist@U?$MBApair@$$CBVMBA_string@@QAVdbg_L2rEnumeration@@@@@@QAEXXZ 004068d0 f i readersd:from_any.obj
 0001:00005930       ?erase@?$Slist@U?$MBApair@$$CBVMBA_string@@QAVdbg_L2rVariable@@@@@@QAEXXZ 00406930 f i readersd:from_any.obj
 0001:00005990       ?delete_list@?$Slist_item@U?$MBApair@$$CBVMBA_string@@QAVdbg_L2rEnumeration@@@@@@QAEXXZ 00406990 f i readersd:from_any.obj
 0001:00005a10       ?delete_list@?$Slist_item@U?$MBApair@$$CBVMBA_string@@QAVdbg_L2rVariable@@@@@@QAEXXZ 00406a10 f i readersd:from_any.obj
 0001:00005a90       ??_G?$Slist_item@U?$MBApair@$$CBVMBA_string@@QAVdbg_L2rEnumeration@@@@@@QAEPAXI@Z 00406a90 f i readersd:from_any.obj
 0001:00005af0       ??_G?$Slist_item@U?$MBApair@$$CBVMBA_string@@QAVdbg_L2rVariable@@@@@@QAEPAXI@Z 00406af0 f i readersd:from_any.obj
 0001:00005b50       ??1?$Slist_item@U?$MBApair@$$CBVMBA_string@@QAVdbg_L2rEnumeration@@@@@@QAE@XZ 00406b50 f i readersd:from_any.obj
 0001:00005bc0       ??1?$Slist_item@U?$MBApair@$$CBVMBA_string@@QAVdbg_L2rVariable@@@@@@QAE@XZ 00406bc0 f i readersd:from_any.obj
 0001:00005c30       ??1?$MBApair@$$CBVMBA_string@@QAVdbg_L2rEnumeration@@@@QAE@XZ 00406c30 f i readersd:from_any.obj
 0001:00005c70       ??1?$MBApair@$$CBVMBA_string@@QAVdbg_L2rVariable@@@@QAE@XZ 00406c70 f i readersd:from_any.obj
 0001:00005cb0       ??0?$Slist@U?$MBApair@$$CBVMBA_string@@QAVdbg_L2rEnumeration@@@@@@QAE@ABV0@@Z 00406cb0 f i readersd:from_any.obj
 0001:00005db0       ?L2_free_array_no_dtor@@YAXPAV?$Slist@U?$MBApair@$$CBVMBA_string@@QAVdbg_L2rEnumeration@@@@@@I@Z 00406db0 f i readersd:from_any.obj
 0001:00005df0       ??0?$Slist@U?$MBApair@$$CBVMBA_string@@QAVdbg_L2rVariable@@@@@@QAE@ABV0@@Z 00406df0 f i readersd:from_any.obj
 0001:00005ef0       ?L2_free_array_no_dtor@@YAXPAV?$Slist@U?$MBApair@$$CBVMBA_string@@QAVdbg_L2rVariable@@@@@@I@Z 00406ef0 f i readersd:from_any.obj
 0001:00005fb0       ??0?$Slist_item@U?$MBApair@$$CBVMBA_string@@QAVdbg_L2rEnumeration@@@@@@QAE@ABU?$MBApair@$$CBVMBA_string@@QAVdbg_L2rEnumeration@@@@@Z 00406fb0 f i readersd:from_any.obj
 0001:00006030       ??0?$Slist_item@U?$MBApair@$$CBVMBA_string@@QAVdbg_L2rVariable@@@@@@QAE@ABU?$MBApair@$$CBVMBA_string@@QAVdbg_L2rVariable@@@@@Z 00407030 f i readersd:from_any.obj
 0001:000060b0       ??0?$MBApair@$$CBVMBA_string@@QAVdbg_L2rEnumeration@@@@QAE@ABU0@@Z 004070b0 f i readersd:from_any.obj
 0001:00006100       ??0?$MBApair@$$CBVMBA_string@@QAVdbg_L2rVariable@@@@QAE@ABU0@@Z 00407100 f i readersd:from_any.obj
 0001:00006350       ??0Livingstone_reader@@QAE@XZ 00407350 f   readersd:livingstone_reader.obj
 0001:00006430       ??_GLivingstone_reader@@UAEPAXI@Z 00407430 f i readersd:livingstone_reader.obj
 0001:00006430       ??_ELivingstone_reader@@UAEPAXI@Z 00407430 f i readersd:livingstone_reader.obj
 0001:00006490       ??1Livingstone_reader@@UAE@XZ 00407490 f   readersd:livingstone_reader.obj
 0001:000065d0       ??_GL2_file@@QAEPAXI@Z     004075d0 f i readersd:livingstone_reader.obj
 0001:00006630       ?read_model_array@Livingstone_reader@@QAE_NPBEI@Z 00407630 f   readersd:livingstone_reader.obj
 0001:000068d0       ??0L2_argument_error@@QAE@VMBA_string@@@Z 004078d0 f i readersd:livingstone_reader.obj
 0001:00006960       ??0L2_error@@IAE@VMBA_string@@@Z 00407960 f i readersd:livingstone_reader.obj
 0001:000069e0       ?get_output@Livingstone_reader@@QAEAAV?$basic_ostream@DU?$char_traits@D@std@@@std@@XZ 004079e0 f i readersd:livingstone_reader.obj
 0001:00006a10       ??1L2_argument_error@@QAE@XZ 00407a10 f i readersd:livingstone_reader.obj
 0001:00006a50       ??0L2_argument_error@@QAE@ABV0@@Z 00407a50 f i readersd:livingstone_reader.obj
 0001:00006a90       ??0L2_error@@QAE@ABV0@@Z   00407a90 f i readersd:livingstone_reader.obj
 0001:00006ad0       ?read_file@Livingstone_reader@@QAE_NVMBA_string@@0@Z 00407ad0 f   readersd:livingstone_reader.obj
 0001:00006d40       ?apply_translator@Livingstone_reader@@IAE_NPAVL2_file_translator@@@Z 00407d40 f   readersd:livingstone_reader.obj
 0001:00006f10       ??0L2_initialization_error@@QAE@VMBA_string@@@Z 00407f10 f i readersd:livingstone_reader.obj
 0001:00006fa0       ?get_file@Livingstone_reader@@QAEPAVL2_file@@XZ 00407fa0 f i readersd:livingstone_reader.obj
 0001:00007000       ?set_source@L2_file_translator@@QAEXPBVL2_file@@@Z 00408000 f i readersd:livingstone_reader.obj
 0001:000070c0       ?get_source@L2_file_translator@@QBEPBVL2_file@@XZ 004080c0 f i readersd:livingstone_reader.obj
 0001:000070f0       ?set_dest@L2_file_translator@@QAEXPAVL2_file@@@Z 004080f0 f i readersd:livingstone_reader.obj
 0001:000071b0       ?get_dest@L2_file_translator@@QBEPBVL2_file@@XZ 004081b0 f i readersd:livingstone_reader.obj
 0001:000071e0       ?setVerbose@L2_file_translator@@QAEX_N@Z 004081e0 f i readersd:livingstone_reader.obj
 0001:00007210       ?set_output@L2_file_translator@@QAEXAAV?$basic_ostream@DU?$char_traits@D@std@@@std@@@Z 00408210 f i readersd:livingstone_reader.obj
 0001:00007240       ??1L2_initialization_error@@QAE@XZ 00408240 f i readersd:livingstone_reader.obj
 0001:00007280       ??0L2_initialization_error@@QAE@ABV0@@Z 00408280 f i readersd:livingstone_reader.obj
 0001:000072c0       ?merge_eq_vars@Livingstone_reader@@QAE_NXZ 004082c0 f   readersd:livingstone_reader.obj
 0001:00007360       ??0xlate_merge_eq_vars@@QAE@PBVL2_file@@PAV1@@Z 00408360 f i readersd:livingstone_reader.obj
 0001:00007410       ??1L2_file_translator@@UAE@XZ 00408410 f i readersd:livingstone_reader.obj
 0001:00007510       ??0L2_file_translator@@IAE@PBVL2_file@@PAV1@@Z 00408510 f i readersd:livingstone_reader.obj
 0001:00007650       ??_GL2_file_translator@@UAEPAXI@Z 00408650 f i readersd:livingstone_reader.obj
 0001:00007650       ??_EL2_file_translator@@UAEPAXI@Z 00408650 f i readersd:livingstone_reader.obj
 0001:000076b0       ??_Gxlate_merge_eq_vars@@UAEPAXI@Z 004086b0 f i readersd:livingstone_reader.obj
 0001:000076b0       ??_Exlate_merge_eq_vars@@UAEPAXI@Z 004086b0 f i readersd:livingstone_reader.obj
 0001:00007710       ?merge_eq_vars@Livingstone_reader@@QAE_NAAV?$Hash_table@VMBA_string@@V1@@@AAV?$Array@VMBA_string@@$00@@@Z 00408710 f   readersd:livingstone_reader.obj
 0001:000077e0       ?strip@Livingstone_reader@@QAE_NXZ 004087e0 f   readersd:livingstone_reader.obj
 0001:00007880       ??0xlate_strip@@QAE@PBVL2_file@@PAV1@@Z 00408880 f i readersd:livingstone_reader.obj
 0001:000078d0       ??_Gxlate_strip@@UAEPAXI@Z 004088d0 f i readersd:livingstone_reader.obj
 0001:000078d0       ??_Exlate_strip@@UAEPAXI@Z 004088d0 f i readersd:livingstone_reader.obj
 0001:00007930       ??1xlate_strip@@UAE@XZ     00408930 f i readersd:livingstone_reader.obj
 0001:00007970       ?remove_duplicates@Livingstone_reader@@QAE_NXZ 00408970 f   readersd:livingstone_reader.obj
 0001:00007a10       ??1xlate_remove_duplicates@@UAE@XZ 00408a10 f i readersd:livingstone_reader.obj
 0001:00007a50       ?sort_props@Livingstone_reader@@QAE_NXZ 00408a50 f   readersd:livingstone_reader.obj
 0001:00007af0       ??0xlate_sort_props@@QAE@PBVL2_file@@PAV1@@Z 00408af0 f i readersd:livingstone_reader.obj
 0001:00007b40       ??_Gxlate_sort_props@@UAEPAXI@Z 00408b40 f i readersd:livingstone_reader.obj
 0001:00007b40       ??_Exlate_sort_props@@UAEPAXI@Z 00408b40 f i readersd:livingstone_reader.obj
 0001:00007ba0       ??1xlate_sort_props@@UAE@XZ 00408ba0 f i readersd:livingstone_reader.obj
 0001:00007be0       ??0?$Slist@PAVL2_file@@@@QAE@XZ 00408be0 f i readersd:livingstone_reader.obj
 0001:00007c20       ??1?$Slist@PAVL2_file@@@@QAE@XZ 00408c20 f i readersd:livingstone_reader.obj
 0001:00007c60       ?empty@?$Slist@PAVL2_file@@@@QBE_NXZ 00408c60 f i readersd:livingstone_reader.obj
 0001:00007ca0       ?push_front@?$Slist@PAVL2_file@@@@QAEXABQAVL2_file@@@Z 00408ca0 f i readersd:livingstone_reader.obj
 0001:00007d20       ?erase@?$Slist@PAVL2_file@@@@QAEXXZ 00408d20 f i readersd:livingstone_reader.obj
 0001:00007d80       ?front@?$Slist@PAVL2_file@@@@QAEAAPAVL2_file@@XZ 00408d80 f i readersd:livingstone_reader.obj
 0001:00007de0       ?begin@?$Slist@PAVL2_file@@@@QAE?AV?$Slist_iterator@PAVL2_file@@@@XZ 00408de0 f i readersd:livingstone_reader.obj
 0001:00007e30       ?end@?$Slist@PAVL2_file@@@@QAE?AV?$Slist_iterator@PAVL2_file@@@@XZ 00408e30 f i readersd:livingstone_reader.obj
 0001:00007e80       ??0?$Hash_table@PBVL2rEnumeration@@PBV1@@@QAE@P6AIABQBVL2rEnumeration@@@Z@Z 00408e80 f i readersd:livingstone_reader.obj
 0001:00007ef0       ??1?$Hash_table@PBVL2rEnumeration@@PBV1@@@QAE@XZ 00408ef0 f i readersd:livingstone_reader.obj
 0001:00007f40       ??0?$Hash_table@PBVL2rEnumeration@@V?$Slist@PBVL2rEnumeration@@@@@@QAE@P6AIABQBVL2rEnumeration@@@Z@Z 00408f40 f i readersd:livingstone_reader.obj
 0001:00007fb0       ??1?$Hash_table@PBVL2rEnumeration@@V?$Slist@PBVL2rEnumeration@@@@@@QAE@XZ 00408fb0 f i readersd:livingstone_reader.obj
 0001:00008000       ??0?$Hash_table@PBVL2rVariable@@PBV1@@@QAE@P6AIABQBVL2rVariable@@@Z@Z 00409000 f i readersd:livingstone_reader.obj
 0001:00008070       ??1?$Hash_table@PBVL2rVariable@@PBV1@@@QAE@XZ 00409070 f i readersd:livingstone_reader.obj
 0001:000080c0       ??0?$Hash_table@PBVL2rVariable@@V?$Slist@PBVL2rVariable@@@@@@QAE@P6AIABQBVL2rVariable@@@Z@Z 004090c0 f i readersd:livingstone_reader.obj
 0001:00008130       ??1?$Hash_table@PBVL2rVariable@@V?$Slist@PBVL2rVariable@@@@@@QAE@XZ 00409130 f i readersd:livingstone_reader.obj
 0001:00008180       ??0?$Hash_table@PBVL2rProposition@@PBV1@@@QAE@P6AIABQBVL2rProposition@@@Z@Z 00409180 f i readersd:livingstone_reader.obj
 0001:000081f0       ??1?$Hash_table@PBVL2rProposition@@PBV1@@@QAE@XZ 004091f0 f i readersd:livingstone_reader.obj
 0001:00008240       ??0?$Hash_table@PBVL2rProposition@@V?$Slist@PBVL2rProposition@@@@@@QAE@P6AIABQBVL2rProposition@@@Z@Z 00409240 f i readersd:livingstone_reader.obj
 0001:000082b0       ??1?$Hash_table@PBVL2rProposition@@V?$Slist@PBVL2rProposition@@@@@@QAE@XZ 004092b0 f i readersd:livingstone_reader.obj
 0001:00008300       ??0?$Hash_table@PBVL2rClause@@PBV1@@@QAE@P6AIABQBVL2rClause@@@Z@Z 00409300 f i readersd:livingstone_reader.obj
 0001:00008370       ??1?$Hash_table@PBVL2rClause@@PBV1@@@QAE@XZ 00409370 f i readersd:livingstone_reader.obj
 0001:000083c0       ??0?$Hash_table@PBVL2rClause@@V?$Slist@PBVL2rClause@@@@@@QAE@P6AIABQBVL2rClause@@@Z@Z 004093c0 f i readersd:livingstone_reader.obj
 0001:00008430       ??1?$Hash_table@PBVL2rClause@@V?$Slist@PBVL2rClause@@@@@@QAE@XZ 00409430 f i readersd:livingstone_reader.obj
 0001:00008480       ??0?$Slist@PAVEqClass@xlate_merge_eq_vars@@@@QAE@XZ 00409480 f i readersd:livingstone_reader.obj
 0001:000084c0       ??1?$Slist@PAVEqClass@xlate_merge_eq_vars@@@@QAE@XZ 004094c0 f i readersd:livingstone_reader.obj
 0001:00008500       ??0?$Hash_table@VMBA_string@@V1@@@QAE@P6AIABVMBA_string@@@Z@Z 00409500 f i readersd:livingstone_reader.obj
 0001:00008570       ??1?$Hash_table@VMBA_string@@V1@@@QAE@XZ 00409570 f i readersd:livingstone_reader.obj
 0001:000085c0       ??0?$Array@VMBA_string@@$00@@QAE@XZ 004095c0 f i readersd:livingstone_reader.obj
 0001:00008610       ??E?$Slist_iterator@PAVL2_file@@@@QAEAAV0@XZ 00409610 f i readersd:livingstone_reader.obj
 0001:00008660       ??D?$Slist_iterator@PAVL2_file@@@@QAEAAPAVL2_file@@XZ 00409660 f i readersd:livingstone_reader.obj
 0001:000086b0       ??9?$Slist_iterator@PAVL2_file@@@@QBE_NABV0@@Z 004096b0 f i readersd:livingstone_reader.obj
 0001:000086f0       ?erase@?$Slist@PAVEqClass@xlate_merge_eq_vars@@@@QAEXXZ 004096f0 f i readersd:livingstone_reader.obj
 0001:00008750       ??0?$Slist_iterator@PAVL2_file@@@@QAE@PAV?$Slist_item@PAVL2_file@@@@@Z 00409750 f i readersd:livingstone_reader.obj
 0001:00008790       ??0?$Slist_item@PAVL2_file@@@@QAE@ABQAVL2_file@@PAV0@@Z 00409790 f i readersd:livingstone_reader.obj
 0001:000087e0       ?delete_list@?$Slist_item@PAVL2_file@@@@QAEXXZ 004097e0 f i readersd:livingstone_reader.obj
 0001:00008860       ??_G?$Slist_item@PAVL2_file@@@@QAEPAXI@Z 00409860 f i readersd:livingstone_reader.obj
 0001:000088c0       ??1?$Slist_item@PAVL2_file@@@@QAE@XZ 004098c0 f i readersd:livingstone_reader.obj
 0001:00008900       ?delete_list@?$Slist_item@PAVEqClass@xlate_merge_eq_vars@@@@QAEXXZ 00409900 f i readersd:livingstone_reader.obj
 0001:00008980       ??_G?$Slist_item@PAVEqClass@xlate_merge_eq_vars@@@@QAEPAXI@Z 00409980 f i readersd:livingstone_reader.obj
 0001:000089e0       ??1?$Slist_item@PAVEqClass@xlate_merge_eq_vars@@@@QAE@XZ 004099e0 f i readersd:livingstone_reader.obj
 0001:00008a20       ?hash_integral_key@@YAIABQBVL2rEnumeration@@@Z 00409a20 f i readersd:livingstone_reader.obj
 0001:00008a50       ?hash_integral_key@@YAIABQBVL2rVariable@@@Z 00409a50 f i readersd:livingstone_reader.obj
 0001:00008a80       ?hash_integral_key@@YAIABQBVL2rProposition@@@Z 00409a80 f i readersd:livingstone_reader.obj
 0001:00008ab0       ?hash_integral_key@@YAIABQBVL2rClause@@@Z 00409ab0 f i readersd:livingstone_reader.obj
 0001:00008ae0       ?L2_initialize_array@@YAPAV?$Slist@U?$MBApair@QBVL2rEnumeration@@QBV1@@@@@PAV1@I@Z 00409ae0 f i readersd:livingstone_reader.obj
 0001:00008b90       ?L2_free_array@@YAXPAV?$Slist@U?$MBApair@QBVL2rEnumeration@@QBV1@@@@@I@Z 00409b90 f i readersd:livingstone_reader.obj
 0001:00008c40       ?L2_initialize_array@@YAPAV?$Slist@U?$MBApair@QBVL2rEnumeration@@$$CBV?$Slist@PBVL2rEnumeration@@@@@@@@PAV1@I@Z 00409c40 f i readersd:livingstone_reader.obj
 0001:00008cf0       ?L2_free_array@@YAXPAV?$Slist@U?$MBApair@QBVL2rEnumeration@@$$CBV?$Slist@PBVL2rEnumeration@@@@@@@@I@Z 00409cf0 f i readersd:livingstone_reader.obj
 0001:00008da0       ?L2_initialize_array@@YAPAV?$Slist@U?$MBApair@QBVL2rVariable@@QBV1@@@@@PAV1@I@Z 00409da0 f i readersd:livingstone_reader.obj
 0001:00008e50       ?L2_free_array@@YAXPAV?$Slist@U?$MBApair@QBVL2rVariable@@QBV1@@@@@I@Z 00409e50 f i readersd:livingstone_reader.obj
 0001:00008f00       ?L2_initialize_array@@YAPAV?$Slist@U?$MBApair@QBVL2rVariable@@$$CBV?$Slist@PBVL2rVariable@@@@@@@@PAV1@I@Z 00409f00 f i readersd:livingstone_reader.obj
 0001:00008fb0       ?L2_free_array@@YAXPAV?$Slist@U?$MBApair@QBVL2rVariable@@$$CBV?$Slist@PBVL2rVariable@@@@@@@@I@Z 00409fb0 f i readersd:livingstone_reader.obj
 0001:00009060       ?L2_initialize_array@@YAPAV?$Slist@U?$MBApair@QBVL2rProposition@@QBV1@@@@@PAV1@I@Z 0040a060 f i readersd:livingstone_reader.obj
 0001:00009110       ?L2_free_array@@YAXPAV?$Slist@U?$MBApair@QBVL2rProposition@@QBV1@@@@@I@Z 0040a110 f i readersd:livingstone_reader.obj
 0001:000091c0       ?L2_initialize_array@@YAPAV?$Slist@U?$MBApair@QBVL2rProposition@@$$CBV?$Slist@PBVL2rProposition@@@@@@@@PAV1@I@Z 0040a1c0 f i readersd:livingstone_reader.obj
 0001:00009270       ?L2_free_array@@YAXPAV?$Slist@U?$MBApair@QBVL2rProposition@@$$CBV?$Slist@PBVL2rProposition@@@@@@@@I@Z 0040a270 f i readersd:livingstone_reader.obj
 0001:00009320       ?L2_initialize_array@@YAPAV?$Slist@U?$MBApair@QBVL2rClause@@QBV1@@@@@PAV1@I@Z 0040a320 f i readersd:livingstone_reader.obj
 0001:000093d0       ?L2_free_array@@YAXPAV?$Slist@U?$MBApair@QBVL2rClause@@QBV1@@@@@I@Z 0040a3d0 f i readersd:livingstone_reader.obj
 0001:00009480       ?L2_initialize_array@@YAPAV?$Slist@U?$MBApair@QBVL2rClause@@$$CBV?$Slist@PBVL2rClause@@@@@@@@PAV1@I@Z 0040a480 f i readersd:livingstone_reader.obj
 0001:00009530       ?L2_free_array@@YAXPAV?$Slist@U?$MBApair@QBVL2rClause@@$$CBV?$Slist@PBVL2rClause@@@@@@@@I@Z 0040a530 f i readersd:livingstone_reader.obj
 0001:000095e0       ?L2_initialize_array@@YAPAV?$Slist@U?$MBApair@$$CBVMBA_string@@$$CBV1@@@@@PAV1@I@Z 0040a5e0 f i readersd:livingstone_reader.obj
 0001:00009690       ?L2_free_array@@YAXPAV?$Slist@U?$MBApair@$$CBVMBA_string@@$$CBV1@@@@@I@Z 0040a690 f i readersd:livingstone_reader.obj
 0001:00009740       ??_G?$Slist@U?$MBApair@QBVL2rEnumeration@@QBV1@@@@@QAEPAXI@Z 0040a740 f i readersd:livingstone_reader.obj
 0001:000097a0       ??_G?$Slist@U?$MBApair@QBVL2rEnumeration@@$$CBV?$Slist@PBVL2rEnumeration@@@@@@@@QAEPAXI@Z 0040a7a0 f i readersd:livingstone_reader.obj
 0001:00009800       ??_G?$Slist@U?$MBApair@QBVL2rVariable@@QBV1@@@@@QAEPAXI@Z 0040a800 f i readersd:livingstone_reader.obj
 0001:00009860       ??_G?$Slist@U?$MBApair@QBVL2rVariable@@$$CBV?$Slist@PBVL2rVariable@@@@@@@@QAEPAXI@Z 0040a860 f i readersd:livingstone_reader.obj
 0001:000098c0       ??_G?$Slist@U?$MBApair@QBVL2rProposition@@QBV1@@@@@QAEPAXI@Z 0040a8c0 f i readersd:livingstone_reader.obj
 0001:00009920       ??_G?$Slist@U?$MBApair@QBVL2rProposition@@$$CBV?$Slist@PBVL2rProposition@@@@@@@@QAEPAXI@Z 0040a920 f i readersd:livingstone_reader.obj
 0001:00009980       ??_G?$Slist@U?$MBApair@QBVL2rClause@@QBV1@@@@@QAEPAXI@Z 0040a980 f i readersd:livingstone_reader.obj
 0001:000099e0       ??_G?$Slist@U?$MBApair@QBVL2rClause@@$$CBV?$Slist@PBVL2rClause@@@@@@@@QAEPAXI@Z 0040a9e0 f i readersd:livingstone_reader.obj
 0001:00009a40       ??_G?$Slist@U?$MBApair@$$CBVMBA_string@@$$CBV1@@@@@QAEPAXI@Z 0040aa40 f i readersd:livingstone_reader.obj
 0001:00009aa0       ??0?$Slist@U?$MBApair@QBVL2rEnumeration@@QBV1@@@@@QAE@XZ 0040aaa0 f i readersd:livingstone_reader.obj
 0001:00009ae0       ??1?$Slist@U?$MBApair@QBVL2rEnumeration@@QBV1@@@@@QAE@XZ 0040aae0 f i readersd:livingstone_reader.obj
 0001:00009b20       ??0?$Slist@U?$MBApair@QBVL2rEnumeration@@$$CBV?$Slist@PBVL2rEnumeration@@@@@@@@QAE@XZ 0040ab20 f i readersd:livingstone_reader.obj
 0001:00009b60       ??1?$Slist@U?$MBApair@QBVL2rEnumeration@@$$CBV?$Slist@PBVL2rEnumeration@@@@@@@@QAE@XZ 0040ab60 f i readersd:livingstone_reader.obj
 0001:00009ba0       ??0?$Slist@U?$MBApair@QBVL2rVariable@@QBV1@@@@@QAE@XZ 0040aba0 f i readersd:livingstone_reader.obj
 0001:00009be0       ??1?$Slist@U?$MBApair@QBVL2rVariable@@QBV1@@@@@QAE@XZ 0040abe0 f i readersd:livingstone_reader.obj
 0001:00009c20       ??0?$Slist@U?$MBApair@QBVL2rVariable@@$$CBV?$Slist@PBVL2rVariable@@@@@@@@QAE@XZ 0040ac20 f i readersd:livingstone_reader.obj
 0001:00009c60       ??1?$Slist@U?$MBApair@QBVL2rVariable@@$$CBV?$Slist@PBVL2rVariable@@@@@@@@QAE@XZ 0040ac60 f i readersd:livingstone_reader.obj
 0001:00009ca0       ??0?$Slist@U?$MBApair@QBVL2rProposition@@QBV1@@@@@QAE@XZ 0040aca0 f i readersd:livingstone_reader.obj
 0001:00009ce0       ??1?$Slist@U?$MBApair@QBVL2rProposition@@QBV1@@@@@QAE@XZ 0040ace0 f i readersd:livingstone_reader.obj
 0001:00009d20       ??0?$Slist@U?$MBApair@QBVL2rProposition@@$$CBV?$Slist@PBVL2rProposition@@@@@@@@QAE@XZ 0040ad20 f i readersd:livingstone_reader.obj
 0001:00009d60       ??1?$Slist@U?$MBApair@QBVL2rProposition@@$$CBV?$Slist@PBVL2rProposition@@@@@@@@QAE@XZ 0040ad60 f i readersd:livingstone_reader.obj
 0001:00009da0       ??0?$Slist@U?$MBApair@QBVL2rClause@@QBV1@@@@@QAE@XZ 0040ada0 f i readersd:livingstone_reader.obj
 0001:00009de0       ??1?$Slist@U?$MBApair@QBVL2rClause@@QBV1@@@@@QAE@XZ 0040ade0 f i readersd:livingstone_reader.obj
 0001:00009e20       ??0?$Slist@U?$MBApair@QBVL2rClause@@$$CBV?$Slist@PBVL2rClause@@@@@@@@QAE@XZ 0040ae20 f i readersd:livingstone_reader.obj
 0001:00009e60       ??1?$Slist@U?$MBApair@QBVL2rClause@@$$CBV?$Slist@PBVL2rClause@@@@@@@@QAE@XZ 0040ae60 f i readersd:livingstone_reader.obj
 0001:00009ea0       ??0?$Slist@U?$MBApair@$$CBVMBA_string@@$$CBV1@@@@@QAE@XZ 0040aea0 f i readersd:livingstone_reader.obj
 0001:00009ee0       ??1?$Slist@U?$MBApair@$$CBVMBA_string@@$$CBV1@@@@@QAE@XZ 0040aee0 f i readersd:livingstone_reader.obj
 0001:00009f20       ?erase@?$Slist@U?$MBApair@QBVL2rEnumeration@@QBV1@@@@@QAEXXZ 0040af20 f i readersd:livingstone_reader.obj
 0001:00009f80       ?erase@?$Slist@U?$MBApair@QBVL2rEnumeration@@$$CBV?$Slist@PBVL2rEnumeration@@@@@@@@QAEXXZ 0040af80 f i readersd:livingstone_reader.obj
 0001:00009fe0       ?erase@?$Slist@U?$MBApair@QBVL2rVariable@@QBV1@@@@@QAEXXZ 0040afe0 f i readersd:livingstone_reader.obj
 0001:0000a040       ?erase@?$Slist@U?$MBApair@QBVL2rVariable@@$$CBV?$Slist@PBVL2rVariable@@@@@@@@QAEXXZ 0040b040 f i readersd:livingstone_reader.obj
 0001:0000a0a0       ?erase@?$Slist@U?$MBApair@QBVL2rProposition@@QBV1@@@@@QAEXXZ 0040b0a0 f i readersd:livingstone_reader.obj
 0001:0000a100       ?erase@?$Slist@U?$MBApair@QBVL2rProposition@@$$CBV?$Slist@PBVL2rProposition@@@@@@@@QAEXXZ 0040b100 f i readersd:livingstone_reader.obj
 0001:0000a160       ?erase@?$Slist@U?$MBApair@QBVL2rClause@@QBV1@@@@@QAEXXZ 0040b160 f i readersd:livingstone_reader.obj
 0001:0000a1c0       ?erase@?$Slist@U?$MBApair@QBVL2rClause@@$$CBV?$Slist@PBVL2rClause@@@@@@@@QAEXXZ 0040b1c0 f i readersd:livingstone_reader.obj
 0001:0000a220       ?erase@?$Slist@U?$MBApair@$$CBVMBA_string@@$$CBV1@@@@@QAEXXZ 0040b220 f i readersd:livingstone_reader.obj
 0001:0000a280       ?delete_list@?$Slist_item@U?$MBApair@$$CBVMBA_string@@$$CBV1@@@@@QAEXXZ 0040b280 f i readersd:livingstone_reader.obj
 0001:0000a300       ?delete_list@?$Slist_item@U?$MBApair@QBVL2rEnumeration@@QBV1@@@@@QAEXXZ 0040b300 f i readersd:livingstone_reader.obj
 0001:0000a380       ?delete_list@?$Slist_item@U?$MBApair@QBVL2rEnumeration@@$$CBV?$Slist@PBVL2rEnumeration@@@@@@@@QAEXXZ 0040b380 f i readersd:livingstone_reader.obj
 0001:0000a400       ?delete_list@?$Slist_item@U?$MBApair@QBVL2rVariable@@QBV1@@@@@QAEXXZ 0040b400 f i readersd:livingstone_reader.obj
 0001:0000a480       ?delete_list@?$Slist_item@U?$MBApair@QBVL2rVariable@@$$CBV?$Slist@PBVL2rVariable@@@@@@@@QAEXXZ 0040b480 f i readersd:livingstone_reader.obj
 0001:0000a500       ?delete_list@?$Slist_item@U?$MBApair@QBVL2rProposition@@QBV1@@@@@QAEXXZ 0040b500 f i readersd:livingstone_reader.obj
 0001:0000a580       ?delete_list@?$Slist_item@U?$MBApair@QBVL2rProposition@@$$CBV?$Slist@PBVL2rProposition@@@@@@@@QAEXXZ 0040b580 f i readersd:livingstone_reader.obj
 0001:0000a600       ?delete_list@?$Slist_item@U?$MBApair@QBVL2rClause@@QBV1@@@@@QAEXXZ 0040b600 f i readersd:livingstone_reader.obj
 0001:0000a680       ?delete_list@?$Slist_item@U?$MBApair@QBVL2rClause@@$$CBV?$Slist@PBVL2rClause@@@@@@@@QAEXXZ 0040b680 f i readersd:livingstone_reader.obj
 0001:0000a700       ??_G?$Slist_item@U?$MBApair@$$CBVMBA_string@@$$CBV1@@@@@QAEPAXI@Z 0040b700 f i readersd:livingstone_reader.obj
 0001:0000a760       ??_G?$Slist_item@U?$MBApair@QBVL2rEnumeration@@QBV1@@@@@QAEPAXI@Z 0040b760 f i readersd:livingstone_reader.obj
 0001:0000a7c0       ??_G?$Slist_item@U?$MBApair@QBVL2rEnumeration@@$$CBV?$Slist@PBVL2rEnumeration@@@@@@@@QAEPAXI@Z 0040b7c0 f i readersd:livingstone_reader.obj
 0001:0000a820       ??_G?$Slist_item@U?$MBApair@QBVL2rVariable@@QBV1@@@@@QAEPAXI@Z 0040b820 f i readersd:livingstone_reader.obj
 0001:0000a880       ??_G?$Slist_item@U?$MBApair@QBVL2rVariable@@$$CBV?$Slist@PBVL2rVariable@@@@@@@@QAEPAXI@Z 0040b880 f i readersd:livingstone_reader.obj
 0001:0000a8e0       ??_G?$Slist_item@U?$MBApair@QBVL2rProposition@@QBV1@@@@@QAEPAXI@Z 0040b8e0 f i readersd:livingstone_reader.obj
 0001:0000a940       ??_G?$Slist_item@U?$MBApair@QBVL2rProposition@@$$CBV?$Slist@PBVL2rProposition@@@@@@@@QAEPAXI@Z 0040b940 f i readersd:livingstone_reader.obj
 0001:0000a9a0       ??_G?$Slist_item@U?$MBApair@QBVL2rClause@@QBV1@@@@@QAEPAXI@Z 0040b9a0 f i readersd:livingstone_reader.obj
 0001:0000aa00       ??_G?$Slist_item@U?$MBApair@QBVL2rClause@@$$CBV?$Slist@PBVL2rClause@@@@@@@@QAEPAXI@Z 0040ba00 f i readersd:livingstone_reader.obj
 0001:0000aa60       ??1?$Slist_item@U?$MBApair@$$CBVMBA_string@@$$CBV1@@@@@QAE@XZ 0040ba60 f i readersd:livingstone_reader.obj
 0001:0000aad0       ??1?$MBApair@$$CBVMBA_string@@$$CBV1@@@QAE@XZ 0040bad0 f i readersd:livingstone_reader.obj
 0001:0000ab40       ??1?$Slist_item@U?$MBApair@QBVL2rEnumeration@@QBV1@@@@@QAE@XZ 0040bb40 f i readersd:livingstone_reader.obj
 0001:0000ab80       ??1?$Slist_item@U?$MBApair@QBVL2rEnumeration@@$$CBV?$Slist@PBVL2rEnumeration@@@@@@@@QAE@XZ 0040bb80 f i readersd:livingstone_reader.obj
 0001:0000abf0       ??1?$Slist_item@U?$MBApair@QBVL2rVariable@@QBV1@@@@@QAE@XZ 0040bbf0 f i readersd:livingstone_reader.obj
 0001:0000ac30       ??1?$Slist_item@U?$MBApair@QBVL2rVariable@@$$CBV?$Slist@PBVL2rVariable@@@@@@@@QAE@XZ 0040bc30 f i readersd:livingstone_reader.obj
 0001:0000aca0       ??1?$Slist_item@U?$MBApair@QBVL2rProposition@@QBV1@@@@@QAE@XZ 0040bca0 f i readersd:livingstone_reader.obj
 0001:0000ace0       ??1?$Slist_item@U?$MBApair@QBVL2rProposition@@$$CBV?$Slist@PBVL2rProposition@@@@@@@@QAE@XZ 0040bce0 f i readersd:livingstone_reader.obj
 0001:0000ad50       ??1?$Slist_item@U?$MBApair@QBVL2rClause@@QBV1@@@@@QAE@XZ 0040bd50 f i readersd:livingstone_reader.obj
 0001:0000ad90       ??1?$Slist_item@U?$MBApair@QBVL2rClause@@$$CBV?$Slist@PBVL2rClause@@@@@@@@QAE@XZ 0040bd90 f i readersd:livingstone_reader.obj
 0001:0000ae00       ??1?$MBApair@QBVL2rEnumeration@@$$CBV?$Slist@PBVL2rEnumeration@@@@@@QAE@XZ 0040be00 f i readersd:livingstone_reader.obj
 0001:0000ae40       ??1?$MBApair@QBVL2rVariable@@$$CBV?$Slist@PBVL2rVariable@@@@@@QAE@XZ 0040be40 f i readersd:livingstone_reader.obj
 0001:0000ae80       ??1?$MBApair@QBVL2rProposition@@$$CBV?$Slist@PBVL2rProposition@@@@@@QAE@XZ 0040be80 f i readersd:livingstone_reader.obj
 0001:0000aec0       ??1?$MBApair@QBVL2rClause@@$$CBV?$Slist@PBVL2rClause@@@@@@QAE@XZ 0040bec0 f i readersd:livingstone_reader.obj
 0001:0000af00       ??1?$Slist@PBVL2rEnumeration@@@@QAE@XZ 0040bf00 f i readersd:livingstone_reader.obj
 0001:0000af40       ??1?$Slist@PBVL2rVariable@@@@QAE@XZ 0040bf40 f i readersd:livingstone_reader.obj
 0001:0000af80       ??1?$Slist@PBVL2rProposition@@@@QAE@XZ 0040bf80 f i readersd:livingstone_reader.obj
 0001:0000afc0       ??1?$Slist@PBVL2rClause@@@@QAE@XZ 0040bfc0 f i readersd:livingstone_reader.obj
 0001:0000b000       ?erase@?$Slist@PBVL2rEnumeration@@@@QAEXXZ 0040c000 f i readersd:livingstone_reader.obj
 0001:0000b060       ?erase@?$Slist@PBVL2rVariable@@@@QAEXXZ 0040c060 f i readersd:livingstone_reader.obj
 0001:0000b0c0       ?erase@?$Slist@PBVL2rProposition@@@@QAEXXZ 0040c0c0 f i readersd:livingstone_reader.obj
 0001:0000b120       ?erase@?$Slist@PBVL2rClause@@@@QAEXXZ 0040c120 f i readersd:livingstone_reader.obj
 0001:0000b180       ?delete_list@?$Slist_item@PBVL2rEnumeration@@@@QAEXXZ 0040c180 f i readersd:livingstone_reader.obj
 0001:0000b200       ?delete_list@?$Slist_item@PBVL2rVariable@@@@QAEXXZ 0040c200 f i readersd:livingstone_reader.obj
 0001:0000b280       ?delete_list@?$Slist_item@PBVL2rProposition@@@@QAEXXZ 0040c280 f i readersd:livingstone_reader.obj
 0001:0000b300       ?delete_list@?$Slist_item@PBVL2rClause@@@@QAEXXZ 0040c300 f i readersd:livingstone_reader.obj
 0001:0000b380       ??_G?$Slist_item@PBVL2rEnumeration@@@@QAEPAXI@Z 0040c380 f i readersd:livingstone_reader.obj
 0001:0000b3e0       ??_G?$Slist_item@PBVL2rVariable@@@@QAEPAXI@Z 0040c3e0 f i readersd:livingstone_reader.obj
 0001:0000b440       ??_G?$Slist_item@PBVL2rProposition@@@@QAEPAXI@Z 0040c440 f i readersd:livingstone_reader.obj
 0001:0000b4a0       ??_G?$Slist_item@PBVL2rClause@@@@QAEPAXI@Z 0040c4a0 f i readersd:livingstone_reader.obj
 0001:0000b500       ??1?$Slist_item@PBVL2rEnumeration@@@@QAE@XZ 0040c500 f i readersd:livingstone_reader.obj
 0001:0000b540       ??1?$Slist_item@PBVL2rVariable@@@@QAE@XZ 0040c540 f i readersd:livingstone_reader.obj
 0001:0000b580       ??1?$Slist_item@PBVL2rProposition@@@@QAE@XZ 0040c580 f i readersd:livingstone_reader.obj
 0001:0000b5c0       ??1?$Slist_item@PBVL2rClause@@@@QAE@XZ 0040c5c0 f i readersd:livingstone_reader.obj
 0001:0000b600       ??0?$Slist@U?$MBApair@$$CBVMBA_string@@$$CBV1@@@@@QAE@ABV0@@Z 0040c600 f i readersd:livingstone_reader.obj
 0001:0000b700       ??0?$Slist@U?$MBApair@QBVL2rEnumeration@@QBV1@@@@@QAE@ABV0@@Z 0040c700 f i readersd:livingstone_reader.obj
 0001:0000b800       ?L2_free_array_no_dtor@@YAXPAV?$Slist@U?$MBApair@QBVL2rEnumeration@@QBV1@@@@@I@Z 0040c800 f i readersd:livingstone_reader.obj
 0001:0000b840       ??0?$Slist@U?$MBApair@QBVL2rEnumeration@@$$CBV?$Slist@PBVL2rEnumeration@@@@@@@@QAE@ABV0@@Z 0040c840 f i readersd:livingstone_reader.obj
 0001:0000b940       ?L2_free_array_no_dtor@@YAXPAV?$Slist@U?$MBApair@QBVL2rEnumeration@@$$CBV?$Slist@PBVL2rEnumeration@@@@@@@@I@Z 0040c940 f i readersd:livingstone_reader.obj
 0001:0000b980       ??0?$Slist@U?$MBApair@QBVL2rVariable@@QBV1@@@@@QAE@ABV0@@Z 0040c980 f i readersd:livingstone_reader.obj
 0001:0000ba80       ?L2_free_array_no_dtor@@YAXPAV?$Slist@U?$MBApair@QBVL2rVariable@@QBV1@@@@@I@Z 0040ca80 f i readersd:livingstone_reader.obj
 0001:0000bac0       ??0?$Slist@U?$MBApair@QBVL2rVariable@@$$CBV?$Slist@PBVL2rVariable@@@@@@@@QAE@ABV0@@Z 0040cac0 f i readersd:livingstone_reader.obj
 0001:0000bbc0       ?L2_free_array_no_dtor@@YAXPAV?$Slist@U?$MBApair@QBVL2rVariable@@$$CBV?$Slist@PBVL2rVariable@@@@@@@@I@Z 0040cbc0 f i readersd:livingstone_reader.obj
 0001:0000bc00       ??0?$Slist@U?$MBApair@QBVL2rProposition@@QBV1@@@@@QAE@ABV0@@Z 0040cc00 f i readersd:livingstone_reader.obj
 0001:0000bd00       ?L2_free_array_no_dtor@@YAXPAV?$Slist@U?$MBApair@QBVL2rProposition@@QBV1@@@@@I@Z 0040cd00 f i readersd:livingstone_reader.obj
 0001:0000bd40       ??0?$Slist@U?$MBApair@QBVL2rProposition@@$$CBV?$Slist@PBVL2rProposition@@@@@@@@QAE@ABV0@@Z 0040cd40 f i readersd:livingstone_reader.obj
 0001:0000be40       ?L2_free_array_no_dtor@@YAXPAV?$Slist@U?$MBApair@QBVL2rProposition@@$$CBV?$Slist@PBVL2rProposition@@@@@@@@I@Z 0040ce40 f i readersd:livingstone_reader.obj
 0001:0000be80       ??0?$Slist@U?$MBApair@QBVL2rClause@@QBV1@@@@@QAE@ABV0@@Z 0040ce80 f i readersd:livingstone_reader.obj
 0001:0000bf80       ?L2_free_array_no_dtor@@YAXPAV?$Slist@U?$MBApair@QBVL2rClause@@QBV1@@@@@I@Z 0040cf80 f i readersd:livingstone_reader.obj
 0001:0000bfc0       ??0?$Slist@U?$MBApair@QBVL2rClause@@$$CBV?$Slist@PBVL2rClause@@@@@@@@QAE@ABV0@@Z 0040cfc0 f i readersd:livingstone_reader.obj
 0001:0000c0c0       ?L2_free_array_no_dtor@@YAXPAV?$Slist@U?$MBApair@QBVL2rClause@@$$CBV?$Slist@PBVL2rClause@@@@@@@@I@Z 0040d0c0 f i readersd:livingstone_reader.obj
 0001:0000c100       ?L2_free_array_no_dtor@@YAXPAV?$Slist@U?$MBApair@$$CBVMBA_string@@$$CBV1@@@@@I@Z 0040d100 f i readersd:livingstone_reader.obj
 0001:0000c1c0       ??0?$Slist_item@U?$MBApair@$$CBVMBA_string@@$$CBV1@@@@@QAE@ABU?$MBApair@$$CBVMBA_string@@$$CBV1@@@@Z 0040d1c0 f i readersd:livingstone_reader.obj
 0001:0000c240       ??0?$MBApair@$$CBVMBA_string@@$$CBV1@@@QAE@ABU0@@Z 0040d240 f i readersd:livingstone_reader.obj
 0001:0000c2c0       ??0?$Slist_item@U?$MBApair@QBVL2rEnumeration@@QBV1@@@@@QAE@ABU?$MBApair@QBVL2rEnumeration@@QBV1@@@@Z 0040d2c0 f i readersd:livingstone_reader.obj
 0001:0000c320       ??0?$Slist_item@U?$MBApair@QBVL2rEnumeration@@$$CBV?$Slist@PBVL2rEnumeration@@@@@@@@QAE@ABU?$MBApair@QBVL2rEnumeration@@$$CBV?$Slist@PBVL2rEnumeration@@@@@@@Z 0040d320 f i readersd:livingstone_reader.obj
 0001:0000c3a0       ??0?$Slist_item@U?$MBApair@QBVL2rVariable@@QBV1@@@@@QAE@ABU?$MBApair@QBVL2rVariable@@QBV1@@@@Z 0040d3a0 f i readersd:livingstone_reader.obj
 0001:0000c400       ??0?$Slist_item@U?$MBApair@QBVL2rVariable@@$$CBV?$Slist@PBVL2rVariable@@@@@@@@QAE@ABU?$MBApair@QBVL2rVariable@@$$CBV?$Slist@PBVL2rVariable@@@@@@@Z 0040d400 f i readersd:livingstone_reader.obj
 0001:0000c480       ??0?$Slist_item@U?$MBApair@QBVL2rProposition@@QBV1@@@@@QAE@ABU?$MBApair@QBVL2rProposition@@QBV1@@@@Z 0040d480 f i readersd:livingstone_reader.obj
 0001:0000c4e0       ??0?$Slist_item@U?$MBApair@QBVL2rProposition@@$$CBV?$Slist@PBVL2rProposition@@@@@@@@QAE@ABU?$MBApair@QBVL2rProposition@@$$CBV?$Slist@PBVL2rProposition@@@@@@@Z 0040d4e0 f i readersd:livingstone_reader.obj
 0001:0000c560       ??0?$Slist_item@U?$MBApair@QBVL2rClause@@QBV1@@@@@QAE@ABU?$MBApair@QBVL2rClause@@QBV1@@@@Z 0040d560 f i readersd:livingstone_reader.obj
 0001:0000c5c0       ??0?$Slist_item@U?$MBApair@QBVL2rClause@@$$CBV?$Slist@PBVL2rClause@@@@@@@@QAE@ABU?$MBApair@QBVL2rClause@@$$CBV?$Slist@PBVL2rClause@@@@@@@Z 0040d5c0 f i readersd:livingstone_reader.obj
 0001:0000c640       ??0?$MBApair@QBVL2rEnumeration@@$$CBV?$Slist@PBVL2rEnumeration@@@@@@QAE@ABU0@@Z 0040d640 f i readersd:livingstone_reader.obj
 0001:0000c690       ??0?$MBApair@QBVL2rVariable@@$$CBV?$Slist@PBVL2rVariable@@@@@@QAE@ABU0@@Z 0040d690 f i readersd:livingstone_reader.obj
 0001:0000c6e0       ??0?$MBApair@QBVL2rProposition@@$$CBV?$Slist@PBVL2rProposition@@@@@@QAE@ABU0@@Z 0040d6e0 f i readersd:livingstone_reader.obj
 0001:0000c730       ??0?$MBApair@QBVL2rClause@@$$CBV?$Slist@PBVL2rClause@@@@@@QAE@ABU0@@Z 0040d730 f i readersd:livingstone_reader.obj
 0001:0000c780       ??0?$Slist@PBVL2rEnumeration@@@@QAE@ABV0@@Z 0040d780 f i readersd:livingstone_reader.obj
 0001:0000c880       ??0?$Slist@PBVL2rVariable@@@@QAE@ABV0@@Z 0040d880 f i readersd:livingstone_reader.obj
 0001:0000c980       ??0?$Slist@PBVL2rProposition@@@@QAE@ABV0@@Z 0040d980 f i readersd:livingstone_reader.obj
 0001:0000ca80       ??0?$Slist@PBVL2rClause@@@@QAE@ABV0@@Z 0040da80 f i readersd:livingstone_reader.obj
 0001:0000cb80       ??0?$Slist_item@PBVL2rEnumeration@@@@QAE@ABQBVL2rEnumeration@@@Z 0040db80 f i readersd:livingstone_reader.obj
 0001:0000cbd0       ??0?$Slist_item@PBVL2rVariable@@@@QAE@ABQBVL2rVariable@@@Z 0040dbd0 f i readersd:livingstone_reader.obj
 0001:0000cc20       ??0?$Slist_item@PBVL2rProposition@@@@QAE@ABQBVL2rProposition@@@Z 0040dc20 f i readersd:livingstone_reader.obj
 0001:0000cc70       ??0?$Slist_item@PBVL2rClause@@@@QAE@ABQBVL2rClause@@@Z 0040dc70 f i readersd:livingstone_reader.obj
 0001:0000cec0       ?find_enum@from_xmpl@@AAEPAVdbg_L2rEnumeration@@ABVMBA_string@@@Z 0040dec0 f   readersd:from_xmpl.obj
 0001:0000cff0       ??0L2_not_found_error@@QAE@VMBA_string@@@Z 0040dff0 f i readersd:from_xmpl.obj
 0001:0000d080       ??1L2_not_found_error@@QAE@XZ 0040e080 f i readersd:from_xmpl.obj
 0001:0000d0c0       ??0L2_not_found_error@@QAE@ABV0@@Z 0040e0c0 f i readersd:from_xmpl.obj
 0001:0000d100       ?create_enum@from_xmpl@@AAEPAVdbg_L2rEnumeration@@ABVMBA_string@@AAV?$Slist@VMBA_string@@@@@Z 0040e100 f   readersd:from_xmpl.obj
 0001:0000d360       ??0L2_reader_error@@QAE@VMBA_string@@@Z 0040e360 f i readersd:from_xmpl.obj
 0001:0000d3f0       ??1L2_reader_error@@QAE@XZ 0040e3f0 f i readersd:from_xmpl.obj
 0001:0000d430       ??0L2_reader_error@@QAE@ABV0@@Z 0040e430 f i readersd:from_xmpl.obj
 0001:0000d470       ?find_enum_member@from_xmpl@@AAEHPBVL2rEnumeration@@ABVMBA_string@@@Z 0040e470 f   readersd:from_xmpl.obj
 0001:0000d590       ??8MBA_string@@QBE_NABV0@@Z 0040e590 f i readersd:from_xmpl.obj
 0001:0000d600       ?compare@MBA_string@@QBEHABV1@@Z 0040e600 f i readersd:from_xmpl.obj
 0001:0000d650       ?nmembers@L2rEnumeration@@QBEIXZ 0040e650 f i readersd:from_xmpl.obj
 0001:0000d680       ?name@dbg_L2rEnumeration@@QBE?AVMBA_string@@I@Z 0040e680 f i readersd:from_xmpl.obj
 0001:0000d700       ?find_variable@from_xmpl@@AAEPAVL2rVariable@@ABVMBA_string@@_N@Z 0040e700 f   readersd:from_xmpl.obj
 0001:0000d860       ?create_variable@from_xmpl@@AAEPAVL2rVariable@@PBVdbg_L2rEnumeration@@ABVMBA_string@@@Z 0040e860 f   readersd:from_xmpl.obj
 0001:0000da00       ??0dbg_L2rVariable@@QAE@IPBVL2rEnumeration@@VMBA_string@@@Z 0040ea00 f i readersd:from_xmpl.obj
 0001:0000daa0       ??0L2rVariable@@QAE@IPBVL2rEnumeration@@@Z 0040eaa0 f i readersd:from_xmpl.obj
 0001:0000db20       ??1L2rVariable@@UAE@XZ     0040eb20 f i readersd:from_xmpl.obj
 0001:0000dbe0       ?kind@L2rVariable@@QBE?AW4VarKind@@XZ 0040ebe0 f i readersd:from_xmpl.obj
 0001:0000dc10       ?hasDebug@L2rVariable@@UBE_NXZ 0040ec10 f i readersd:from_xmpl.obj
 0001:0000dc40       ?toOStream_long@L2rVariable@@UBEXAAV?$basic_ostream@DU?$char_traits@D@std@@@std@@@Z 0040ec40 f i readersd:from_xmpl.obj
 0001:0000dd20       ??6@YAAAV?$basic_ostream@DU?$char_traits@D@std@@@std@@AAV01@PBVL2rEnumeration@@@Z 0040ed20 f i readersd:from_xmpl.obj
 0001:0000dd80       ?id@L2rVariable@@QBEIXZ    0040ed80 f i readersd:from_xmpl.obj
 0001:0000ddb0       ?type@L2rVariable@@QBEPBVL2rEnumeration@@XZ 0040edb0 f i readersd:from_xmpl.obj
 0001:0000dde0       ?initial@L2rVariable@@QBEHXZ 0040ede0 f i readersd:from_xmpl.obj
 0001:0000de10       ?toOStream@L2rVariable@@UBEXAAV?$basic_ostream@DU?$char_traits@D@std@@@std@@@Z 0040ee10 f i readersd:from_xmpl.obj
 0001:0000de50       ??_EL2rVariable@@UAEPAXI@Z 0040ee50 f i readersd:from_xmpl.obj
 0001:0000de50       ??_GL2rVariable@@UAEPAXI@Z 0040ee50 f i readersd:from_xmpl.obj
 0001:0000deb0       ??_GL2rMode@@QAEPAXI@Z     0040eeb0 f i readersd:from_xmpl.obj
 0001:0000df10       ?hasDebug@dbg_L2rVariable@@UBE_NXZ 0040ef10 f i readersd:from_xmpl.obj
 0001:0000df40       ?toOStream_long@dbg_L2rVariable@@UBEXAAV?$basic_ostream@DU?$char_traits@D@std@@@std@@@Z 0040ef40 f i readersd:from_xmpl.obj
 0001:0000e070       ?name@dbg_L2rVariable@@QBE?AVMBA_string@@XZ 0040f070 f i readersd:from_xmpl.obj
 0001:0000e0d0       ?toOStream@dbg_L2rVariable@@UBEXAAV?$basic_ostream@DU?$char_traits@D@std@@@std@@@Z 0040f0d0 f i readersd:from_xmpl.obj
 0001:0000e160       ??_Edbg_L2rVariable@@UAEPAXI@Z 0040f160 f i readersd:from_xmpl.obj
 0001:0000e160       ??_Gdbg_L2rVariable@@UAEPAXI@Z 0040f160 f i readersd:from_xmpl.obj
 0001:0000e1c0       ??1dbg_L2rVariable@@UAE@XZ 0040f1c0 f i readersd:from_xmpl.obj
 0001:0000e240       ?find_or_create_prop@from_xmpl@@AAEPAVL2rProposition@@PBVL2rVariable@@_NABVMBA_string@@@Z 0040f240 f   readersd:from_xmpl.obj
 0001:0000e520       ??0L2rPropVarValue@@QAE@IPBVL2rVariable@@_NI@Z 0040f520 f i readersd:from_xmpl.obj
 0001:0000e580       ??0L2rProposition@@QAE@IPBVL2rVariable@@_N@Z 0040f580 f i readersd:from_xmpl.obj
 0001:0000e5f0       ??8L2rProposition@@UBE_NABV0@@Z 0040f5f0 f i readersd:from_xmpl.obj
 0001:0000e6b0       ?var@L2rProposition@@QBEPBVL2rVariable@@XZ 0040f6b0 f i readersd:from_xmpl.obj
 0001:0000e6e0       ?isPositive@L2rProposition@@QBE_NXZ 0040f6e0 f i readersd:from_xmpl.obj
 0001:0000e710       ??_EL2rProposition@@UAEPAXI@Z 0040f710 f i readersd:from_xmpl.obj
 0001:0000e710       ??_GL2rProposition@@UAEPAXI@Z 0040f710 f i readersd:from_xmpl.obj
 0001:0000e770       ??1L2rProposition@@UAE@XZ  0040f770 f i readersd:from_xmpl.obj
 0001:0000e7d0       ??8L2rPropVarValue@@UBE_NABVL2rProposition@@@Z 0040f7d0 f i readersd:from_xmpl.obj
 0001:0000e840       ?value@L2rPropVarValue@@QBEIXZ 0040f840 f i readersd:from_xmpl.obj
 0001:0000e870       ?isEquality@L2rPropVarValue@@UBE_NXZ 0040f870 f i readersd:from_xmpl.obj
 0001:0000e8a0       ?toOStream_long@L2rPropVarValue@@UBEXAAV?$basic_ostream@DU?$char_traits@D@std@@@std@@@Z 0040f8a0 f i readersd:from_xmpl.obj
 0001:0000e930       ?id@L2rProposition@@QBEIXZ 0040f930 f i readersd:from_xmpl.obj
 0001:0000e960       ?toOStream@L2rPropVarValue@@UBEXAAV?$basic_ostream@DU?$char_traits@D@std@@@std@@@Z 0040f960 f i readersd:from_xmpl.obj
 0001:0000ea10       ??6@YAAAV?$basic_ostream@DU?$char_traits@D@std@@@std@@AAV01@PBVL2rVariable@@@Z 0040fa10 f i readersd:from_xmpl.obj
 0001:0000ea70       ??_EL2rPropVarValue@@UAEPAXI@Z 0040fa70 f i readersd:from_xmpl.obj
 0001:0000ea70       ??_GL2rPropVarValue@@UAEPAXI@Z 0040fa70 f i readersd:from_xmpl.obj
 0001:0000ead0       ??1L2rPropVarValue@@UAE@XZ 0040fad0 f i readersd:from_xmpl.obj
 0001:0000eb10       ??0L2rPropVarVar@@QAE@IPBVL2rVariable@@_N0@Z 0040fb10 f i readersd:from_xmpl.obj
 0001:0000ebe0       ??8L2rPropVarVar@@UBE_NABVL2rProposition@@@Z 0040fbe0 f i readersd:from_xmpl.obj
 0001:0000ec50       ?otherVar@L2rPropVarVar@@QBEPBVL2rVariable@@XZ 0040fc50 f i readersd:from_xmpl.obj
 0001:0000ec80       ?isEquality@L2rPropVarVar@@UBE_NXZ 0040fc80 f i readersd:from_xmpl.obj
 0001:0000ecb0       ?toOStream_long@L2rPropVarVar@@UBEXAAV?$basic_ostream@DU?$char_traits@D@std@@@std@@@Z 0040fcb0 f i readersd:from_xmpl.obj
 0001:0000ed40       ?toOStream@L2rPropVarVar@@UBEXAAV?$basic_ostream@DU?$char_traits@D@std@@@std@@@Z 0040fd40 f i readersd:from_xmpl.obj
 0001:0000edd0       ??_EL2rPropVarVar@@UAEPAXI@Z 0040fdd0 f i readersd:from_xmpl.obj
 0001:0000edd0       ??_GL2rPropVarVar@@UAEPAXI@Z 0040fdd0 f i readersd:from_xmpl.obj
 0001:0000ee30       ??1L2rPropVarVar@@UAE@XZ   0040fe30 f i readersd:from_xmpl.obj
 0001:0000ee70       ?add_clause_prop@from_xmpl@@AAEXPAVL2rProposition@@@Z 0040fe70 f   readersd:from_xmpl.obj
 0001:0000ef50       ?clause_eq_clause_props@from_xmpl@@AAE_NPBVL2rClause@@@Z 0040ff50 f   readersd:from_xmpl.obj
 0001:0000f000       ?prop@L2rClause@@QBEPBVL2rProposition@@I@Z 00410000 f i readersd:from_xmpl.obj
 0001:0000f060       ?nprops@L2rClause@@QBE?BIXZ 00410060 f i readersd:from_xmpl.obj
 0001:0000f090       ?find_or_create_clause@from_xmpl@@AAEPAVL2rClause@@XZ 00410090 f   readersd:from_xmpl.obj
 0001:0000f200       ?toOStream_long@L2rClause@@QBEXAAV?$basic_ostream@DU?$char_traits@D@std@@@std@@@Z 00410200 f i readersd:from_xmpl.obj
 0001:0000f280       ?id@L2rClause@@QBEIXZ      00410280 f i readersd:from_xmpl.obj
 0001:0000f2b0       ?toOStream@L2rClause@@QBEXAAV?$basic_ostream@DU?$char_traits@D@std@@@std@@@Z 004102b0 f i readersd:from_xmpl.obj
 0001:0000f3a0       ??6@YAAAV?$basic_ostream@DU?$char_traits@D@std@@@std@@AAV01@PBVL2rProposition@@@Z 004103a0 f i readersd:from_xmpl.obj
 0001:0000f400       ?start_attribute@from_xmpl@@AAEXABVMBA_string@@0@Z 00410400 f   readersd:from_xmpl.obj
 0001:0000f4f0       ?start_cmd@from_xmpl@@AAEXABVMBA_string@@@Z 004104f0 f   readersd:from_xmpl.obj
 0001:0000f770       ??0L2_parse_model_error@@QAE@VMBA_string@@@Z 00410770 f i readersd:from_xmpl.obj
 0001:0000f800       ?name@dbg_L2rEnumeration@@QBE?AVMBA_string@@XZ 00410800 f i readersd:from_xmpl.obj
 0001:0000f860       ??1L2_parse_model_error@@QAE@XZ 00410860 f i readersd:from_xmpl.obj
 0001:0000f8a0       ??0L2_parse_model_error@@QAE@ABV0@@Z 004108a0 f i readersd:from_xmpl.obj
 0001:0000f8e0       ?start_obs@from_xmpl@@AAEXABVMBA_string@@@Z 004108e0 f   readersd:from_xmpl.obj
 0001:0000f930       ?start_assign@from_xmpl@@AAEXABVMBA_string@@@Z 00410930 f   readersd:from_xmpl.obj
 0001:0000fa70       ??0MBA_string@@QAE@PBDI@Z  00410a70 f i readersd:from_xmpl.obj
 0001:0000fb10       ?find@MBA_string@@QBEHPBD@Z 00410b10 f i readersd:from_xmpl.obj
 0001:0000fb70       ?start_attributetype@from_xmpl@@AAEXABVMBA_string@@0@Z 00410b70 f   readersd:from_xmpl.obj
 0001:0000fcc0       ??AMBA_string@@QBEDI@Z     00410cc0 f i readersd:from_xmpl.obj
 0001:0000fd30       ?start_component@from_xmpl@@AAEXABVMBA_string@@@Z 00410d30 f   readersd:from_xmpl.obj
 0001:0000fd70       ?start_clause@from_xmpl@@AAEXXZ 00410d70 f   readersd:from_xmpl.obj
 0001:0000fda0       ?start_prop@from_xmpl@@AAEXXZ 00410da0 f   readersd:from_xmpl.obj
 0001:0000fdd0       ?start_statevector@from_xmpl@@AAEXABVMBA_string@@@Z 00410dd0 f   readersd:from_xmpl.obj
 0001:0000feb0       ?start_transition@from_xmpl@@AAEXABVMBA_string@@000@Z 00410eb0 f   readersd:from_xmpl.obj
 0001:00010210       ?characters@from_xmpl@@AAEXABVMBA_string@@@Z 00411210 f   readersd:from_xmpl.obj
 0001:00010460       ?end_component@from_xmpl@@AAEXXZ 00411460 f   readersd:from_xmpl.obj
 0001:000104b0       ?end_clause@from_xmpl@@AAEXXZ 004114b0 f   readersd:from_xmpl.obj
 0001:00010540       ?putInBackground@L2rClause@@QAEXXZ 00411540 f i readersd:from_xmpl.obj
 0001:00010570       ?end_prop@from_xmpl@@AAEXXZ 00411570 f   readersd:from_xmpl.obj
 0001:000105a0       ?end_transition@from_xmpl@@AAEXXZ 004115a0 f   readersd:from_xmpl.obj
 0001:000106a0       ??0dbg_L2rTransition@@QAE@ABVMBA_string@@PBVL2rVariable@@HHIPBQBVL2rClause@@_N3I@Z 004116a0 f i readersd:from_xmpl.obj
 0001:00010740       ?hasDebug@dbg_L2rTransition@@UBE_NXZ 00411740 f i readersd:from_xmpl.obj
 0001:00010770       ?toOStream_long@dbg_L2rTransition@@UBEXAAV?$basic_ostream@DU?$char_traits@D@std@@@std@@@Z 00411770 f i readersd:from_xmpl.obj
 0001:000107e0       ?toOStream_internal@L2rTransition@@IBEXAAV?$basic_ostream@DU?$char_traits@D@std@@@std@@@Z 004117e0 f i readersd:from_xmpl.obj
 0001:00010a20       ??6@YAAAV?$basic_ostream@DU?$char_traits@D@std@@@std@@AAV01@PBVL2rClause@@@Z 00411a20 f i readersd:from_xmpl.obj
 0001:00010a80       ?mode@L2rTransition@@QBEPBVL2rVariable@@XZ 00411a80 f i readersd:from_xmpl.obj
 0001:00010ab0       ?nclauses@L2rTransition@@QBEIXZ 00411ab0 f i readersd:from_xmpl.obj
 0001:00010ae0       ?isNominal@L2rTransition@@QBE_NXZ 00411ae0 f i readersd:from_xmpl.obj
 0001:00010b10       ?isFailure@L2rTransition@@QBE_NXZ 00411b10 f i readersd:from_xmpl.obj
 0001:00010b50       ?rank@L2rTransition@@QBEIXZ 00411b50 f i readersd:from_xmpl.obj
 0001:00010b80       ?printFrom@L2rTransition@@QBEXAAV?$basic_ostream@DU?$char_traits@D@std@@@std@@@Z 00411b80 f i readersd:from_xmpl.obj
 0001:00010c00       ?from@L2rTransition@@QBEHXZ 00411c00 f i readersd:from_xmpl.obj
 0001:00010c30       ?printTo@L2rTransition@@QBEXAAV?$basic_ostream@DU?$char_traits@D@std@@@std@@@Z 00411c30 f i readersd:from_xmpl.obj
 0001:00010ca0       ?to@L2rTransition@@QBEHXZ  00411ca0 f i readersd:from_xmpl.obj
 0001:00010cd0       ??_Edbg_L2rTransition@@UAEPAXI@Z 00411cd0 f i readersd:from_xmpl.obj
 0001:00010cd0       ??_Gdbg_L2rTransition@@UAEPAXI@Z 00411cd0 f i readersd:from_xmpl.obj
 0001:00010d30       ??1dbg_L2rTransition@@UAE@XZ 00411d30 f i readersd:from_xmpl.obj
 0001:00010db0       ?try_to_open@@YA_NABVMBA_string@@@Z 00411db0 f   readersd:from_xmpl.obj
 0001:00010ec0       ??7ios_base@std@@QBE_NXZ   00411ec0 f i readersd:from_xmpl.obj
 0001:00010f00       ??_D?$basic_ifstream@DU?$char_traits@D@std@@@std@@QAEXXZ 00411f00 f i readersd:from_xmpl.obj
 0001:00010f50       ?read@from_xmpl@@UAE_NXZ   00411f50 f   readersd:from_xmpl.obj
 0001:000118e0       ?setEnum@L2_file@@QAEXIPAVL2rEnumeration@@@Z 004128e0 f i readersd:from_xmpl.obj
 0001:00011930       ?getEnum@L2_file@@QBEPBVL2rEnumeration@@I@Z 00412930 f i readersd:from_xmpl.obj
 0001:00011990       ?nenums@L2_file@@QBEIXZ    00412990 f i readersd:from_xmpl.obj
 0001:000119c0       ?setVar@L2_file@@QAEXIPAVL2rVariable@@@Z 004129c0 f i readersd:from_xmpl.obj
 0001:00011a10       ?getVar@L2_file@@QBEPBVL2rVariable@@I@Z 00412a10 f i readersd:from_xmpl.obj
 0001:00011a70       ?nvars@L2_file@@QBEIXZ     00412a70 f i readersd:from_xmpl.obj
 0001:00011aa0       ?setClause@L2_file@@QAEXIPAVL2rClause@@@Z 00412aa0 f i readersd:from_xmpl.obj
 0001:00011af0       ?getClause@L2_file@@QBEPBVL2rClause@@I@Z 00412af0 f i readersd:from_xmpl.obj
 0001:00011b50       ?nclauses@L2_file@@QBEIXZ  00412b50 f i readersd:from_xmpl.obj
 0001:00011b80       ?id@L2rEnumeration@@QBEIXZ 00412b80 f i readersd:from_xmpl.obj
 0001:00011bb0       ??0HandlerBase_subclass@from_xmpl@@QAE@AAV1@@Z 00412bb0 f i readersd:from_xmpl.obj
 0001:00011c70       ?startElement@HandlerBase_subclass@from_xmpl@@UAEXQBGAAVAttributeList@@@Z 00412c70 f i readersd:from_xmpl.obj
 0001:000121f0       ?xcode@HandlerBase_subclass@from_xmpl@@QAE?AVMBA_string@@PBG@Z 004131f0 f i readersd:from_xmpl.obj
 0001:00012260       ?get_attribute@HandlerBase_subclass@from_xmpl@@QAE?AVMBA_string@@PBD@Z 00413260 f i readersd:from_xmpl.obj
 0001:00012300       ?characters@HandlerBase_subclass@from_xmpl@@UAEXQBGI@Z 00413300 f i readersd:from_xmpl.obj
 0001:00012390       ?endElement@HandlerBase_subclass@from_xmpl@@UAEXQBG@Z 00413390 f i readersd:from_xmpl.obj
 0001:000124a0       ?warning@HandlerBase_subclass@from_xmpl@@UAEXABVSAXParseException@@@Z 004134a0 f i readersd:from_xmpl.obj
 0001:000125a0       ?error@HandlerBase_subclass@from_xmpl@@UAEXABVSAXParseException@@@Z 004135a0 f i readersd:from_xmpl.obj
 0001:000127f0       ??0MBA_string@@QAE@I@Z     004137f0 f i readersd:from_xmpl.obj
 0001:000128d0       ?fatalError@HandlerBase_subclass@from_xmpl@@UAEXABVSAXParseException@@@Z 004138d0 f i readersd:from_xmpl.obj
 0001:00012b20       ??_EHandlerBase_subclass@from_xmpl@@UAEPAXI@Z 00413b20 f i readersd:from_xmpl.obj
 0001:00012b20       ??_GHandlerBase_subclass@from_xmpl@@UAEPAXI@Z 00413b20 f i readersd:from_xmpl.obj
 0001:00012b80       ??1HandlerBase_subclass@from_xmpl@@UAE@XZ 00413b80 f i readersd:from_xmpl.obj
 0001:00012c00       ??6?$basic_ostream@DU?$char_traits@D@std@@@std@@QAEAAV01@I@Z 00413c00 f i readersd:from_xmpl.obj
 0001:00012db0       ??1locale@std@@QAE@XZ      00413db0 f i readersd:from_xmpl.obj
 0001:00012e20       ?_Decref@facet@locale@std@@QAEPAV123@XZ 00413e20 f i readersd:from_xmpl.obj
 0001:00012ea0       ?getloc@ios_base@std@@QBE?AVlocale@2@XZ 00413ea0 f i readersd:from_xmpl.obj
 0001:00012f00       ??0locale@std@@QAE@ABV01@@Z 00413f00 f i readersd:from_xmpl.obj
 0001:00012f50       ?_Incref@facet@locale@std@@QAEXXZ 00413f50 f i readersd:from_xmpl.obj
 0001:00012fb0       ??1?$basic_ios@DU?$char_traits@D@std@@@std@@UAE@XZ 00413fb0 f i readersd:from_xmpl.obj
 0001:00012ff0       ?push_front@?$Slist@PAVL2rClause@@@@QAEXABQAVL2rClause@@@Z 00413ff0 f i readersd:from_xmpl.obj
 0001:00013070       ?begin@?$Slist@PAVL2rClause@@@@QAE?AV?$Slist_iterator@PAVL2rClause@@@@XZ 00414070 f i readersd:from_xmpl.obj
 0001:000130c0       ?end@?$Slist@PAVL2rClause@@@@QAE?AV?$Slist_iterator@PAVL2rClause@@@@XZ 004140c0 f i readersd:from_xmpl.obj
 0001:00013110       ?push_front@?$Slist@PAVL2rProposition@@@@QAEXABQAVL2rProposition@@@Z 00414110 f i readersd:from_xmpl.obj
 0001:00013190       ?begin@?$Slist@PAVL2rProposition@@@@QAE?AV?$Slist_iterator@PAVL2rProposition@@@@XZ 00414190 f i readersd:from_xmpl.obj
 0001:000131e0       ?end@?$Slist@PAVL2rProposition@@@@QAE?AV?$Slist_iterator@PAVL2rProposition@@@@XZ 004141e0 f i readersd:from_xmpl.obj
 0001:00013230       ?size@?$Hash_table@VMBA_string@@PAVdbg_L2rVariable@@@@QBEJXZ 00414230 f i readersd:from_xmpl.obj
 0001:000132a0       ?begin@?$Slist@PAVL2rTransition@@@@QAE?AV?$Slist_iterator@PAVL2rTransition@@@@XZ 004142a0 f i readersd:from_xmpl.obj
 0001:000132f0       ?end@?$Slist@PAVL2rTransition@@@@QAE?AV?$Slist_iterator@PAVL2rTransition@@@@XZ 004142f0 f i readersd:from_xmpl.obj
 0001:00013340       ??D?$Hash_table_iterator@VMBA_string@@PAVdbg_L2rEnumeration@@@@QAEABQAVdbg_L2rEnumeration@@XZ 00414340 f i readersd:from_xmpl.obj
 0001:00013380       ??9?$Hash_table_iterator@VMBA_string@@PAVdbg_L2rEnumeration@@@@QBE_NABV0@@Z 00414380 f i readersd:from_xmpl.obj
 0001:000133d0       ??0?$Slist@VMBA_string@@@@QAE@XZ 004143d0 f i readersd:from_xmpl.obj
 0001:00013410       ??1?$Slist@VMBA_string@@@@QAE@XZ 00414410 f i readersd:from_xmpl.obj
 0001:00013450       ?push_front@?$Slist@VMBA_string@@@@QAEXABVMBA_string@@@Z 00414450 f i readersd:from_xmpl.obj
 0001:000134d0       ?begin@?$Slist@VMBA_string@@@@QAE?AV?$Slist_iterator@VMBA_string@@@@XZ 004144d0 f i readersd:from_xmpl.obj
 0001:00013520       ?end@?$Slist@VMBA_string@@@@QAE?AV?$Slist_iterator@VMBA_string@@@@XZ 00414520 f i readersd:from_xmpl.obj
 0001:00013570       ??E?$Slist_iterator@VMBA_string@@@@QAEAAV0@XZ 00414570 f i readersd:from_xmpl.obj
 0001:000135c0       ??D?$Slist_iterator@VMBA_string@@@@QAEAAVMBA_string@@XZ 004145c0 f i readersd:from_xmpl.obj
 0001:00013610       ??9?$Slist_iterator@VMBA_string@@@@QBE_NABV0@@Z 00414610 f i readersd:from_xmpl.obj
 0001:00013650       ??D?$Hash_table_iterator@VMBA_string@@PAVdbg_L2rVariable@@@@QAEABQAVdbg_L2rVariable@@XZ 00414650 f i readersd:from_xmpl.obj
 0001:00013690       ??8?$Hash_table_iterator@VMBA_string@@PAVdbg_L2rVariable@@@@QBE_NABV0@@Z 00414690 f i readersd:from_xmpl.obj
 0001:00013710       ??9?$Hash_table_iterator@VMBA_string@@PAVdbg_L2rVariable@@@@QBE_NABV0@@Z 00414710 f i readersd:from_xmpl.obj
 0001:00013760       ??E?$Slist_iterator@PAVL2rProposition@@@@QAEAAV0@XZ 00414760 f i readersd:from_xmpl.obj
 0001:000137b0       ??D?$Slist_iterator@PAVL2rProposition@@@@QAEAAPAVL2rProposition@@XZ 004147b0 f i readersd:from_xmpl.obj
 0001:00013800       ??9?$Slist_iterator@PAVL2rProposition@@@@QBE_NABV0@@Z 00414800 f i readersd:from_xmpl.obj
 0001:00013840       ??4?$Slist_iterator@PAVL2rProposition@@@@QAEAAV0@ABV0@@Z 00414840 f i readersd:from_xmpl.obj
 0001:00013880       ??E?$Slist_iterator@PAVL2rClause@@@@QAEAAV0@XZ 00414880 f i readersd:from_xmpl.obj
 0001:000138d0       ??D?$Slist_iterator@PAVL2rClause@@@@QAEAAPAVL2rClause@@XZ 004148d0 f i readersd:from_xmpl.obj
 0001:00013920       ??9?$Slist_iterator@PAVL2rClause@@@@QBE_NABV0@@Z 00414920 f i readersd:from_xmpl.obj
 0001:00013960       ??0?$basic_ifstream@DU?$char_traits@D@std@@@std@@QAE@PBDH@Z 00414960 f i readersd:from_xmpl.obj
 0001:00013a60       ??1?$basic_istream@DU?$char_traits@D@std@@@std@@UAE@XZ 00414a60 f i readersd:from_xmpl.obj
 0001:00013aa0       ??1?$basic_ifstream@DU?$char_traits@D@std@@@std@@UAE@XZ 00414aa0 f i readersd:from_xmpl.obj
 0001:00013b30       ??1?$basic_filebuf@DU?$char_traits@D@std@@@std@@UAE@XZ 00414b30 f i readersd:from_xmpl.obj
 0001:00013bf0       ??1?$basic_streambuf@DU?$char_traits@D@std@@@std@@UAE@XZ 00414bf0 f i readersd:from_xmpl.obj
 0001:00013c40       ?overflow@?$basic_streambuf@DU?$char_traits@D@std@@@std@@MAEHH@Z 00414c40 f i readersd:from_xmpl.obj
 0001:00013c80       ?pbackfail@?$basic_streambuf@DU?$char_traits@D@std@@@std@@MAEHH@Z 00414c80 f i readersd:from_xmpl.obj
 0001:00013cc0       ?showmanyc@?$basic_streambuf@DU?$char_traits@D@std@@@std@@MAEHXZ 00414cc0 f i readersd:from_xmpl.obj
 0001:00013cf0       ?underflow@?$basic_streambuf@DU?$char_traits@D@std@@@std@@MAEHXZ 00414cf0 f i readersd:from_xmpl.obj
 0001:00013d30       ?uflow@?$basic_streambuf@DU?$char_traits@D@std@@@std@@MAEHXZ 00414d30 f i readersd:from_xmpl.obj
 0001:00013dc0       ?xsgetn@?$basic_streambuf@DU?$char_traits@D@std@@@std@@MAEHPADH@Z 00414dc0 f i readersd:from_xmpl.obj
 0001:00013ef0       ?copy@?$char_traits@D@std@@SAPADPADPBDI@Z 00414ef0 f i readersd:from_xmpl.obj
 0001:00013f30       ?to_char_type@?$char_traits@D@std@@SADABH@Z 00414f30 f i readersd:from_xmpl.obj
 0001:00013f60       ?xsputn@?$basic_streambuf@DU?$char_traits@D@std@@@std@@MAEHPBDH@Z 00414f60 f i readersd:from_xmpl.obj
 0001:00014090       ?seekoff@?$basic_streambuf@DU?$char_traits@D@std@@@std@@MAE?AV?$fpos@H@2@JW4seekdir@ios_base@2@H@Z 00415090 f i readersd:from_xmpl.obj
 0001:000140e0       ?seekpos@?$basic_streambuf@DU?$char_traits@D@std@@@std@@MAE?AV?$fpos@H@2@V32@H@Z 004150e0 f i readersd:from_xmpl.obj
 0001:00014130       ?setbuf@?$basic_streambuf@DU?$char_traits@D@std@@@std@@MAEPAV12@PADH@Z 00415130 f i readersd:from_xmpl.obj
 0001:00014160       ?sync@?$basic_streambuf@DU?$char_traits@D@std@@@std@@MAEHXZ 00415160 f i readersd:from_xmpl.obj
 0001:00014190       ?imbue@?$basic_streambuf@DU?$char_traits@D@std@@@std@@MAEXABVlocale@2@@Z 00415190 f i readersd:from_xmpl.obj
 0001:000141c0       ?overflow@?$basic_filebuf@DU?$char_traits@D@std@@@std@@MAEHH@Z 004151c0 f i readersd:from_xmpl.obj
 0001:000143f0       ?not_eof@?$char_traits@D@std@@SAHABH@Z 004153f0 f i readersd:from_xmpl.obj
 0001:00014440       ?_Fputc@std@@YA_NDPAU_iobuf@@@Z 00415440 f i readersd:from_xmpl.obj
 0001:00014490       ?pbackfail@?$basic_filebuf@DU?$char_traits@D@std@@@std@@MAEHH@Z 00415490 f i readersd:from_xmpl.obj
 0001:00014630       ?_Ungetc@std@@YA_NDPAU_iobuf@@@Z 00415630 f i readersd:from_xmpl.obj
 0001:00014680       ?size@?$basic_string@DU?$char_traits@D@std@@V?$allocator@D@2@@std@@QBEIXZ 00415680 f i readersd:from_xmpl.obj
 0001:000146b0       ?underflow@?$basic_filebuf@DU?$char_traits@D@std@@@std@@MAEHXZ 004156b0 f i readersd:from_xmpl.obj
 0001:00014740       ?uflow@?$basic_filebuf@DU?$char_traits@D@std@@@std@@MAEHXZ 00415740 f i readersd:from_xmpl.obj
 0001:00014900       ?_Fgetc@std@@YA_NAADPAU_iobuf@@@Z 00415900 f i readersd:from_xmpl.obj
 0001:00014950       ?seekoff@?$basic_filebuf@DU?$char_traits@D@std@@@std@@MAE?AV?$fpos@H@2@JW4seekdir@ios_base@2@H@Z 00415950 f i readersd:from_xmpl.obj
 0001:00014a00       ?seekpos@?$basic_filebuf@DU?$char_traits@D@std@@@std@@MAE?AV?$fpos@H@2@V32@H@Z 00415a00 f i readersd:from_xmpl.obj
 0001:00014b20       ?setbuf@?$basic_filebuf@DU?$char_traits@D@std@@@std@@MAEPAV?$basic_streambuf@DU?$char_traits@D@std@@@2@PADH@Z 00415b20 f i readersd:from_xmpl.obj
 0001:00014b90       ?sync@?$basic_filebuf@DU?$char_traits@D@std@@@std@@MAEHXZ 00415b90 f i readersd:from_xmpl.obj
 0001:00014bf0       ??E?$Slist_iterator@PAVL2rTransition@@@@QAEAAV0@XZ 00415bf0 f i readersd:from_xmpl.obj
 0001:00014c40       ??D?$Slist_iterator@PAVL2rTransition@@@@QAEAAPAVL2rTransition@@XZ 00415c40 f i readersd:from_xmpl.obj
 0001:00014c90       ??9?$Slist_iterator@PAVL2rTransition@@@@QBE_NABV0@@Z 00415c90 f i readersd:from_xmpl.obj
 0001:00014cd0       ??4?$Slist_iterator@PAVL2rTransition@@@@QAEAAV0@ABV0@@Z 00415cd0 f i readersd:from_xmpl.obj
 0001:00014d10       ??_E?$basic_ios@DU?$char_traits@D@std@@@std@@UAEPAXI@Z 00415d10 f i readersd:from_xmpl.obj
 0001:00014d10       ??_G?$basic_ios@DU?$char_traits@D@std@@@std@@UAEPAXI@Z 00415d10 f i readersd:from_xmpl.obj
 0001:00014d70       ??_E?$basic_istream@DU?$char_traits@D@std@@@std@@UAEPAXI@Z 00415d70 f i readersd:from_xmpl.obj
 0001:00014d70       ??_G?$basic_istream@DU?$char_traits@D@std@@@std@@UAEPAXI@Z 00415d70 f i readersd:from_xmpl.obj
 0001:00014dd0       ??_E?$basic_streambuf@DU?$char_traits@D@std@@@std@@UAEPAXI@Z 00415dd0 f i readersd:from_xmpl.obj
 0001:00014dd0       ??_G?$basic_streambuf@DU?$char_traits@D@std@@@std@@UAEPAXI@Z 00415dd0 f i readersd:from_xmpl.obj
 0001:00014e30       ??_E?$basic_ifstream@DU?$char_traits@D@std@@@std@@UAEPAXI@Z 00415e30 f i readersd:from_xmpl.obj
 0001:00014e30       ??_G?$basic_ifstream@DU?$char_traits@D@std@@@std@@UAEPAXI@Z 00415e30 f i readersd:from_xmpl.obj
 0001:00014e90       ??_E?$basic_filebuf@DU?$char_traits@D@std@@@std@@UAEPAXI@Z 00415e90 f i readersd:from_xmpl.obj
 0001:00014e90       ??_G?$basic_filebuf@DU?$char_traits@D@std@@@std@@UAEPAXI@Z 00415e90 f i readersd:from_xmpl.obj
 0001:00014ef0       ??_G?$basic_string@DU?$char_traits@D@std@@V?$allocator@D@2@@std@@QAEPAXI@Z 00415ef0 f i readersd:from_xmpl.obj
 0001:00014f50       ??1?$basic_string@DU?$char_traits@D@std@@V?$allocator@D@2@@std@@QAE@XZ 00415f50 f i readersd:from_xmpl.obj
 0001:00014f90       ??_D?$basic_istream@DU?$char_traits@D@std@@@std@@QAEXXZ 00415f90 f i readersd:from_xmpl.obj
 0001:00014fe0       ?append@?$basic_string@DU?$char_traits@D@std@@V?$allocator@D@2@@std@@QAEAAV12@ID@Z 00415fe0 f i readersd:from_xmpl.obj
 0001:00015080       ?assign@?$char_traits@D@std@@SAPADPADIABD@Z 00416080 f i readersd:from_xmpl.obj
 0001:000150c0       ?erase@?$basic_string@DU?$char_traits@D@std@@V?$allocator@D@2@@std@@QAEAAV12@II@Z 004160c0 f i readersd:from_xmpl.obj
 0001:00015190       ?move@?$char_traits@D@std@@SAPADPADPBDI@Z 00416190 f i readersd:from_xmpl.obj
 0001:000151d0       ?begin@?$basic_string@DU?$char_traits@D@std@@V?$allocator@D@2@@std@@QAEPADXZ 004161d0 f i readersd:from_xmpl.obj
 0001:00015210       ?end@?$basic_string@DU?$char_traits@D@std@@V?$allocator@D@2@@std@@QAEPADXZ 00416210 f i readersd:from_xmpl.obj
 0001:00015260       ?_Tidy@?$basic_string@DU?$char_traits@D@std@@V?$allocator@D@2@@std@@AAEX_N@Z 00416260 f i readersd:from_xmpl.obj
 0001:00015340       ??0?$basic_ios@DU?$char_traits@D@std@@@std@@IAE@XZ 00416340 f i readersd:from_xmpl.obj
 0001:00015390       ??0ios_base@std@@IAE@XZ    00416390 f i readersd:from_xmpl.obj
 0001:000153f0       ??0locale@std@@QAE@W4_Uninitialized@1@@Z 004163f0 f i readersd:from_xmpl.obj
 0001:00015420       ??_Eios_base@std@@UAEPAXI@Z 00416420 f i readersd:from_xmpl.obj
 0001:00015420       ??_Gios_base@std@@UAEPAXI@Z 00416420 f i readersd:from_xmpl.obj
 0001:00015480       ??0?$fpos@H@std@@QAE@J@Z   00416480 f i readersd:from_xmpl.obj
 0001:000154f0       ??0?$fpos@H@std@@QAE@H_J@Z 004164f0 f i readersd:from_xmpl.obj
 0001:00015540       ?state@?$fpos@H@std@@QBEHXZ 00416540 f i readersd:from_xmpl.obj
 0001:00015570       ?get_fpos_t@?$fpos@H@std@@QBE_JXZ 00416570 f i readersd:from_xmpl.obj
 0001:000155a0       ??B?$fpos@H@std@@QBEJXZ    004165a0 f i readersd:from_xmpl.obj
 0001:000155e0       ??0?$basic_istream@DU?$char_traits@D@std@@@std@@QAE@PAV?$basic_streambuf@DU?$char_traits@D@std@@@1@_N@Z 004165e0 f i readersd:from_xmpl.obj
 0001:000156a0       ?eback@?$basic_streambuf@DU?$char_traits@D@std@@@std@@IBEPADXZ 004166a0 f i readersd:from_xmpl.obj
 0001:000156d0       ?gptr@?$basic_streambuf@DU?$char_traits@D@std@@@std@@IBEPADXZ 004166d0 f i readersd:from_xmpl.obj
 0001:00015700       ?egptr@?$basic_streambuf@DU?$char_traits@D@std@@@std@@IBEPADXZ 00416700 f i readersd:from_xmpl.obj
 0001:00015740       ?gbump@?$basic_streambuf@DU?$char_traits@D@std@@@std@@IAEXH@Z 00416740 f i readersd:from_xmpl.obj
 0001:00015790       ?_Gndec@?$basic_streambuf@DU?$char_traits@D@std@@@std@@IAEPADXZ 00416790 f i readersd:from_xmpl.obj
 0001:000157f0       ?_Gninc@?$basic_streambuf@DU?$char_traits@D@std@@@std@@IAEPADXZ 004167f0 f i readersd:from_xmpl.obj
 0001:00015850       ?pbump@?$basic_streambuf@DU?$char_traits@D@std@@@std@@IAEXH@Z 00416850 f i readersd:from_xmpl.obj
 0001:000158a0       ??8?$Hash_table_iterator@VMBA_string@@PAVdbg_L2rEnumeration@@@@QBE_NABV0@@Z 004168a0 f i readersd:from_xmpl.obj
 0001:00015920       ??D?$Slist_iterator@U?$MBApair@$$CBVMBA_string@@QAVdbg_L2rEnumeration@@@@@@QAEAAU?$MBApair@$$CBVMBA_string@@QAVdbg_L2rEnumeration@@@@XZ 00416920 f i readersd:from_xmpl.obj
 0001:00015970       ?erase@?$Slist@VMBA_string@@@@QAEXXZ 00416970 f i readersd:from_xmpl.obj
 0001:000159d0       ??0?$Slist_iterator@VMBA_string@@@@QAE@PAV?$Slist_item@VMBA_string@@@@@Z 004169d0 f i readersd:from_xmpl.obj
 0001:00015a10       ??D?$Slist_iterator@U?$MBApair@$$CBVMBA_string@@QAVdbg_L2rVariable@@@@@@QAEAAU?$MBApair@$$CBVMBA_string@@QAVdbg_L2rVariable@@@@XZ 00416a10 f i readersd:from_xmpl.obj
 0001:00015a60       ??8?$Slist_iterator@U?$MBApair@$$CBVMBA_string@@QAVdbg_L2rVariable@@@@@@QBE_NABV0@@Z 00416a60 f i readersd:from_xmpl.obj
 0001:00015aa0       ??0?$Slist_iterator@PAVL2rProposition@@@@QAE@PAV?$Slist_item@PAVL2rProposition@@@@@Z 00416aa0 f i readersd:from_xmpl.obj
 0001:00015ae0       ??0?$Slist_iterator@PAVL2rClause@@@@QAE@PAV?$Slist_item@PAVL2rClause@@@@@Z 00416ae0 f i readersd:from_xmpl.obj
 0001:00015b20       ??0?$basic_filebuf@DU?$char_traits@D@std@@@std@@QAE@PAU_iobuf@@@Z 00416b20 f i readersd:from_xmpl.obj
 0001:00015bb0       ??0locale@std@@QAE@XZ      00416bb0 f i readersd:from_xmpl.obj
 0001:00015c10       ?open@?$basic_filebuf@DU?$char_traits@D@std@@@std@@QAEPAV12@PBDH@Z 00416c10 f i readersd:from_xmpl.obj
 0001:00015c80       ?close@?$basic_filebuf@DU?$char_traits@D@std@@@std@@QAEPAV12@XZ 00416c80 f i readersd:from_xmpl.obj
 0001:00015ce0       ??0?$Slist_iterator@PAVL2rTransition@@@@QAE@PAV?$Slist_item@PAVL2rTransition@@@@@Z 00416ce0 f i readersd:from_xmpl.obj
 0001:00015d20       ?put@?$num_put@DV?$ostreambuf_iterator@DU?$char_traits@D@std@@@std@@@std@@QBE?AV?$ostreambuf_iterator@DU?$char_traits@D@std@@@2@V32@AAVios_base@2@DK@Z 00416d20 f i readersd:from_xmpl.obj
 0001:00015d90       ??0?$ostreambuf_iterator@DU?$char_traits@D@std@@@std@@QAE@PAV?$basic_streambuf@DU?$char_traits@D@std@@@1@@Z 00416d90 f i readersd:from_xmpl.obj
 0001:00015dd0       ?failed@?$ostreambuf_iterator@DU?$char_traits@D@std@@@std@@QBE_NXZ 00416dd0 f i readersd:from_xmpl.obj
 0001:00015e00       ??0?$Slist_item@PAVL2rClause@@@@QAE@ABQAVL2rClause@@PAV0@@Z 00416e00 f i readersd:from_xmpl.obj
 0001:00015e50       ??0?$Slist_item@PAVL2rProposition@@@@QAE@ABQAVL2rProposition@@PAV0@@Z 00416e50 f i readersd:from_xmpl.obj
 0001:00015ea0       ??0?$Slist_item@VMBA_string@@@@QAE@ABVMBA_string@@PAV0@@Z 00416ea0 f i readersd:from_xmpl.obj
 0001:00015f20       ?in@?$codecvt@DDH@std@@QBEHAAHPBD1AAPBDPAD3AAPAD@Z 00416f20 f i readersd:from_xmpl.obj
 0001:00015f80       ?out@?$codecvt@DDH@std@@QBEHAAHPBD1AAPBDPAD3AAPAD@Z 00416f80 f i readersd:from_xmpl.obj
 0001:00015fe0       ?_Eos@?$basic_string@DU?$char_traits@D@std@@V?$allocator@D@2@@std@@AAEXI@Z 00416fe0 f i readersd:from_xmpl.obj
 0001:00016040       ?assign@?$char_traits@D@std@@SAXAADABD@Z 00417040 f i readersd:from_xmpl.obj
 0001:00016070       ?_Freeze@?$basic_string@DU?$char_traits@D@std@@V?$allocator@D@2@@std@@AAEXXZ 00417070 f i readersd:from_xmpl.obj
 0001:00016110       ?_Grow@?$basic_string@DU?$char_traits@D@std@@V?$allocator@D@2@@std@@AAE_NI_N@Z 00417110 f i readersd:from_xmpl.obj
 0001:00016270       ?_Psum@?$basic_string@DU?$char_traits@D@std@@V?$allocator@D@2@@std@@CAPADPADI@Z 00417270 f i readersd:from_xmpl.obj
 0001:000162b0       ?_Refcnt@?$basic_string@DU?$char_traits@D@std@@V?$allocator@D@2@@std@@AAEAAEPBD@Z 004172b0 f i readersd:from_xmpl.obj
 0001:000162e0       ?_Split@?$basic_string@DU?$char_traits@D@std@@V?$allocator@D@2@@std@@AAEXXZ 004172e0 f i readersd:from_xmpl.obj
 0001:00016370       ?assign@?$basic_string@DU?$char_traits@D@std@@V?$allocator@D@2@@std@@QAEAAV12@PBD@Z 00417370 f i readersd:from_xmpl.obj
 0001:000163c0       ?assign@?$basic_string@DU?$char_traits@D@std@@V?$allocator@D@2@@std@@QAEAAV12@PBDI@Z 004173c0 f i readersd:from_xmpl.obj
 0001:00016430       ?deallocate@?$allocator@D@std@@QAEXPAXI@Z 00417430 f i readersd:from_xmpl.obj
 0001:00016470       ?init@?$basic_ios@DU?$char_traits@D@std@@@std@@IAEXPAV?$basic_streambuf@DU?$char_traits@D@std@@@2@_N@Z 00417470 f i readersd:from_xmpl.obj
 0001:00016500       ??0?$basic_streambuf@DU?$char_traits@D@std@@@std@@IAE@XZ 00417500 f i readersd:from_xmpl.obj
 0001:00016580       ??8?$Slist_iterator@U?$MBApair@$$CBVMBA_string@@QAVdbg_L2rEnumeration@@@@@@QBE_NABV0@@Z 00417580 f i readersd:from_xmpl.obj
 0001:000165c0       ?_Init@?$basic_filebuf@DU?$char_traits@D@std@@@std@@IAEXPAU_iobuf@@W4_Initfl@12@@Z 004175c0 f i readersd:from_xmpl.obj
 0001:000166d0       ?_Initcvt@?$basic_filebuf@DU?$char_traits@D@std@@@std@@IAEXXZ 004176d0 f i readersd:from_xmpl.obj
 0001:00016820       ??4locale@std@@QAEAAV01@ABV01@@Z 00417820 f i readersd:from_xmpl.obj
 0001:000168b0       ?always_noconv@codecvt_base@std@@QBE_NXZ 004178b0 f i readersd:from_xmpl.obj
 0001:00016900       ??0?$basic_string@DU?$char_traits@D@std@@V?$allocator@D@2@@std@@QAE@ABV?$allocator@D@1@@Z 00417900 f i readersd:from_xmpl.obj
 0001:00016950       ?delete_list@?$Slist_item@VMBA_string@@@@QAEXXZ 00417950 f i readersd:from_xmpl.obj
 0001:000169d0       ??_G?$Slist_item@VMBA_string@@@@QAEPAXI@Z 004179d0 f i readersd:from_xmpl.obj
 0001:00016a30       ??1?$Slist_item@VMBA_string@@@@QAE@XZ 00417a30 f i readersd:from_xmpl.obj
 0001:00016aa0       ?max_size@?$basic_string@DU?$char_traits@D@std@@V?$allocator@D@2@@std@@QBEIXZ 00417aa0 f i readersd:from_xmpl.obj
 0001:00016b00       ?_Copy@?$basic_string@DU?$char_traits@D@std@@V?$allocator@D@2@@std@@AAEXI@Z 00417b00 f i readersd:from_xmpl.obj
 0001:00016c60       ?getloc@?$basic_streambuf@DU?$char_traits@D@std@@@std@@QAE?AVlocale@2@XZ 00417c60 f i readersd:from_xmpl.obj
 0001:00016cc0       ?_Init@?$basic_streambuf@DU?$char_traits@D@std@@@std@@IAEXXZ 00417cc0 f i readersd:from_xmpl.obj
 0001:00016d50       ?_Init@?$basic_streambuf@DU?$char_traits@D@std@@@std@@IAEXPAPAD0PAH001@Z 00417d50 f i readersd:from_xmpl.obj
 0001:00016db0       ?allocate@?$allocator@D@std@@QAEPADIPBX@Z 00417db0 f i readersd:from_xmpl.obj
 0001:00016df0       ?max_size@?$allocator@D@std@@QBEIXZ 00417df0 f i readersd:from_xmpl.obj
 0001:00016e40       ?setg@?$basic_streambuf@DU?$char_traits@D@std@@@std@@IAEXPAD00@Z 00417e40 f i readersd:from_xmpl.obj
 0001:00016e90       ?setp@?$basic_streambuf@DU?$char_traits@D@std@@@std@@IAEXPAD0@Z 00417e90 f i readersd:from_xmpl.obj
 0001:00016ee0       ?bounds_check_access@@YAPBVL2rEnumeration@@IIPBQAV1@PBD@Z 00417ee0 f i readersd:from_xmpl.obj
 0001:00016fb0       ??0L2_bounds_error@@QAE@VMBA_string@@HH@Z 00417fb0 f i readersd:from_xmpl.obj
 0001:00017140       ?bounds_check_access@@YAPBVL2rVariable@@IIPBQAV1@PBD@Z 00418140 f i readersd:from_xmpl.obj
 0001:00017210       ?bounds_check_access@@YAPBVL2rClause@@IIPBQAV1@PBD@Z 00418210 f i readersd:from_xmpl.obj
 0001:000172e0       ?size@?$Slist@PAVL2rClause@@@@QBEIXZ 004182e0 f i readersd:from_xmpl.obj
 0001:00017310       ?push_back@?$Slist@PAVL2rClause@@@@QAEXABQAVL2rClause@@@Z 00418310 f i readersd:from_xmpl.obj
 0001:000173d0       ?insert@?$Slist@PAVL2rProposition@@@@QAEXAAV?$Slist_iterator@PAVL2rProposition@@@@ABQAVL2rProposition@@@Z 004183d0 f i readersd:from_xmpl.obj
 0001:00017500       ?find@?$Hash_table@VMBA_string@@PAVdbg_L2rEnumeration@@@@QAE?AV?$Hash_table_iterator@VMBA_string@@PAVdbg_L2rEnumeration@@@@ABVMBA_string@@@Z 00418500 f i readersd:from_xmpl.obj
 0001:00017660       ?insert@?$Hash_table@VMBA_string@@PAVdbg_L2rEnumeration@@@@QAE?AU?$MBApair@V?$Hash_table_iterator@VMBA_string@@PAVdbg_L2rEnumeration@@@@_N@@ABVMBA_string@@ABQAVdbg_L2rEnumeration@@@Z 00418660 f i readersd:from_xmpl.obj
 0001:00017830       ?begin@?$Hash_table@VMBA_string@@PAVdbg_L2rEnumeration@@@@QAE?AV?$Hash_table_iterator@VMBA_string@@PAVdbg_L2rEnumeration@@@@XZ 00418830 f i readersd:from_xmpl.obj
 0001:00017940       ?end@?$Hash_table@VMBA_string@@PAVdbg_L2rEnumeration@@@@QAE?AV?$Hash_table_iterator@VMBA_string@@PAVdbg_L2rEnumeration@@@@XZ 00418940 f i readersd:from_xmpl.obj
 0001:000179d0       ?find@?$Hash_table@VMBA_string@@PAVdbg_L2rVariable@@@@QAE?AV?$Hash_table_iterator@VMBA_string@@PAVdbg_L2rVariable@@@@ABVMBA_string@@@Z 004189d0 f i readersd:from_xmpl.obj
 0001:00017b30       ?insert@?$Hash_table@VMBA_string@@PAVdbg_L2rVariable@@@@QAE?AU?$MBApair@V?$Hash_table_iterator@VMBA_string@@PAVdbg_L2rVariable@@@@_N@@ABVMBA_string@@ABQAVdbg_L2rVariable@@@Z 00418b30 f i readersd:from_xmpl.obj
 0001:00017d00       ?begin@?$Hash_table@VMBA_string@@PAVdbg_L2rVariable@@@@QAE?AV?$Hash_table_iterator@VMBA_string@@PAVdbg_L2rVariable@@@@XZ 00418d00 f i readersd:from_xmpl.obj
 0001:00017e10       ?end@?$Hash_table@VMBA_string@@PAVdbg_L2rVariable@@@@QAE?AV?$Hash_table_iterator@VMBA_string@@PAVdbg_L2rVariable@@@@XZ 00418e10 f i readersd:from_xmpl.obj
 0001:00017ea0       ?push_back@?$Slist@PAVL2rTransition@@@@QAEXABQAVL2rTransition@@@Z 00418ea0 f i readersd:from_xmpl.obj
 0001:00017f60       ??E?$Hash_table_iterator@VMBA_string@@PAVdbg_L2rEnumeration@@@@QAEAAV0@XZ 00418f60 f i readersd:from_xmpl.obj
 0001:00018080       ?size@?$Slist@VMBA_string@@@@QBEIXZ 00419080 f i readersd:from_xmpl.obj
 0001:000180b0       ?push_back@?$Slist@VMBA_string@@@@QAEXABVMBA_string@@@Z 004190b0 f i readersd:from_xmpl.obj
 0001:00018170       ?erase@?$Slist@VMBA_string@@@@QAEXAAV?$Slist_iterator@VMBA_string@@@@@Z 00419170 f i readersd:from_xmpl.obj
 0001:00018220       ?list_to_array@@YAPAVMBA_string@@AAV?$Slist@VMBA_string@@@@@Z 00419220 f i readersd:from_xmpl.obj
 0001:000182f0       ?L2_free_array@@YAXPAVMBA_string@@I@Z 004192f0 f i readersd:from_xmpl.obj
 0001:000183a0       ??E?$Hash_table_iterator@VMBA_string@@PAVdbg_L2rVariable@@@@QAEAAV0@XZ 004193a0 f i readersd:from_xmpl.obj
 0001:000184c0       ?list_to_array@@YAPAPAVL2rProposition@@AAV?$Slist@PAVL2rProposition@@@@@Z 004194c0 f i readersd:from_xmpl.obj
 0001:00018590       ?list_to_array@@YAPAPAVL2rClause@@AAV?$Slist@PAVL2rClause@@@@@Z 00419590 f i readersd:from_xmpl.obj
 0001:00018660       ?use_facet@std@@YAABV?$num_put@DV?$ostreambuf_iterator@DU?$char_traits@D@std@@@std@@@1@ABVlocale@1@PBV21@_N@Z 00419660 f i readersd:from_xmpl.obj
 0001:000187a0       ??0bad_cast@std@@QAE@PBD@Z 004197a0 f i readersd:from_xmpl.obj
 0001:000187f0       ??1bad_cast@std@@UAE@XZ    004197f0 f i readersd:from_xmpl.obj
 0001:00018830       ?_Doraise@bad_cast@std@@MBEXXZ 00419830 f i readersd:from_xmpl.obj
 0001:00018880       ??_Gbad_cast@std@@UAEPAXI@Z 00419880 f i readersd:from_xmpl.obj
 0001:00018880       ??_Ebad_cast@std@@UAEPAXI@Z 00419880 f i readersd:from_xmpl.obj
 0001:000188e0       ??0bad_cast@std@@QAE@ABV01@@Z 004198e0 f i readersd:from_xmpl.obj
 0001:00018930       ??Bid@locale@std@@QAEIXZ   00419930 f i readersd:from_xmpl.obj
 0001:000189a0       ?size@?$Slist@U?$MBApair@$$CBVMBA_string@@QAVdbg_L2rVariable@@@@@@QBEIXZ 004199a0 f i readersd:from_xmpl.obj
 0001:000189d0       ?_Ungetc@std@@YA_NABDPAU_iobuf@@I@Z 004199d0 f i readersd:from_xmpl.obj
 0001:00018a70       ?_Widen@std@@YADDPAD@Z     00419a70 f i readersd:from_xmpl.obj
 0001:00018aa0       ?use_facet@std@@YAABV?$codecvt@DDH@1@ABVlocale@1@PBV21@_N@Z 00419aa0 f i readersd:from_xmpl.obj
 0001:00018be0       ?_Addfac@std@@YA?AVlocale@1@V21@PAV?$codecvt@DDH@1@@Z 00419be0 f i readersd:from_xmpl.obj
 0001:00018c90       ?_Allocate@std@@YAPADHPAD@Z 00419c90 f i readersd:from_xmpl.obj
 0001:00018ce0       ??1L2_bounds_error@@QAE@XZ 00419ce0 f i readersd:from_xmpl.obj
 0001:00018d20       ??0L2_bounds_error@@QAE@ABV0@@Z 00419d20 f i readersd:from_xmpl.obj
 0001:00018d60       ??_GMBA_string@@QAEPAXI@Z  00419d60 f i readersd:from_xmpl.obj
 0001:00018dc0       ??0?$Hash_table_iterator@VMBA_string@@PAVdbg_L2rEnumeration@@@@AAE@AAV?$Hash_table@VMBA_string@@PAVdbg_L2rEnumeration@@@@IV?$Slist_iterator@U?$MBApair@$$CBVMBA_string@@QAVdbg_L2rEnumeration@@@@@@@Z 00419dc0 f i readersd:from_xmpl.obj
 0001:00018e10       ??E?$Slist_iterator@U?$MBApair@$$CBVMBA_string@@QAVdbg_L2rEnumeration@@@@@@QAEAAV0@XZ 00419e10 f i readersd:from_xmpl.obj
 0001:00018e60       ??9?$Slist_iterator@U?$MBApair@$$CBVMBA_string@@QAVdbg_L2rEnumeration@@@@@@QBE_NABV0@@Z 00419e60 f i readersd:from_xmpl.obj
 0001:00018ea0       ??4?$Slist_iterator@U?$MBApair@$$CBVMBA_string@@QAVdbg_L2rEnumeration@@@@@@QAEAAV0@ABV0@@Z 00419ea0 f i readersd:from_xmpl.obj
 0001:00018ee0       ??4?$Slist_iterator@VMBA_string@@@@QAEAAV0@ABV0@@Z 00419ee0 f i readersd:from_xmpl.obj
 0001:00018f20       ??0?$MBApair@V?$Hash_table_iterator@VMBA_string@@PAVdbg_L2rEnumeration@@@@_N@@QAE@ABV?$Hash_table_iterator@VMBA_string@@PAVdbg_L2rEnumeration@@@@AB_N@Z 00419f20 f i readersd:from_xmpl.obj
 0001:00018f70       ??0?$Hash_table_iterator@VMBA_string@@PAVdbg_L2rVariable@@@@AAE@AAV?$Hash_table@VMBA_string@@PAVdbg_L2rVariable@@@@IV?$Slist_iterator@U?$MBApair@$$CBVMBA_string@@QAVdbg_L2rVariable@@@@@@@Z 00419f70 f i readersd:from_xmpl.obj
 0001:00018fc0       ??E?$Slist_iterator@U?$MBApair@$$CBVMBA_string@@QAVdbg_L2rVariable@@@@@@QAEAAV0@XZ 00419fc0 f i readersd:from_xmpl.obj
 0001:00019010       ??9?$Slist_iterator@U?$MBApair@$$CBVMBA_string@@QAVdbg_L2rVariable@@@@@@QBE_NABV0@@Z 0041a010 f i readersd:from_xmpl.obj
 0001:00019050       ??4?$Slist_iterator@U?$MBApair@$$CBVMBA_string@@QAVdbg_L2rVariable@@@@@@QAEAAV0@ABV0@@Z 0041a050 f i readersd:from_xmpl.obj
 0001:00019090       ??0?$MBApair@V?$Hash_table_iterator@VMBA_string@@PAVdbg_L2rVariable@@@@_N@@QAE@ABV?$Hash_table_iterator@VMBA_string@@PAVdbg_L2rVariable@@@@AB_N@Z 0041a090 f i readersd:from_xmpl.obj
 0001:000190e0       ??8?$Slist_iterator@PAVL2rProposition@@@@QBE_NABV0@@Z 0041a0e0 f i readersd:from_xmpl.obj
 0001:00019120       ??4?$Slist_iterator@PAVL2rClause@@@@QAEAAV0@ABV0@@Z 0041a120 f i readersd:from_xmpl.obj
 0001:00019160       ??0?$num_put@DV?$ostreambuf_iterator@DU?$char_traits@D@std@@@std@@@std@@QAE@I@Z 0041a160 f i readersd:from_xmpl.obj
 0001:00019210       ??1facet@locale@std@@UAE@XZ 0041a210 f i readersd:from_xmpl.obj
 0001:00019240       ??0facet@locale@std@@IAE@I@Z 0041a240 f i readersd:from_xmpl.obj
 0001:00019280       ??_Gfacet@locale@std@@UAEPAXI@Z 0041a280 f i readersd:from_xmpl.obj
 0001:00019280       ??_Efacet@locale@std@@UAEPAXI@Z 0041a280 f i readersd:from_xmpl.obj
 0001:000192e0       ?do_put@?$num_put@DV?$ostreambuf_iterator@DU?$char_traits@D@std@@@std@@@std@@MBE?AV?$ostreambuf_iterator@DU?$char_traits@D@std@@@2@V32@AAVios_base@2@D_N@Z 0041a2e0 f i readersd:from_xmpl.obj
 0001:00019550       ?c_str@?$basic_string@DU?$char_traits@D@std@@V?$allocator@D@2@@std@@QBEPBDXZ 0041a550 f i readersd:from_xmpl.obj
 0001:000195a0       ?_Nullstr@?$basic_string@DU?$char_traits@D@std@@V?$allocator@D@2@@std@@CAPBDXZ 0041a5a0 f i readersd:from_xmpl.obj
 0001:000195d0       ?do_put@?$num_put@DV?$ostreambuf_iterator@DU?$char_traits@D@std@@@std@@@std@@MBE?AV?$ostreambuf_iterator@DU?$char_traits@D@std@@@2@V32@AAVios_base@2@DJ@Z 0041a5d0 f i readersd:from_xmpl.obj
 0001:00019670       ?do_put@?$num_put@DV?$ostreambuf_iterator@DU?$char_traits@D@std@@@std@@@std@@MBE?AV?$ostreambuf_iterator@DU?$char_traits@D@std@@@2@V32@AAVios_base@2@DK@Z 0041a670 f i readersd:from_xmpl.obj
 0001:00019710       ?do_put@?$num_put@DV?$ostreambuf_iterator@DU?$char_traits@D@std@@@std@@@std@@MBE?AV?$ostreambuf_iterator@DU?$char_traits@D@std@@@2@V32@AAVios_base@2@DN@Z 0041a710 f i readersd:from_xmpl.obj
 0001:00019810       ?precision@ios_base@std@@QBEHXZ 0041a810 f i readersd:from_xmpl.obj
 0001:00019840       ?do_put@?$num_put@DV?$ostreambuf_iterator@DU?$char_traits@D@std@@@std@@@std@@MBE?AV?$ostreambuf_iterator@DU?$char_traits@D@std@@@2@V32@AAVios_base@2@DO@Z 0041a840 f i readersd:from_xmpl.obj
 0001:00019940       ?do_put@?$num_put@DV?$ostreambuf_iterator@DU?$char_traits@D@std@@@std@@@std@@MBE?AV?$ostreambuf_iterator@DU?$char_traits@D@std@@@2@V32@AAVios_base@2@DPBX@Z 0041a940 f i readersd:from_xmpl.obj
 0001:00019a70       ??_E?$num_put@DV?$ostreambuf_iterator@DU?$char_traits@D@std@@@std@@@std@@UAEPAXI@Z 0041aa70 f i readersd:from_xmpl.obj
 0001:00019a70       ??_G?$num_put@DV?$ostreambuf_iterator@DU?$char_traits@D@std@@@std@@@std@@UAEPAXI@Z 0041aa70 f i readersd:from_xmpl.obj
 0001:00019ad0       ??1?$num_put@DV?$ostreambuf_iterator@DU?$char_traits@D@std@@@std@@@std@@UAE@XZ 0041aad0 f i readersd:from_xmpl.obj
 0001:00019b10       ??4?$basic_string@DU?$char_traits@D@std@@V?$allocator@D@2@@std@@QAEAAV01@ABV01@@Z 0041ab10 f i readersd:from_xmpl.obj
 0001:00019b50       ?_Ffmt@?$num_put@DV?$ostreambuf_iterator@DU?$char_traits@D@std@@@std@@@std@@KAPADPADDH@Z 0041ab50 f i readersd:from_xmpl.obj
 0001:00019c40       ?_Fput@?$num_put@DV?$ostreambuf_iterator@DU?$char_traits@D@std@@@std@@@std@@KA?AV?$ostreambuf_iterator@DU?$char_traits@D@std@@@2@V32@AAVios_base@2@DPBDII@Z 0041ac40 f i readersd:from_xmpl.obj
 0001:0001a020       ?_Ifmt@?$num_put@DV?$ostreambuf_iterator@DU?$char_traits@D@std@@@std@@@std@@KAPADPADDH@Z 0041b020 f i readersd:from_xmpl.obj
 0001:0001a100       ?_Iput@?$num_put@DV?$ostreambuf_iterator@DU?$char_traits@D@std@@@std@@@std@@KA?AV?$ostreambuf_iterator@DU?$char_traits@D@std@@@2@V32@AAVios_base@2@DPADI@Z 0041b100 f i readersd:from_xmpl.obj
 0001:0001a500       ?_Put@?$num_put@DV?$ostreambuf_iterator@DU?$char_traits@D@std@@@std@@@std@@KA?AV?$ostreambuf_iterator@DU?$char_traits@D@std@@@2@V32@PBDI@Z 0041b500 f i readersd:from_xmpl.obj
 0001:0001a580       ?_Putc@?$num_put@DV?$ostreambuf_iterator@DU?$char_traits@D@std@@@std@@@std@@KA?AV?$ostreambuf_iterator@DU?$char_traits@D@std@@@2@V32@PBDI@Z 0041b580 f i readersd:from_xmpl.obj
 0001:0001a600       ?_Rep@?$num_put@DV?$ostreambuf_iterator@DU?$char_traits@D@std@@@std@@@std@@KA?AV?$ostreambuf_iterator@DU?$char_traits@D@std@@@2@V32@DI@Z 0041b600 f i readersd:from_xmpl.obj
 0001:0001a670       ?falsename@?$numpunct@D@std@@QBE?AV?$basic_string@DU?$char_traits@D@std@@V?$allocator@D@2@@2@XZ 0041b670 f i readersd:from_xmpl.obj
 0001:0001a6d0       ?truename@?$numpunct@D@std@@QBE?AV?$basic_string@DU?$char_traits@D@std@@V?$allocator@D@2@@2@XZ 0041b6d0 f i readersd:from_xmpl.obj
 0001:0001a730       ?assign@?$basic_string@DU?$char_traits@D@std@@V?$allocator@D@2@@std@@QAEAAV12@ABV12@@Z 0041b730 f i readersd:from_xmpl.obj
 0001:0001a780       ?assign@?$basic_string@DU?$char_traits@D@std@@V?$allocator@D@2@@std@@QAEAAV12@ABV12@II@Z 0041b780 f i readersd:from_xmpl.obj
 0001:0001a900       ?capacity@?$basic_string@DU?$char_traits@D@std@@V?$allocator@D@2@@std@@QBEIXZ 0041b900 f i readersd:from_xmpl.obj
 0001:0001a930       ??4?$ostreambuf_iterator@DU?$char_traits@D@std@@@std@@QAEAAV01@D@Z 0041b930 f i readersd:from_xmpl.obj
 0001:0001a9b0       ??D?$ostreambuf_iterator@DU?$char_traits@D@std@@@std@@QAEAAV01@XZ 0041b9b0 f i readersd:from_xmpl.obj
 0001:0001a9e0       ??E?$ostreambuf_iterator@DU?$char_traits@D@std@@@std@@QAEAAV01@XZ 0041b9e0 f i readersd:from_xmpl.obj
 0001:0001aa10       ?decimal_point@?$numpunct@D@std@@QBEDXZ 0041ba10 f i readersd:from_xmpl.obj
 0001:0001aa60       ?thousands_sep@?$numpunct@D@std@@QBEDXZ 0041ba60 f i readersd:from_xmpl.obj
 0001:0001aab0       ?grouping@?$numpunct@D@std@@QBE?AV?$basic_string@DU?$char_traits@D@std@@V?$allocator@D@2@@2@XZ 0041bab0 f i readersd:from_xmpl.obj
 0001:0001ab10       ??8std@@YA_NABV?$allocator@D@0@0@Z 0041bb10 f i readersd:from_xmpl.obj
 0001:0001ab40       ?use_facet@std@@YAABV?$numpunct@D@1@ABVlocale@1@PBV21@_N@Z 0041bb40 f i readersd:from_xmpl.obj
 0001:0001ac80       ??0?$Slist_item@PAVL2rClause@@@@QAE@ABQAVL2rClause@@@Z 0041bc80 f i readersd:from_xmpl.obj
 0001:0001acd0       ?empty@?$Slist@U?$MBApair@$$CBVMBA_string@@QAVdbg_L2rEnumeration@@@@@@QBE_NXZ 0041bcd0 f i readersd:from_xmpl.obj
 0001:0001ad10       ?push_front@?$Slist@U?$MBApair@$$CBVMBA_string@@QAVdbg_L2rEnumeration@@@@@@QAEXABU?$MBApair@$$CBVMBA_string@@QAVdbg_L2rEnumeration@@@@@Z 0041bd10 f i readersd:from_xmpl.obj
 0001:0001ad90       ?begin@?$Slist@U?$MBApair@$$CBVMBA_string@@QAVdbg_L2rEnumeration@@@@@@QAE?AV?$Slist_iterator@U?$MBApair@$$CBVMBA_string@@QAVdbg_L2rEnumeration@@@@@@XZ 0041bd90 f i readersd:from_xmpl.obj
 0001:0001ade0       ?end@?$Slist@U?$MBApair@$$CBVMBA_string@@QAVdbg_L2rEnumeration@@@@@@QAE?AV?$Slist_iterator@U?$MBApair@$$CBVMBA_string@@QAVdbg_L2rEnumeration@@@@@@XZ 0041bde0 f i readersd:from_xmpl.obj
 0001:0001ae30       ?empty@?$Slist@U?$MBApair@$$CBVMBA_string@@QAVdbg_L2rVariable@@@@@@QBE_NXZ 0041be30 f i readersd:from_xmpl.obj
 0001:0001ae70       ?push_front@?$Slist@U?$MBApair@$$CBVMBA_string@@QAVdbg_L2rVariable@@@@@@QAEXABU?$MBApair@$$CBVMBA_string@@QAVdbg_L2rVariable@@@@@Z 0041be70 f i readersd:from_xmpl.obj
 0001:0001aef0       ?begin@?$Slist@U?$MBApair@$$CBVMBA_string@@QAVdbg_L2rVariable@@@@@@QAE?AV?$Slist_iterator@U?$MBApair@$$CBVMBA_string@@QAVdbg_L2rVariable@@@@@@XZ 0041bef0 f i readersd:from_xmpl.obj
 0001:0001af40       ?end@?$Slist@U?$MBApair@$$CBVMBA_string@@QAVdbg_L2rVariable@@@@@@QAE?AV?$Slist_iterator@U?$MBApair@$$CBVMBA_string@@QAVdbg_L2rVariable@@@@@@XZ 0041bf40 f i readersd:from_xmpl.obj
 0001:0001af90       ??0?$MBApair@$$CBVMBA_string@@QAVdbg_L2rEnumeration@@@@QAE@ABVMBA_string@@ABQAVdbg_L2rEnumeration@@@Z 0041bf90 f i readersd:from_xmpl.obj
 0001:0001afe0       ??0?$Slist_item@VMBA_string@@@@QAE@ABVMBA_string@@@Z 0041bfe0 f i readersd:from_xmpl.obj
 0001:0001b060       ??0?$MBApair@$$CBVMBA_string@@QAVdbg_L2rVariable@@@@QAE@ABVMBA_string@@ABQAVdbg_L2rVariable@@@Z 0041c060 f i readersd:from_xmpl.obj
 0001:0001b0b0       ??0?$codecvt@DDH@std@@QAE@I@Z 0041c0b0 f i readersd:from_xmpl.obj
 0001:0001b160       ??0codecvt_base@std@@QAE@I@Z 0041c160 f i readersd:from_xmpl.obj
 0001:0001b1b0       ?do_always_noconv@codecvt_base@std@@MBE_NXZ 0041c1b0 f i readersd:from_xmpl.obj
 0001:0001b1e0       ?do_max_length@codecvt_base@std@@MBEHXZ 0041c1e0 f i readersd:from_xmpl.obj
 0001:0001b210       ?do_encoding@codecvt_base@std@@MBEHXZ 0041c210 f i readersd:from_xmpl.obj
 0001:0001b240       ??_Ecodecvt_base@std@@UAEPAXI@Z 0041c240 f i readersd:from_xmpl.obj
 0001:0001b240       ??_Gcodecvt_base@std@@UAEPAXI@Z 0041c240 f i readersd:from_xmpl.obj
 0001:0001b2a0       ??1codecvt_base@std@@UAE@XZ 0041c2a0 f i readersd:from_xmpl.obj
 0001:0001b2e0       ?do_in@?$codecvt@DDH@std@@MBEHAAHPBD1AAPBDPAD3AAPAD@Z 0041c2e0 f i readersd:from_xmpl.obj
 0001:0001b320       ?do_out@?$codecvt@DDH@std@@MBEHAAHPBD1AAPBDPAD3AAPAD@Z 0041c320 f i readersd:from_xmpl.obj
 0001:0001b360       ?do_length@?$codecvt@DDH@std@@MBEHAAHPBD1I@Z 0041c360 f i readersd:from_xmpl.obj
 0001:0001b3b0       ??_G?$codecvt@DDH@std@@UAEPAXI@Z 0041c3b0 f i readersd:from_xmpl.obj
 0001:0001b3b0       ??_E?$codecvt@DDH@std@@UAEPAXI@Z 0041c3b0 f i readersd:from_xmpl.obj
 0001:0001b410       ??1?$codecvt@DDH@std@@UAE@XZ 0041c410 f i readersd:from_xmpl.obj
 0001:0001b450       ?_Getcat@?$codecvt@DDH@std@@SAIXZ 0041c450 f i readersd:from_xmpl.obj
 0001:0001b480       ??0?$Slist_item@PAVL2rTransition@@@@QAE@ABQAVL2rTransition@@@Z 0041c480 f i readersd:from_xmpl.obj
 0001:0001b4d0       ??0?$numpunct@D@std@@QAE@I@Z 0041c4d0 f i readersd:from_xmpl.obj
 0001:0001b580       ?do_decimal_point@?$numpunct@D@std@@MBEDXZ 0041c580 f i readersd:from_xmpl.obj
 0001:0001b5b0       ?do_thousands_sep@?$numpunct@D@std@@MBEDXZ 0041c5b0 f i readersd:from_xmpl.obj
 0001:0001b5e0       ?do_grouping@?$numpunct@D@std@@MBE?AV?$basic_string@DU?$char_traits@D@std@@V?$allocator@D@2@@2@XZ 0041c5e0 f i readersd:from_xmpl.obj
 0001:0001b640       ?do_falsename@?$numpunct@D@std@@MBE?AV?$basic_string@DU?$char_traits@D@std@@V?$allocator@D@2@@2@XZ 0041c640 f i readersd:from_xmpl.obj
 0001:0001b6a0       ?do_truename@?$numpunct@D@std@@MBE?AV?$basic_string@DU?$char_traits@D@std@@V?$allocator@D@2@@2@XZ 0041c6a0 f i readersd:from_xmpl.obj
 0001:0001b700       ??_G?$numpunct@D@std@@UAEPAXI@Z 0041c700 f i readersd:from_xmpl.obj
 0001:0001b700       ??_E?$numpunct@D@std@@UAEPAXI@Z 0041c700 f i readersd:from_xmpl.obj
 0001:0001b760       ??1?$numpunct@D@std@@UAE@XZ 0041c760 f i readersd:from_xmpl.obj
 0001:0001b7e0       ??0?$basic_string@DU?$char_traits@D@std@@V?$allocator@D@2@@std@@QAE@PBDABV?$allocator@D@1@@Z 0041c7e0 f i readersd:from_xmpl.obj
 0001:0001b840       ?_Save@?$_Tidyfac@V?$num_put@DV?$ostreambuf_iterator@DU?$char_traits@D@std@@@std@@@std@@@std@@SAPAV?$num_put@DV?$ostreambuf_iterator@DU?$char_traits@D@std@@@std@@@2@PAV32@@Z 0041c840 f i readersd:from_xmpl.obj
 0001:0001b8d0       ?_Save@?$_Tidyfac@V?$numpunct@D@std@@@std@@SAPAV?$numpunct@D@2@PAV32@@Z 0041c8d0 f i readersd:from_xmpl.obj
 0001:0001b960       ?_Save@?$_Tidyfac@V?$codecvt@DDH@std@@@std@@SAPAV?$codecvt@DDH@2@PAV32@@Z 0041c960 f i readersd:from_xmpl.obj
 0001:0001b9f0       ??0?$Slist_iterator@U?$MBApair@$$CBVMBA_string@@QAVdbg_L2rEnumeration@@@@@@QAE@PAV?$Slist_item@U?$MBApair@$$CBVMBA_string@@QAVdbg_L2rEnumeration@@@@@@@Z 0041c9f0 f i readersd:from_xmpl.obj
 0001:0001ba30       ??0?$Slist_iterator@U?$MBApair@$$CBVMBA_string@@QAVdbg_L2rVariable@@@@@@QAE@PAV?$Slist_item@U?$MBApair@$$CBVMBA_string@@QAVdbg_L2rVariable@@@@@@@Z 0041ca30 f i readersd:from_xmpl.obj
 0001:0001ba70       ?_Init@?$num_put@DV?$ostreambuf_iterator@DU?$char_traits@D@std@@@std@@@std@@IAEXABV_Locinfo@2@@Z 0041ca70 f i readersd:from_xmpl.obj
 0001:0001baa0       ?_Init@?$codecvt@DDH@std@@IAEXABV_Locinfo@2@@Z 0041caa0 f i readersd:from_xmpl.obj
 0001:0001baf0       ?_Getcvt@_Locinfo@std@@QBE?AU_Cvtvec@@XZ 0041caf0 f i readersd:from_xmpl.obj
 0001:0001bb40       ??0?$Slist_item@U?$MBApair@$$CBVMBA_string@@QAVdbg_L2rEnumeration@@@@@@QAE@ABU?$MBApair@$$CBVMBA_string@@QAVdbg_L2rEnumeration@@@@PAV0@@Z 0041cb40 f i readersd:from_xmpl.obj
 0001:0001bbc0       ??0?$Slist_item@U?$MBApair@$$CBVMBA_string@@QAVdbg_L2rVariable@@@@@@QAE@ABU?$MBApair@$$CBVMBA_string@@QAVdbg_L2rVariable@@@@PAV0@@Z 0041cbc0 f i readersd:from_xmpl.obj
 0001:0001bc40       ?_Init@?$numpunct@D@std@@IAEXABV_Locinfo@2@@Z 0041cc40 f i readersd:from_xmpl.obj
 0001:0001bd00       ?_Getlconv@_Locinfo@std@@QBEPBUlconv@@XZ 0041cd00 f i readersd:from_xmpl.obj
 0001:0001bd40       ?_Getfalse@_Locinfo@std@@QBEPBDXZ 0041cd40 f i readersd:from_xmpl.obj
 0001:0001bd70       ?_Gettrue@_Locinfo@std@@QBEPBDXZ 0041cd70 f i readersd:from_xmpl.obj
 0001:0001bda0       ?_Tidy@?$_Tidyfac@V?$num_put@DV?$ostreambuf_iterator@DU?$char_traits@D@std@@@std@@@std@@@std@@SAXXZ 0041cda0 f i readersd:from_xmpl.obj
 0001:0001be50       ?_Tidy@?$_Tidyfac@V?$numpunct@D@std@@@std@@SAXXZ 0041ce50 f i readersd:from_xmpl.obj
 0001:0001bf00       ?_Tidy@?$_Tidyfac@V?$codecvt@DDH@std@@@std@@SAXXZ 0041cf00 f i readersd:from_xmpl.obj
 0001:0001bfb0       ?last@?$Slist@PAVL2rClause@@@@ABEPAV?$Slist_item@PAVL2rClause@@@@XZ 0041cfb0 f i readersd:from_xmpl.obj
 0001:0001c000       ?size@?$Slist@PAVL2rProposition@@@@QBEIXZ 0041d000 f i readersd:from_xmpl.obj
 0001:0001c030       ?push_back@?$Slist@PAVL2rProposition@@@@QAEXABQAVL2rProposition@@@Z 0041d030 f i readersd:from_xmpl.obj
 0001:0001c0f0       ?last@?$Slist@PAVL2rTransition@@@@ABEPAV?$Slist_item@PAVL2rTransition@@@@XZ 0041d0f0 f i readersd:from_xmpl.obj
 0001:0001c140       ?last@?$Slist@VMBA_string@@@@ABEPAV?$Slist_item@VMBA_string@@@@XZ 0041d140 f i readersd:from_xmpl.obj
 0001:0001c190       ?L2_initialize_array@@YAPAVMBA_string@@PAV1@I@Z 0041d190 f i readersd:from_xmpl.obj
 0001:0001c250       ?L2_free_array_no_dtor@@YAXPAVMBA_string@@I@Z 0041d250 f i readersd:from_xmpl.obj
 0001:0001c290       ?L2_initialize_array@@YAPAPAVL2rProposition@@PAPAV1@I@Z 0041d290 f i readersd:from_xmpl.obj
 0001:0001c2f0       ?L2_initialize_array@@YAPAPAVL2rClause@@PAPAV1@I@Z 0041d2f0 f i readersd:from_xmpl.obj
 0001:0001c350       ?_Maklocstr@std@@YAPADPBDPAD@Z 0041d350 f i readersd:from_xmpl.obj
 0001:0001c490       ?id@?$num_put@DV?$ostreambuf_iterator@DU?$char_traits@D@std@@@$D 0041d490 f i readersd:from_xmpl.obj
 0001:0001c510       ?id@?$numpunct@D@std@@$D   0041d510 f i readersd:from_xmpl.obj
 0001:0001c590       ?id@?$codecvt@DDH@std@@$D  0041d590 f i readersd:from_xmpl.obj
 0001:0001c610       ?id@?$codecvt@DDH@std@@$E  0041d610 f i readersd:from_xmpl.obj
 0001:0001c630       ?id@?$numpunct@D@std@@$E   0041d630 f i readersd:from_xmpl.obj
 0001:0001c650       ?id@?$num_put@DV?$ostreambuf_iterator@DU?$char_traits@D@std@@@$E 0041d650 f i readersd:from_xmpl.obj
 0001:0001c670       ??0?$Slist_item@PAVL2rProposition@@@@QAE@ABQAVL2rProposition@@@Z 0041d670 f i readersd:from_xmpl.obj
 0001:0001c6c0       ?last@?$Slist@PAVL2rProposition@@@@ABEPAV?$Slist_item@PAVL2rProposition@@@@XZ 0041d6c0 f i readersd:from_xmpl.obj
 0001:0001c710       ??_EHandlerBase_subclass@from_xmpl@@W3AEPAXI@Z 0041d710 f i readersd:from_xmpl.obj
 0001:0001c720       ??_EHandlerBase_subclass@from_xmpl@@W7AEPAXI@Z 0041d720 f i readersd:from_xmpl.obj
 0001:0001c730       ??_EHandlerBase_subclass@from_xmpl@@WM@AEPAXI@Z 0041d730 f i readersd:from_xmpl.obj
 0001:0001c940       ?find_section@@YA?AW4Section@@PBD@Z 0041d940 f   readersd:from_l2.obj
 0001:0001c9b0       ??1from_l2@@UAE@XZ         0041d9b0 f   readersd:from_l2.obj
 0001:0001ca50       ?print_parse_error@from_l2@@AAEXXZ 0041da50 f   readersd:from_l2.obj
 0001:0001cb30       ?check_parsed@from_l2@@AAE_N_N0PBD@Z 0041db30 f   readersd:from_l2.obj
 0001:0001cbf0       ?readline@from_l2@@AAE_NXZ 0041dbf0 f   readersd:from_l2.obj
 0001:0001cd20       ?read_integer@from_l2@@AAEHPBD_N@Z 0041dd20 f   readersd:from_l2.obj
 0001:0001cf40       ?skip_word_boundary@from_l2@@AAE_N_N@Z 0041df40 f   readersd:from_l2.obj
 0001:0001cfe0       ?read@from_l2@@UAE_NXZ     0041dfe0 f   readersd:from_l2.obj
 0001:0001d390       ?parse_enums@from_l2@@AAE_N_N@Z 0041e390 f   readersd:from_l2.obj
 0001:0001d840       ?nenums@from_l2@@ABEIXZ    0041e840 f i readersd:from_l2.obj
 0001:0001d880       ?get_dest@L2_file_reader@@QBEPBVL2_file@@XZ 0041e880 f i readersd:from_l2.obj
 0001:0001d8b0       ?was_enums_parsed@from_l2@@AAE_NXZ 0041e8b0 f i readersd:from_l2.obj
 0001:0001d8f0       ??0L2rEnumeration@@QAE@II@Z 0041e8f0 f i readersd:from_l2.obj
 0001:0001d950       ?printMember@L2rEnumeration@@UBEXAAV?$basic_ostream@DU?$char_traits@D@std@@@std@@I@Z 0041e950 f i readersd:from_l2.obj
 0001:0001d9b0       ?isValidMember@L2rEnumeration@@QBE_NI@Z 0041e9b0 f i readersd:from_l2.obj
 0001:0001da40       ?toOStream_long@L2rEnumeration@@UBEXAAV?$basic_ostream@DU?$char_traits@D@std@@@std@@@Z 0041ea40 f i readersd:from_l2.obj
 0001:0001dac0       ?toOStream@L2rEnumeration@@UBEXAAV?$basic_ostream@DU?$char_traits@D@std@@@std@@@Z 0041eac0 f i readersd:from_l2.obj
 0001:0001db00       ?hasDebug@L2rEnumeration@@UBE_NXZ 0041eb00 f i readersd:from_l2.obj
 0001:0001db30       ??_EL2rEnumeration@@UAEPAXI@Z 0041eb30 f i readersd:from_l2.obj
 0001:0001db30       ??_GL2rEnumeration@@UAEPAXI@Z 0041eb30 f i readersd:from_l2.obj
 0001:0001db90       ??1L2rEnumeration@@UAE@XZ  0041eb90 f i readersd:from_l2.obj
 0001:0001dc80       ??_EMBA_string@@QAEPAXI@Z  0041ec80 f i readersd:from_l2.obj
 0001:0001dd20       ??_FMBA_string@@QAEXXZ     0041ed20 f i readersd:from_l2.obj
 0001:0001dd60       ?parse_variables@from_l2@@AAE_N_N@Z 0041ed60 f   readersd:from_l2.obj
 0001:0001e010       ?getEnum@from_l2@@ABEPBVL2rEnumeration@@I@Z 0041f010 f i readersd:from_l2.obj
 0001:0001e060       ?nvars@from_l2@@ABEIXZ     0041f060 f i readersd:from_l2.obj
 0001:0001e0a0       ?was_variables_parsed@from_l2@@AAE_NXZ 0041f0a0 f i readersd:from_l2.obj
 0001:0001e0d0       ?parse_one_prop@from_l2@@AAE_NI_N0@Z 0041f0d0 f   readersd:from_l2.obj
 0001:0001e390       ?getVar@from_l2@@ABEPBVL2rVariable@@I@Z 0041f390 f i readersd:from_l2.obj
 0001:0001e3e0       ?parse_propositions@from_l2@@AAE_N_N@Z 0041f3e0 f   readersd:from_l2.obj
 0001:0001e760       ?nprops@from_l2@@ABEIXZ    0041f760 f i readersd:from_l2.obj
 0001:0001e7a0       ?nprops@L2_file@@QBEIXZ    0041f7a0 f i readersd:from_l2.obj
 0001:0001e7d0       ?was_propositions_parsed@from_l2@@AAE_NXZ 0041f7d0 f i readersd:from_l2.obj
 0001:0001e810       ?parse_clauses@from_l2@@AAE_N_N@Z 0041f810 f   readersd:from_l2.obj
 0001:0001ec10       ?getProp@from_l2@@ABEPBVL2rProposition@@I@Z 0041fc10 f i readersd:from_l2.obj
 0001:0001ec60       ?getProp@L2_file@@QBEPBVL2rProposition@@I@Z 0041fc60 f i readersd:from_l2.obj
 0001:0001ecc0       ?nclauses@from_l2@@ABEIXZ  0041fcc0 f i readersd:from_l2.obj
 0001:0001ed00       ?was_clauses_parsed@from_l2@@AAE_NXZ 0041fd00 f i readersd:from_l2.obj
 0001:0001ed40       ?parse_one_transition@from_l2@@AAE_N_N0@Z 0041fd40 f   readersd:from_l2.obj
 0001:0001f2f0       ?getVar_friend@L2_file@@QAEPAVL2rVariable@@I@Z 004202f0 f i readersd:from_l2.obj
 0001:0001f350       ?getClause@from_l2@@ABEPBVL2rClause@@I@Z 00420350 f i readersd:from_l2.obj
 0001:0001f3a0       ?parse_transitions@from_l2@@AAE_N_N@Z 004203a0 f   readersd:from_l2.obj
 0001:0001f5c0       ?was_transitions_parsed@from_l2@@AAE_NXZ 004205c0 f i readersd:from_l2.obj
 0001:0001f600       ?parse_var_modifier@from_l2@@AAE_NW4VarKind@@@Z 00420600 f   readersd:from_l2.obj
 0001:0001f950       ?was_commands_parsed@from_l2@@AAE_NXZ 00420950 f i readersd:from_l2.obj
 0001:0001f990       ?was_modes_parsed@from_l2@@AAE_NXZ 00420990 f i readersd:from_l2.obj
 0001:0001f9d0       ?was_observed_parsed@from_l2@@AAE_NXZ 004209d0 f i readersd:from_l2.obj
 0001:0001fa10       ?parse_observed@from_l2@@AAE_N_N@Z 00420a10 f   readersd:from_l2.obj
 0001:0001fa50       ?parse_commands@from_l2@@AAE_N_N@Z 00420a50 f   readersd:from_l2.obj
 0001:0001fa90       ?parse_modes@from_l2@@AAE_N_N@Z 00420a90 f   readersd:from_l2.obj
 0001:0001fad0       ?parse_background@from_l2@@AAE_N_N@Z 00420ad0 f   readersd:from_l2.obj
 0001:0001fce0       ?was_background_parsed@from_l2@@AAE_NXZ 00420ce0 f i readersd:from_l2.obj
 0001:0001fd10       ?parse_initial@from_l2@@AAE_N_N@Z 00420d10 f   readersd:from_l2.obj
 0001:0001ff60       ?was_initial_parsed@from_l2@@AAE_NXZ 00420f60 f i readersd:from_l2.obj
 0001:0001ffa0       ??6?$basic_ostream@DU?$char_traits@D@std@@@std@@QAEAAV01@H@Z 00420fa0 f i readersd:from_l2.obj
 0001:00020190       ?put@?$num_put@DV?$ostreambuf_iterator@DU?$char_traits@D@std@@@std@@@std@@QBE?AV?$ostreambuf_iterator@DU?$char_traits@D@std@@@2@V32@AAVios_base@2@DJ@Z 00421190 f i readersd:from_l2.obj
 0001:00020200       ?bounds_check_access@@YAPBVL2rProposition@@IIPBQAV1@PBD@Z 00421200 f i readersd:from_l2.obj
 0001:000202d0       ?L2_initialize_array@@YAPAPBVL2rProposition@@PAPBV1@I@Z 004212d0 f i readersd:from_l2.obj
 0001:00020330       ?L2_initialize_array@@YAPAPBVL2rClause@@PAPBV1@I@Z 00421330 f i readersd:from_l2.obj
 0001:000206a0       ??0from_bin@@QAE@PAVL2_file@@VMBA_string@@@Z 004216a0 f   readersd:from_bin.obj
 0001:00020750       ??_Gfrom_bin@@UAEPAXI@Z    00421750 f i readersd:from_bin.obj
 0001:00020750       ??_Efrom_bin@@UAEPAXI@Z    00421750 f i readersd:from_bin.obj
 0001:000207b0       ??1from_bin@@UAE@XZ        004217b0 f   readersd:from_bin.obj
 0001:00020840       ?read@from_bin@@UAE_NXZ    00421840 f   readersd:from_bin.obj
 0001:000208f0       ?fileSize@@YAJPAU_iobuf@@@Z 004218f0 f   readersd:from_bin.obj
 0001:00020970       ?readIntoMemory@from_bin@@AAEIQBD@Z 00421970 f   readersd:from_bin.obj
 0001:00020a50       ?L2_free_array@@YAXPAEI@Z  00421a50 f i readersd:from_bin.obj
 0001:00020ab0       ?L2_initialize_array@@YAPAEPAEI@Z 00421ab0 f i readersd:from_bin.obj
 0001:00020b10       ?L2_free_array_no_dtor@@YAXPAEI@Z 00421b10 f i readersd:from_bin.obj
 0001:00020dd0       ??0L2_file@@QAE@XZ         00421dd0 f   readersd:L2_file.obj
 0001:00020e70       ??1L2_file@@QAE@XZ         00421e70 f   readersd:L2_file.obj
 0001:00020f40       ?allocEnums@L2_file@@QAEXI_N@Z 00421f40 f   readersd:L2_file.obj
 0001:00021040       ?allocVars@L2_file@@QAEXI_N@Z 00422040 f   readersd:L2_file.obj
 0001:00021140       ?allocProps@L2_file@@QAEXI@Z 00422140 f   readersd:L2_file.obj
 0001:00021220       ?allocClauses@L2_file@@QAEXI_N@Z 00422220 f   readersd:L2_file.obj
 0001:00021320       ?setProp@L2_file@@QAEXIPAVL2rProposition@@@Z 00422320 f   readersd:L2_file.obj
 0001:00021380       ?setID@L2rProposition@@QAEXI@Z 00422380 f i readersd:L2_file.obj
 0001:00021500       ?addBackground@L2_file@@QAEXPBVL2rClause@@@Z 00422500 f   readersd:L2_file.obj
 0001:00021560       ?addTransition@L2_file@@QAEXPBVL2rTransition@@@Z 00422560 f   readersd:L2_file.obj
 0001:000215d0       ?mode_friend@L2rVariable@@QAEPAVL2rMode@@XZ 004225d0 f i readersd:L2_file.obj
 0001:00021680       ?free_array@@YAXPAPAVL2rEnumeration@@I@Z 00422680 f i readersd:L2_file.obj
 0001:00021720       ?free_array@@YAXPAPAVL2rVariable@@I@Z 00422720 f i readersd:L2_file.obj
 0001:000217c0       ?free_array@@YAXPAPAVL2rProposition@@I@Z 004227c0 f i readersd:L2_file.obj
 0001:00021860       ?free_array@@YAXPAPAVL2rClause@@I@Z 00422860 f i readersd:L2_file.obj
 0001:00021900       ?L2_free_array_no_dtor@@YAXPAPAVL2rEnumeration@@I@Z 00422900 f i readersd:L2_file.obj
 0001:00021940       ?L2_free_array_no_dtor@@YAXPAPAVL2rVariable@@I@Z 00422940 f i readersd:L2_file.obj
 0001:00021980       ?L2_free_array_no_dtor@@YAXPAPAVL2rProposition@@I@Z 00422980 f i readersd:L2_file.obj
 0001:000219c0       ?L2_free_array_no_dtor@@YAXPAPAVL2rClause@@I@Z 004229c0 f i readersd:L2_file.obj
 0001:00021d10       ??0from_memory@@QAE@PAVL2_file@@QBEI@Z 00422d10 f   readersd:from_memory.obj
 0001:00021d80       ??_Efrom_memory@@UAEPAXI@Z 00422d80 f i readersd:from_memory.obj
 0001:00021d80       ??_Gfrom_memory@@UAEPAXI@Z 00422d80 f i readersd:from_memory.obj
 0001:00021de0       ??1from_memory@@UAE@XZ     00422de0 f   readersd:from_memory.obj
 0001:00021e20       ?read@from_memory@@UAE_NXZ 00422e20 f   readersd:from_memory.obj
 0001:00021ec0       ?read_header@from_memory@@IAE_NXZ 00422ec0 f   readersd:from_memory.obj
 0001:00021f40       ?read_cookie@from_memory@@IAE_NXZ 00422f40 f   readersd:from_memory.obj
 0001:00021fb0       ?read_version@from_memory@@IAE_NXZ 00422fb0 f   readersd:from_memory.obj
 0001:00022000       ?read_checksum@from_memory@@IAE_NXZ 00423000 f   readersd:from_memory.obj
 0001:00022040       ?read_weights@from_memory@@IAEXXZ 00423040 f   readersd:from_memory.obj
 0001:00022180       ?read_counts@from_memory@@IAEXXZ 00423180 f   readersd:from_memory.obj
 0001:00022250       ?read_one_enum@from_memory@@AAEXI@Z 00423250 f   readersd:from_memory.obj
 0001:000222e0       ?read_enums@from_memory@@IAEXXZ 004232e0 f   readersd:from_memory.obj
 0001:00022360       ?read_one_variable@from_memory@@AAEXI@Z 00423360 f   readersd:from_memory.obj
 0001:00022530       ?read_variables@from_memory@@IAEXXZ 00423530 f   readersd:from_memory.obj
 0001:000225b0       ?read_one_varval@from_memory@@AAEXI_N@Z 004235b0 f   readersd:from_memory.obj
 0001:00022670       ?read_one_varvar@from_memory@@AAEXI_N@Z 00423670 f   readersd:from_memory.obj
 0001:00022740       ?read_propositions@from_memory@@IAEXXZ 00423740 f   readersd:from_memory.obj
 0001:00022880       ?read_one_clause@from_memory@@AAEXI@Z 00423880 f   readersd:from_memory.obj
 0001:000229b0       ?read_clauses@from_memory@@IAEXXZ 004239b0 f   readersd:from_memory.obj
 0001:00022a30       ?read_one_transition@from_memory@@AAEX_NPBVL2rVariable@@@Z 00423a30 f   readersd:from_memory.obj
 0001:00022b90       ?read_transitions@from_memory@@IAEXXZ 00423b90 f   readersd:from_memory.obj
 0001:00022c90       ?get1@from_memory@@AAEEXZ  00423c90 f   readersd:from_memory.obj
 0001:00022d60       ?get@from_memory@@AAEII@Z  00423d60 f   readersd:from_memory.obj
 0001:000230f0       ??1xlate_merge_eq_vars@@UAE@XZ 004240f0 f   readersd:xlate_merge_eq_vars.obj
 0001:00023220       ??_GEqClass@xlate_merge_eq_vars@@QAEPAXI@Z 00424220 f i readersd:xlate_merge_eq_vars.obj
 0001:00023280       ??1EqClass@xlate_merge_eq_vars@@QAE@XZ 00424280 f i readersd:xlate_merge_eq_vars.obj
 0001:000232c0       ?get_equivalence_class@xlate_merge_eq_vars@@AAEPAVEqClass@1@PBVL2rVariable@@@Z 004242c0 f   readersd:xlate_merge_eq_vars.obj
 0001:000233e0       ??0EqClass@xlate_merge_eq_vars@@QAE@PBVL2rVariable@@@Z 004243e0 f i readersd:xlate_merge_eq_vars.obj
 0001:00023460       ?contains@EqClass@xlate_merge_eq_vars@@QBE_NPBVL2rVariable@@@Z 00424460 f i readersd:xlate_merge_eq_vars.obj
 0001:00023500       ?begin@EqClass@xlate_merge_eq_vars@@QBE?AV?$Slist_iterator@PBVL2rVariable@@@@XZ 00424500 f i readersd:xlate_merge_eq_vars.obj
 0001:00023550       ?end@EqClass@xlate_merge_eq_vars@@QBE?AV?$Slist_iterator@PBVL2rVariable@@@@XZ 00424550 f i readersd:xlate_merge_eq_vars.obj
 0001:000235a0       ?compute_equivalence_classes@xlate_merge_eq_vars@@AAEXAAV?$Slist@PBVL2rPropVarVar@@@@@Z 004245a0 f   readersd:xlate_merge_eq_vars.obj
 0001:000236a0       ?absorb@EqClass@xlate_merge_eq_vars@@QAEXABV12@@Z 004246a0 f i readersd:xlate_merge_eq_vars.obj
 0001:00023730       ?add@EqClass@xlate_merge_eq_vars@@QAEXPBVL2rVariable@@@Z 00424730 f i readersd:xlate_merge_eq_vars.obj
 0001:000238f0       ??0L2_optimizer_error@@QAE@VMBA_string@@@Z 004248f0 f i readersd:xlate_merge_eq_vars.obj
 0001:00023980       ??1L2_optimizer_error@@QAE@XZ 00424980 f i readersd:xlate_merge_eq_vars.obj
 0001:000239c0       ??0L2_optimizer_error@@QAE@ABV0@@Z 004249c0 f i readersd:xlate_merge_eq_vars.obj
 0001:00023a00       ?get_equivalence@xlate_merge_eq_vars@@AAEPBVL2rPropVarVar@@PBVL2rClause@@@Z 00424a00 f   readersd:xlate_merge_eq_vars.obj
 0001:00023a80       ?find_equivalences@xlate_merge_eq_vars@@AAEXXZ 00424a80 f   readersd:xlate_merge_eq_vars.obj
 0001:00023c00       ?source@L2_file_translator@@IBEPBVL2_file@@XZ 00424c00 f i readersd:xlate_merge_eq_vars.obj
 0001:00023c30       ?isInBackground@L2rClause@@QBE_NXZ 00424c30 f i readersd:xlate_merge_eq_vars.obj
 0001:00023c60       ?copy_all_vars@xlate_merge_eq_vars@@MAEXXZ 00424c60 f   readersd:xlate_merge_eq_vars.obj
 0001:00023f40       ??9MBA_string@@QBE_NABV0@@Z 00424f40 f i readersd:xlate_merge_eq_vars.obj
 0001:00023f90       ?isVerbose@L2_file_translator@@QBE_NXZ 00424f90 f i readersd:xlate_merge_eq_vars.obj
 0001:00023fc0       ?get_output@L2_file_translator@@QAEAAV?$basic_ostream@DU?$char_traits@D@std@@@std@@XZ 00424fc0 f i readersd:xlate_merge_eq_vars.obj
 0001:00023ff0       ?dest@L2_file_translator@@IAEPAVL2_file@@XZ 00424ff0 f i readersd:xlate_merge_eq_vars.obj
 0001:00024020       ?addOptimizedAwayVariableName@xlate_merge_eq_vars@@AAEXAAVMBA_string@@@Z 00425020 f i readersd:xlate_merge_eq_vars.obj
 0001:000240c0       ?setVariableMapping@xlate_merge_eq_vars@@AAEXAAVMBA_string@@0@Z 004250c0 f i readersd:xlate_merge_eq_vars.obj
 0001:00024110       ?dbg_vars@L2_file@@QBE_NXZ 00425110 f i readersd:xlate_merge_eq_vars.obj
 0001:00024140       ??6@YAAAV?$basic_ostream@DU?$char_traits@D@std@@@std@@AAV01@ABVL2rVariable@@@Z 00425140 f i readersd:xlate_merge_eq_vars.obj
 0001:00024190       ?get_representative@EqClass@xlate_merge_eq_vars@@QBEPBVL2rVariable@@XZ 00425190 f i readersd:xlate_merge_eq_vars.obj
 0001:000241c0       ?getOptimizedAwayVariableNames@xlate_merge_eq_vars@@QAEXAAV?$Array@VMBA_string@@$00@@@Z 004251c0 f   readersd:xlate_merge_eq_vars.obj
 0001:00024280       ?getVariableHashMap@xlate_merge_eq_vars@@QAEXAAV?$Hash_table@VMBA_string@@V1@@@@Z 00425280 f   readersd:xlate_merge_eq_vars.obj
 0001:000243a0       ?push_front@?$Slist@PAVEqClass@xlate_merge_eq_vars@@@@QAEXABQAVEqClass@xlate_merge_eq_vars@@@Z 004253a0 f i readersd:xlate_merge_eq_vars.obj
 0001:00024420       ?begin@?$Slist@PAVEqClass@xlate_merge_eq_vars@@@@QAE?AV?$Slist_iterator@PAVEqClass@xlate_merge_eq_vars@@@@XZ 00425420 f i readersd:xlate_merge_eq_vars.obj
 0001:00024470       ?end@?$Slist@PAVEqClass@xlate_merge_eq_vars@@@@QAE?AV?$Slist_iterator@PAVEqClass@xlate_merge_eq_vars@@@@XZ 00425470 f i readersd:xlate_merge_eq_vars.obj
 0001:000244c0       ?erase@?$Hash_table@VMBA_string@@V1@@@QAEXXZ 004254c0 f i readersd:xlate_merge_eq_vars.obj
 0001:00024520       ??1?$Array@VMBA_string@@$00@@QAE@XZ 00425520 f i readersd:xlate_merge_eq_vars.obj
 0001:00024580       ?erase@?$Array@VMBA_string@@$00@@QAEXXZ 00425580 f i readersd:xlate_merge_eq_vars.obj
 0001:000245e0       ?size@?$Array@VMBA_string@@$00@@QBEIXZ 004255e0 f i readersd:xlate_merge_eq_vars.obj
 0001:00024610       ?grow_and_set@?$Array@VMBA_string@@$00@@QAEXIVMBA_string@@@Z 00425610 f i readersd:xlate_merge_eq_vars.obj
 0001:000246c0       ?begin@?$Array@VMBA_string@@$00@@QBEPAVMBA_string@@XZ 004256c0 f i readersd:xlate_merge_eq_vars.obj
 0001:000246f0       ?end@?$Array@VMBA_string@@$00@@QBEPAVMBA_string@@XZ 004256f0 f i readersd:xlate_merge_eq_vars.obj
 0001:00024730       ?push@?$Array@VMBA_string@@$00@@QAEXABVMBA_string@@@Z 00425730 f i readersd:xlate_merge_eq_vars.obj
 0001:000247a0       ??D?$Hash_table_iterator@VMBA_string@@V1@@@QAEABVMBA_string@@XZ 004257a0 f i readersd:xlate_merge_eq_vars.obj
 0001:000247e0       ?key@?$Hash_table_iterator@VMBA_string@@V1@@@QAEABVMBA_string@@XZ 004257e0 f i readersd:xlate_merge_eq_vars.obj
 0001:00024820       ??9?$Hash_table_iterator@VMBA_string@@V1@@@QBE_NABV0@@Z 00425820 f i readersd:xlate_merge_eq_vars.obj
 0001:00024870       ??0?$Slist@PBVL2rVariable@@@@QAE@XZ 00425870 f i readersd:xlate_merge_eq_vars.obj
 0001:000248b0       ?push_front@?$Slist@PBVL2rVariable@@@@QAEXABQBVL2rVariable@@@Z 004258b0 f i readersd:xlate_merge_eq_vars.obj
 0001:00024930       ?begin@?$Slist@PBVL2rVariable@@@@QAE?AV?$Slist_iterator@PBVL2rVariable@@@@XZ 00425930 f i readersd:xlate_merge_eq_vars.obj
 0001:00024980       ?end@?$Slist@PBVL2rVariable@@@@QAE?AV?$Slist_iterator@PBVL2rVariable@@@@XZ 00425980 f i readersd:xlate_merge_eq_vars.obj
 0001:000249d0       ??E?$Slist_iterator@PBVL2rVariable@@@@QAEAAV0@XZ 004259d0 f i readersd:xlate_merge_eq_vars.obj
 0001:00024a20       ??D?$Slist_iterator@PBVL2rVariable@@@@QAEAAPBVL2rVariable@@XZ 00425a20 f i readersd:xlate_merge_eq_vars.obj
 0001:00024a70       ??9?$Slist_iterator@PBVL2rVariable@@@@QBE_NABV0@@Z 00425a70 f i readersd:xlate_merge_eq_vars.obj
 0001:00024ab0       ??E?$Slist_iterator@PAVEqClass@xlate_merge_eq_vars@@@@QAEAAV0@XZ 00425ab0 f i readersd:xlate_merge_eq_vars.obj
 0001:00024b00       ??D?$Slist_iterator@PAVEqClass@xlate_merge_eq_vars@@@@QAEAAPAVEqClass@xlate_merge_eq_vars@@XZ 00425b00 f i readersd:xlate_merge_eq_vars.obj
 0001:00024b50       ??9?$Slist_iterator@PAVEqClass@xlate_merge_eq_vars@@@@QBE_NABV0@@Z 00425b50 f i readersd:xlate_merge_eq_vars.obj
 0001:00024b90       ??0?$Slist@PBVL2rPropVarVar@@@@QAE@XZ 00425b90 f i readersd:xlate_merge_eq_vars.obj
 0001:00024bd0       ??1?$Slist@PBVL2rPropVarVar@@@@QAE@XZ 00425bd0 f i readersd:xlate_merge_eq_vars.obj
 0001:00024c10       ?push_front@?$Slist@PBVL2rPropVarVar@@@@QAEXABQBVL2rPropVarVar@@@Z 00425c10 f i readersd:xlate_merge_eq_vars.obj
 0001:00024c90       ?begin@?$Slist@PBVL2rPropVarVar@@@@QAE?AV?$Slist_iterator@PBVL2rPropVarVar@@@@XZ 00425c90 f i readersd:xlate_merge_eq_vars.obj
 0001:00024ce0       ?end@?$Slist@PBVL2rPropVarVar@@@@QAE?AV?$Slist_iterator@PBVL2rPropVarVar@@@@XZ 00425ce0 f i readersd:xlate_merge_eq_vars.obj
 0001:00024d30       ??E?$Slist_iterator@PBVL2rPropVarVar@@@@QAEAAV0@XZ 00425d30 f i readersd:xlate_merge_eq_vars.obj
 0001:00024d80       ??D?$Slist_iterator@PBVL2rPropVarVar@@@@QAEAAPBVL2rPropVarVar@@XZ 00425d80 f i readersd:xlate_merge_eq_vars.obj
 0001:00024dd0       ??9?$Slist_iterator@PBVL2rPropVarVar@@@@QBE_NABV0@@Z 00425dd0 f i readersd:xlate_merge_eq_vars.obj
 0001:00024e10       ?ensure@?$Array@VMBA_string@@$00@@AAEXI@Z 00425e10 f i readersd:xlate_merge_eq_vars.obj
 0001:00024ef0       ?do_free@?$Array@VMBA_string@@$00@@AAEXPAVMBA_string@@I@Z 00425ef0 f i readersd:xlate_merge_eq_vars.obj
 0001:00024f50       ??8?$Hash_table_iterator@VMBA_string@@V1@@@QBE_NABV0@@Z 00425f50 f i readersd:xlate_merge_eq_vars.obj
 0001:00024fd0       ??D?$Slist_iterator@U?$MBApair@$$CBVMBA_string@@$$CBV1@@@@@QAEAAU?$MBApair@$$CBVMBA_string@@$$CBV1@@@XZ 00425fd0 f i readersd:xlate_merge_eq_vars.obj
 0001:00025020       ??0?$Slist_iterator@PBVL2rVariable@@@@QAE@PAV?$Slist_item@PBVL2rVariable@@@@@Z 00426020 f i readersd:xlate_merge_eq_vars.obj
 0001:00025060       ??0?$Slist_iterator@PAVEqClass@xlate_merge_eq_vars@@@@QAE@PAV?$Slist_item@PAVEqClass@xlate_merge_eq_vars@@@@@Z 00426060 f i readersd:xlate_merge_eq_vars.obj
 0001:000250a0       ?erase@?$Slist@PBVL2rPropVarVar@@@@QAEXXZ 004260a0 f i readersd:xlate_merge_eq_vars.obj
 0001:00025100       ??0?$Slist_iterator@PBVL2rPropVarVar@@@@QAE@PAV?$Slist_item@PBVL2rPropVarVar@@@@@Z 00426100 f i readersd:xlate_merge_eq_vars.obj
 0001:00025140       ??0?$Slist_item@PAVEqClass@xlate_merge_eq_vars@@@@QAE@ABQAVEqClass@xlate_merge_eq_vars@@PAV0@@Z 00426140 f i readersd:xlate_merge_eq_vars.obj
 0001:00025190       ??0?$Slist_item@PBVL2rVariable@@@@QAE@ABQBVL2rVariable@@PAV0@@Z 00426190 f i readersd:xlate_merge_eq_vars.obj
 0001:000251e0       ??0?$Slist_item@PBVL2rPropVarVar@@@@QAE@ABQBVL2rPropVarVar@@PAV0@@Z 004261e0 f i readersd:xlate_merge_eq_vars.obj
 0001:00025230       ?do_allocate@?$Array@VMBA_string@@$00@@AAEPAVMBA_string@@I@Z 00426230 f i readersd:xlate_merge_eq_vars.obj
 0001:000252a0       ??8?$Slist_iterator@U?$MBApair@$$CBVMBA_string@@$$CBV1@@@@@QBE_NABV0@@Z 004262a0 f i readersd:xlate_merge_eq_vars.obj
 0001:000252e0       ?delete_list@?$Slist_item@PBVL2rPropVarVar@@@@QAEXXZ 004262e0 f i readersd:xlate_merge_eq_vars.obj
 0001:00025360       ??_G?$Slist_item@PBVL2rPropVarVar@@@@QAEPAXI@Z 00426360 f i readersd:xlate_merge_eq_vars.obj
 0001:000253c0       ??1?$Slist_item@PBVL2rPropVarVar@@@@QAE@XZ 004263c0 f i readersd:xlate_merge_eq_vars.obj
 0001:00025400       ?size@?$Slist@PAVEqClass@xlate_merge_eq_vars@@@@QBEIXZ 00426400 f i readersd:xlate_merge_eq_vars.obj
 0001:00025430       ?remove@?$Slist@PAVEqClass@xlate_merge_eq_vars@@@@QAEXABQAVEqClass@xlate_merge_eq_vars@@@Z 00426430 f i readersd:xlate_merge_eq_vars.obj
 0001:00025530       ?insert@?$Hash_table@VMBA_string@@V1@@@QAE?AU?$MBApair@V?$Hash_table_iterator@VMBA_string@@V1@@@_N@@ABVMBA_string@@0@Z 00426530 f i readersd:xlate_merge_eq_vars.obj
 0001:00025700       ?begin@?$Hash_table@VMBA_string@@V1@@@QAE?AV?$Hash_table_iterator@VMBA_string@@V1@@@XZ 00426700 f i readersd:xlate_merge_eq_vars.obj
 0001:00025810       ?end@?$Hash_table@VMBA_string@@V1@@@QAE?AV?$Hash_table_iterator@VMBA_string@@V1@@@XZ 00426810 f i readersd:xlate_merge_eq_vars.obj
 0001:000258a0       ??E?$Hash_table_iterator@VMBA_string@@V1@@@QAEAAV0@XZ 004268a0 f i readersd:xlate_merge_eq_vars.obj
 0001:000259c0       ??0?$MBApair@V?$Hash_table_iterator@VMBA_string@@V1@@@_N@@QAE@ABV?$Hash_table_iterator@VMBA_string@@V1@@@AB_N@Z 004269c0 f i readersd:xlate_merge_eq_vars.obj
 0001:00025a10       ??0?$Hash_table_iterator@VMBA_string@@V1@@@AAE@AAV?$Hash_table@VMBA_string@@V1@@@IV?$Slist_iterator@U?$MBApair@$$CBVMBA_string@@$$CBV1@@@@@@Z 00426a10 f i readersd:xlate_merge_eq_vars.obj
 0001:00025a60       ??E?$Slist_iterator@U?$MBApair@$$CBVMBA_string@@$$CBV1@@@@@QAEAAV0@XZ 00426a60 f i readersd:xlate_merge_eq_vars.obj
 0001:00025ab0       ??9?$Slist_iterator@U?$MBApair@$$CBVMBA_string@@$$CBV1@@@@@QBE_NABV0@@Z 00426ab0 f i readersd:xlate_merge_eq_vars.obj
 0001:00025af0       ??4?$Slist_iterator@U?$MBApair@$$CBVMBA_string@@$$CBV1@@@@@QAEAAV0@ABV0@@Z 00426af0 f i readersd:xlate_merge_eq_vars.obj
 0001:00025b30       ?empty@?$Slist@U?$MBApair@$$CBVMBA_string@@$$CBV1@@@@@QBE_NXZ 00426b30 f i readersd:xlate_merge_eq_vars.obj
 0001:00025b70       ?push_front@?$Slist@U?$MBApair@$$CBVMBA_string@@$$CBV1@@@@@QAEXABU?$MBApair@$$CBVMBA_string@@$$CBV1@@@@Z 00426b70 f i readersd:xlate_merge_eq_vars.obj
 0001:00025bf0       ?begin@?$Slist@U?$MBApair@$$CBVMBA_string@@$$CBV1@@@@@QAE?AV?$Slist_iterator@U?$MBApair@$$CBVMBA_string@@$$CBV1@@@@@XZ 00426bf0 f i readersd:xlate_merge_eq_vars.obj
 0001:00025c40       ?end@?$Slist@U?$MBApair@$$CBVMBA_string@@$$CBV1@@@@@QAE?AV?$Slist_iterator@U?$MBApair@$$CBVMBA_string@@$$CBV1@@@@@XZ 00426c40 f i readersd:xlate_merge_eq_vars.obj
 0001:00025c90       ??0?$MBApair@$$CBVMBA_string@@$$CBV1@@@QAE@ABVMBA_string@@0@Z 00426c90 f i readersd:xlate_merge_eq_vars.obj
 0001:00025d10       ??0?$Slist_iterator@U?$MBApair@$$CBVMBA_string@@$$CBV1@@@@@QAE@PAV?$Slist_item@U?$MBApair@$$CBVMBA_string@@$$CBV1@@@@@@Z 00426d10 f i readersd:xlate_merge_eq_vars.obj
 0001:00025d50       ??0?$Slist_item@U?$MBApair@$$CBVMBA_string@@$$CBV1@@@@@QAE@ABU?$MBApair@$$CBVMBA_string@@$$CBV1@@@PAV0@@Z 00426d50 f i readersd:xlate_merge_eq_vars.obj
 0001:000260e0       ?translate@L2_file_translator@@UAE_NXZ 004270e0 f   readersd:L2_file_translator.obj
 0001:00026240       ?get_dest_enum@L2_file_translator@@QAEPBVL2rEnumeration@@PBV2@@Z 00427240 f   readersd:L2_file_translator.obj
 0001:00026290       ?get_source_enums@L2_file_translator@@QAEXPBVL2rEnumeration@@AAV?$Slist@PBVL2rEnumeration@@@@@Z 00427290 f   readersd:L2_file_translator.obj
 0001:000262e0       ?add_mapping@L2_file_translator@@IAEXPBVL2rEnumeration@@0@Z 004272e0 f   readersd:L2_file_translator.obj
 0001:00026330       ?get_dest_var@L2_file_translator@@QAEPBVL2rVariable@@PBV2@@Z 00427330 f   readersd:L2_file_translator.obj
 0001:00026380       ?get_source_vars@L2_file_translator@@QAEXPBVL2rVariable@@AAV?$Slist@PBVL2rVariable@@@@@Z 00427380 f   readersd:L2_file_translator.obj
 0001:000263d0       ?add_mapping@L2_file_translator@@IAEXPBVL2rVariable@@PAV2@@Z 004273d0 f   readersd:L2_file_translator.obj
 0001:00026450       ?add_mapping_unchecked@L2_file_translator@@IAEXPBVL2rVariable@@0@Z 00427450 f   readersd:L2_file_translator.obj
 0001:000264a0       ?get_dest_prop@L2_file_translator@@QAEPBVL2rProposition@@PBV2@@Z 004274a0 f   readersd:L2_file_translator.obj
 0001:000264f0       ?get_source_props@L2_file_translator@@QAEXPBVL2rProposition@@AAV?$Slist@PBVL2rProposition@@@@@Z 004274f0 f   readersd:L2_file_translator.obj
 0001:00026540       ?add_mapping@L2_file_translator@@IAEXPBVL2rProposition@@0@Z 00427540 f   readersd:L2_file_translator.obj
 0001:00026590       ?get_dest_clause@L2_file_translator@@QAEPBVL2rClause@@PBV2@@Z 00427590 f   readersd:L2_file_translator.obj
 0001:000265e0       ?get_source_clauses@L2_file_translator@@QAEXPBVL2rClause@@AAV?$Slist@PBVL2rClause@@@@@Z 004275e0 f   readersd:L2_file_translator.obj
 0001:00026630       ?add_mapping@L2_file_translator@@IAEXPBVL2rClause@@PAV2@@Z 00427630 f   readersd:L2_file_translator.obj
 0001:00026690       ?add_mapping_unchecked@L2_file_translator@@IAEXPBVL2rClause@@0@Z 00427690 f   readersd:L2_file_translator.obj
 0001:000266e0       ?copy_enum@L2_file_translator@@MAEPAVL2rEnumeration@@PBV2@H_N@Z 004276e0 f   readersd:L2_file_translator.obj
 0001:000268e0       ?names@dbg_L2rEnumeration@@QBEPBVMBA_string@@XZ 004278e0 f i readersd:L2_file_translator.obj
 0001:00026910       ?copy_var@L2_file_translator@@MAEPAVL2rVariable@@PBV2@H_N@Z 00427910 f   readersd:L2_file_translator.obj
 0001:00026af0       ?copy_prop@L2_file_translator@@MAEPAVL2rProposition@@PBV2@H_N@Z 00427af0 f   readersd:L2_file_translator.obj
 0001:00026cd0       ?copy_clause@L2_file_translator@@MAEPAVL2rClause@@PBV2@H_N@Z 00427cd0 f   readersd:L2_file_translator.obj
 0001:00026f00       ?component@dbg_L2rClause@@QBE?AVMBA_string@@XZ 00427f00 f i readersd:L2_file_translator.obj
 0001:00026f60       ?copy_transition@L2_file_translator@@MAEPAVL2rTransition@@PBV2@_N@Z 00427f60 f   readersd:L2_file_translator.obj
 0001:00027180       ?clause@L2rTransition@@QBEPBVL2rClause@@I@Z 00428180 f i readersd:L2_file_translator.obj
 0001:000271e0       ?name@dbg_L2rTransition@@QBE?AVMBA_string@@XZ 004281e0 f i readersd:L2_file_translator.obj
 0001:00027240       ?copy_all_enums@L2_file_translator@@MAEXXZ 00428240 f   readersd:L2_file_translator.obj
 0001:000272f0       ?dbg_enums@L2_file@@QBE_NXZ 004282f0 f i readersd:L2_file_translator.obj
 0001:00027320       ?copy_all_vars@L2_file_translator@@MAEXXZ 00428320 f   readersd:L2_file_translator.obj
 0001:000273d0       ?copy_all_props@L2_file_translator@@MAEXXZ 004283d0 f   readersd:L2_file_translator.obj
 0001:00027470       ?copy_all_clauses@L2_file_translator@@MAEXXZ 00428470 f   readersd:L2_file_translator.obj
 0001:00027530       ?dbg_clauses@L2_file@@QBE_NXZ 00428530 f i readersd:L2_file_translator.obj
 0001:00027560       ?copy_all_transitions@L2_file_translator@@MAEXXZ 00428560 f   readersd:L2_file_translator.obj
 0001:000277f0       ?begin_nominal@L2rMode@@QBE?AV?$Slist_iterator@PBVL2rTransition@@@@XZ 004287f0 f i readersd:L2_file_translator.obj
 0001:00027840       ?end_nominal@L2rMode@@QBE?AV?$Slist_iterator@PBVL2rTransition@@@@XZ 00428840 f i readersd:L2_file_translator.obj
 0001:00027890       ?begin_failure@L2rMode@@QBE?AV?$Slist_iterator@PBVL2rTransition@@@@XZ 00428890 f i readersd:L2_file_translator.obj
 0001:000278e0       ?end_failure@L2rMode@@QBE?AV?$Slist_iterator@PBVL2rTransition@@@@XZ 004288e0 f i readersd:L2_file_translator.obj
 0001:00027930       ?domain_size@L2rMode@@QBEIXZ 00428930 f i readersd:L2_file_translator.obj
 0001:00027970       ?nfailure@L2rMode@@QBEIXZ  00428970 f i readersd:L2_file_translator.obj
 0001:000279b0       ?mode@L2rVariable@@QBEPBVL2rMode@@XZ 004289b0 f i readersd:L2_file_translator.obj
 0001:000279f0       ?begin@?$Slist@PBVL2rTransition@@@@QAE?AV?$Slist_iterator@PBVL2rTransition@@@@XZ 004289f0 f i readersd:L2_file_translator.obj
 0001:00027a40       ?end@?$Slist@PBVL2rTransition@@@@QAE?AV?$Slist_iterator@PBVL2rTransition@@@@XZ 00428a40 f i readersd:L2_file_translator.obj
 0001:00027a90       ??E?$Slist_iterator@PBVL2rTransition@@@@QAEAAV0@XZ 00428a90 f i readersd:L2_file_translator.obj
 0001:00027ae0       ??D?$Slist_iterator@PBVL2rTransition@@@@QAEAAPBVL2rTransition@@XZ 00428ae0 f i readersd:L2_file_translator.obj
 0001:00027b30       ??9?$Slist_iterator@PBVL2rTransition@@@@QBE_NABV0@@Z 00428b30 f i readersd:L2_file_translator.obj
 0001:00027b70       ??0?$Slist_iterator@PBVL2rTransition@@@@QAE@PAV?$Slist_item@PBVL2rTransition@@@@@Z 00428b70 f i readersd:L2_file_translator.obj
 0001:00027bb0       ?size@?$Slist@PBVL2rTransition@@@@QBEIXZ 00428bb0 f i readersd:L2_file_translator.obj
 0001:00027be0       ?get_destination@@YAPBVL2rEnumeration@@PBV1@AAV?$Hash_table@PBVL2rEnumeration@@PBV1@@@@Z 00428be0 f i readersd:L2_file_translator.obj
 0001:00027c70       ?get_sources@@YAXPBVL2rEnumeration@@AAV?$Slist@PBVL2rEnumeration@@@@AAV?$Hash_table@PBVL2rEnumeration@@V?$Slist@PBVL2rEnumeration@@@@@@@Z 00428c70 f i readersd:L2_file_translator.obj
 0001:00027d00       ?add_mapping@@YAXPBVL2rEnumeration@@0AAV?$Hash_table@PBVL2rEnumeration@@PBV1@@@AAV?$Hash_table@PBVL2rEnumeration@@V?$Slist@PBVL2rEnumeration@@@@@@@Z 00428d00 f i readersd:L2_file_translator.obj
 0001:00028030       ?get_destination@@YAPBVL2rVariable@@PBV1@AAV?$Hash_table@PBVL2rVariable@@PBV1@@@@Z 00429030 f i readersd:L2_file_translator.obj
 0001:000280c0       ?get_sources@@YAXPBVL2rVariable@@AAV?$Slist@PBVL2rVariable@@@@AAV?$Hash_table@PBVL2rVariable@@V?$Slist@PBVL2rVariable@@@@@@@Z 004290c0 f i readersd:L2_file_translator.obj
 0001:00028150       ?add_mapping@@YAXPBVL2rVariable@@0AAV?$Hash_table@PBVL2rVariable@@PBV1@@@AAV?$Hash_table@PBVL2rVariable@@V?$Slist@PBVL2rVariable@@@@@@@Z 00429150 f i readersd:L2_file_translator.obj
 0001:00028480       ?get_destination@@YAPBVL2rProposition@@PBV1@AAV?$Hash_table@PBVL2rProposition@@PBV1@@@@Z 00429480 f i readersd:L2_file_translator.obj
 0001:00028510       ?get_sources@@YAXPBVL2rProposition@@AAV?$Slist@PBVL2rProposition@@@@AAV?$Hash_table@PBVL2rProposition@@V?$Slist@PBVL2rProposition@@@@@@@Z 00429510 f i readersd:L2_file_translator.obj
 0001:000285a0       ?add_mapping@@YAXPBVL2rProposition@@0AAV?$Hash_table@PBVL2rProposition@@PBV1@@@AAV?$Hash_table@PBVL2rProposition@@V?$Slist@PBVL2rProposition@@@@@@@Z 004295a0 f i readersd:L2_file_translator.obj
 0001:000288d0       ?get_destination@@YAPBVL2rClause@@PBV1@AAV?$Hash_table@PBVL2rClause@@PBV1@@@@Z 004298d0 f i readersd:L2_file_translator.obj
 0001:00028960       ?get_sources@@YAXPBVL2rClause@@AAV?$Slist@PBVL2rClause@@@@AAV?$Hash_table@PBVL2rClause@@V?$Slist@PBVL2rClause@@@@@@@Z 00429960 f i readersd:L2_file_translator.obj
 0001:000289f0       ?add_mapping@@YAXPBVL2rClause@@0AAV?$Hash_table@PBVL2rClause@@PBV1@@@AAV?$Hash_table@PBVL2rClause@@V?$Slist@PBVL2rClause@@@@@@@Z 004299f0 f i readersd:L2_file_translator.obj
 0001:00028d20       ??D?$Hash_table_iterator@PBVL2rEnumeration@@PBV1@@@QAEABQBVL2rEnumeration@@XZ 00429d20 f i readersd:L2_file_translator.obj
 0001:00028d60       ??8?$Hash_table_iterator@PBVL2rEnumeration@@PBV1@@@QBE_NABV0@@Z 00429d60 f i readersd:L2_file_translator.obj
 0001:00028de0       ??D?$Hash_table_iterator@PBVL2rEnumeration@@V?$Slist@PBVL2rEnumeration@@@@@@QAEABV?$Slist@PBVL2rEnumeration@@@@XZ 00429de0 f i readersd:L2_file_translator.obj
 0001:00028e20       ??8?$Hash_table_iterator@PBVL2rEnumeration@@V?$Slist@PBVL2rEnumeration@@@@@@QBE_NABV0@@Z 00429e20 f i readersd:L2_file_translator.obj
 0001:00028ea0       ??0?$Slist@PBVL2rEnumeration@@@@QAE@ABQBVL2rEnumeration@@@Z 00429ea0 f i readersd:L2_file_translator.obj
 0001:00028f10       ?push_front@?$Slist@PBVL2rEnumeration@@@@QAEXABQBVL2rEnumeration@@@Z 00429f10 f i readersd:L2_file_translator.obj
 0001:00028f90       ??D?$Hash_table_iterator@PBVL2rVariable@@PBV1@@@QAEABQBVL2rVariable@@XZ 00429f90 f i readersd:L2_file_translator.obj
 0001:00028fd0       ??8?$Hash_table_iterator@PBVL2rVariable@@PBV1@@@QBE_NABV0@@Z 00429fd0 f i readersd:L2_file_translator.obj
 0001:00029050       ??D?$Hash_table_iterator@PBVL2rVariable@@V?$Slist@PBVL2rVariable@@@@@@QAEABV?$Slist@PBVL2rVariable@@@@XZ 0042a050 f i readersd:L2_file_translator.obj
 0001:00029090       ??8?$Hash_table_iterator@PBVL2rVariable@@V?$Slist@PBVL2rVariable@@@@@@QBE_NABV0@@Z 0042a090 f i readersd:L2_file_translator.obj
 0001:00029110       ??0?$Slist@PBVL2rVariable@@@@QAE@ABQBVL2rVariable@@@Z 0042a110 f i readersd:L2_file_translator.obj
 0001:00029180       ??D?$Hash_table_iterator@PBVL2rProposition@@PBV1@@@QAEABQBVL2rProposition@@XZ 0042a180 f i readersd:L2_file_translator.obj
 0001:000291c0       ??8?$Hash_table_iterator@PBVL2rProposition@@PBV1@@@QBE_NABV0@@Z 0042a1c0 f i readersd:L2_file_translator.obj
 0001:00029240       ??D?$Hash_table_iterator@PBVL2rProposition@@V?$Slist@PBVL2rProposition@@@@@@QAEABV?$Slist@PBVL2rProposition@@@@XZ 0042a240 f i readersd:L2_file_translator.obj
 0001:00029280       ??8?$Hash_table_iterator@PBVL2rProposition@@V?$Slist@PBVL2rProposition@@@@@@QBE_NABV0@@Z 0042a280 f i readersd:L2_file_translator.obj
 0001:00029300       ??0?$Slist@PBVL2rProposition@@@@QAE@ABQBVL2rProposition@@@Z 0042a300 f i readersd:L2_file_translator.obj
 0001:00029370       ?push_front@?$Slist@PBVL2rProposition@@@@QAEXABQBVL2rProposition@@@Z 0042a370 f i readersd:L2_file_translator.obj
 0001:000293f0       ??D?$Hash_table_iterator@PBVL2rClause@@PBV1@@@QAEABQBVL2rClause@@XZ 0042a3f0 f i readersd:L2_file_translator.obj
 0001:00029430       ??8?$Hash_table_iterator@PBVL2rClause@@PBV1@@@QBE_NABV0@@Z 0042a430 f i readersd:L2_file_translator.obj
 0001:000294b0       ??D?$Hash_table_iterator@PBVL2rClause@@V?$Slist@PBVL2rClause@@@@@@QAEABV?$Slist@PBVL2rClause@@@@XZ 0042a4b0 f i readersd:L2_file_translator.obj
 0001:000294f0       ??8?$Hash_table_iterator@PBVL2rClause@@V?$Slist@PBVL2rClause@@@@@@QBE_NABV0@@Z 0042a4f0 f i readersd:L2_file_translator.obj
 0001:00029570       ??0?$Slist@PBVL2rClause@@@@QAE@ABQBVL2rClause@@@Z 0042a570 f i readersd:L2_file_translator.obj
 0001:000295e0       ?push_front@?$Slist@PBVL2rClause@@@@QAEXABQBVL2rClause@@@Z 0042a5e0 f i readersd:L2_file_translator.obj
 0001:00029660       ??D?$Slist_iterator@U?$MBApair@QBVL2rEnumeration@@QBV1@@@@@QAEAAU?$MBApair@QBVL2rEnumeration@@QBV1@@@XZ 0042a660 f i readersd:L2_file_translator.obj
 0001:000296b0       ??8?$Slist_iterator@U?$MBApair@QBVL2rEnumeration@@QBV1@@@@@QBE_NABV0@@Z 0042a6b0 f i readersd:L2_file_translator.obj
 0001:000296f0       ??D?$Slist_iterator@U?$MBApair@QBVL2rEnumeration@@$$CBV?$Slist@PBVL2rEnumeration@@@@@@@@QAEAAU?$MBApair@QBVL2rEnumeration@@$$CBV?$Slist@PBVL2rEnumeration@@@@@@XZ 0042a6f0 f i readersd:L2_file_translator.obj
 0001:00029740       ??8?$Slist_iterator@U?$MBApair@QBVL2rEnumeration@@$$CBV?$Slist@PBVL2rEnumeration@@@@@@@@QBE_NABV0@@Z 0042a740 f i readersd:L2_file_translator.obj
 0001:00029780       ??D?$Slist_iterator@U?$MBApair@QBVL2rVariable@@QBV1@@@@@QAEAAU?$MBApair@QBVL2rVariable@@QBV1@@@XZ 0042a780 f i readersd:L2_file_translator.obj
 0001:000297d0       ??8?$Slist_iterator@U?$MBApair@QBVL2rVariable@@QBV1@@@@@QBE_NABV0@@Z 0042a7d0 f i readersd:L2_file_translator.obj
 0001:00029810       ??D?$Slist_iterator@U?$MBApair@QBVL2rVariable@@$$CBV?$Slist@PBVL2rVariable@@@@@@@@QAEAAU?$MBApair@QBVL2rVariable@@$$CBV?$Slist@PBVL2rVariable@@@@@@XZ 0042a810 f i readersd:L2_file_translator.obj
 0001:00029860       ??8?$Slist_iterator@U?$MBApair@QBVL2rVariable@@$$CBV?$Slist@PBVL2rVariable@@@@@@@@QBE_NABV0@@Z 0042a860 f i readersd:L2_file_translator.obj
 0001:000298a0       ??D?$Slist_iterator@U?$MBApair@QBVL2rProposition@@QBV1@@@@@QAEAAU?$MBApair@QBVL2rProposition@@QBV1@@@XZ 0042a8a0 f i readersd:L2_file_translator.obj
 0001:000298f0       ??8?$Slist_iterator@U?$MBApair@QBVL2rProposition@@QBV1@@@@@QBE_NABV0@@Z 0042a8f0 f i readersd:L2_file_translator.obj
 0001:00029930       ??D?$Slist_iterator@U?$MBApair@QBVL2rProposition@@$$CBV?$Slist@PBVL2rProposition@@@@@@@@QAEAAU?$MBApair@QBVL2rProposition@@$$CBV?$Slist@PBVL2rProposition@@@@@@XZ 0042a930 f i readersd:L2_file_translator.obj
 0001:00029980       ??8?$Slist_iterator@U?$MBApair@QBVL2rProposition@@$$CBV?$Slist@PBVL2rProposition@@@@@@@@QBE_NABV0@@Z 0042a980 f i readersd:L2_file_translator.obj
 0001:000299c0       ??D?$Slist_iterator@U?$MBApair@QBVL2rClause@@QBV1@@@@@QAEAAU?$MBApair@QBVL2rClause@@QBV1@@@XZ 0042a9c0 f i readersd:L2_file_translator.obj
 0001:00029a10       ??8?$Slist_iterator@U?$MBApair@QBVL2rClause@@QBV1@@@@@QBE_NABV0@@Z 0042aa10 f i readersd:L2_file_translator.obj
 0001:00029a50       ??D?$Slist_iterator@U?$MBApair@QBVL2rClause@@$$CBV?$Slist@PBVL2rClause@@@@@@@@QAEAAU?$MBApair@QBVL2rClause@@$$CBV?$Slist@PBVL2rClause@@@@@@XZ 0042aa50 f i readersd:L2_file_translator.obj
 0001:00029aa0       ??8?$Slist_iterator@U?$MBApair@QBVL2rClause@@$$CBV?$Slist@PBVL2rClause@@@@@@@@QBE_NABV0@@Z 0042aaa0 f i readersd:L2_file_translator.obj
 0001:00029ae0       ??0?$Slist_item@PBVL2rEnumeration@@@@QAE@ABQBVL2rEnumeration@@PAV0@@Z 0042aae0 f i readersd:L2_file_translator.obj
 0001:00029b30       ??0?$Slist_item@PBVL2rProposition@@@@QAE@ABQBVL2rProposition@@PAV0@@Z 0042ab30 f i readersd:L2_file_translator.obj
 0001:00029b80       ??0?$Slist_item@PBVL2rClause@@@@QAE@ABQBVL2rClause@@PAV0@@Z 0042ab80 f i readersd:L2_file_translator.obj
 0001:00029bd0       ?find@?$Hash_table@PBVL2rEnumeration@@PBV1@@@QAE?AV?$Hash_table_iterator@PBVL2rEnumeration@@PBV1@@@ABQBVL2rEnumeration@@@Z 0042abd0 f i readersd:L2_file_translator.obj
 0001:00029d30       ?insert@?$Hash_table@PBVL2rEnumeration@@PBV1@@@QAE?AU?$MBApair@V?$Hash_table_iterator@PBVL2rEnumeration@@PBV1@@@_N@@ABQBVL2rEnumeration@@0@Z 0042ad30 f i readersd:L2_file_translator.obj
 0001:00029ea0       ?end@?$Hash_table@PBVL2rEnumeration@@PBV1@@@QAE?AV?$Hash_table_iterator@PBVL2rEnumeration@@PBV1@@@XZ 0042aea0 f i readersd:L2_file_translator.obj
 0001:00029f30       ?find@?$Hash_table@PBVL2rEnumeration@@V?$Slist@PBVL2rEnumeration@@@@@@QAE?AV?$Hash_table_iterator@PBVL2rEnumeration@@V?$Slist@PBVL2rEnumeration@@@@@@ABQBVL2rEnumeration@@@Z 0042af30 f i readersd:L2_file_translator.obj
 0001:0002a090       ?insert@?$Hash_table@PBVL2rEnumeration@@V?$Slist@PBVL2rEnumeration@@@@@@QAE?AU?$MBApair@V?$Hash_table_iterator@PBVL2rEnumeration@@V?$Slist@PBVL2rEnumeration@@@@@@_N@@ABQBVL2rEnumeration@@ABV?$Slist@PBVL2rEnumeration@@@@@Z 0042b090 f i readersd:L2_file_translator.obj
 0001:0002a250       ?end@?$Hash_table@PBVL2rEnumeration@@V?$Slist@PBVL2rEnumeration@@@@@@QAE?AV?$Hash_table_iterator@PBVL2rEnumeration@@V?$Slist@PBVL2rEnumeration@@@@@@XZ 0042b250 f i readersd:L2_file_translator.obj
 0001:0002a2e0       ??4?$Slist@PBVL2rEnumeration@@@@QAEAAV0@ABV0@@Z 0042b2e0 f i readersd:L2_file_translator.obj
 0001:0002a440       ?find@?$Hash_table@PBVL2rVariable@@PBV1@@@QAE?AV?$Hash_table_iterator@PBVL2rVariable@@PBV1@@@ABQBVL2rVariable@@@Z 0042b440 f i readersd:L2_file_translator.obj
 0001:0002a5a0       ?insert@?$Hash_table@PBVL2rVariable@@PBV1@@@QAE?AU?$MBApair@V?$Hash_table_iterator@PBVL2rVariable@@PBV1@@@_N@@ABQBVL2rVariable@@0@Z 0042b5a0 f i readersd:L2_file_translator.obj
 0001:0002a710       ?end@?$Hash_table@PBVL2rVariable@@PBV1@@@QAE?AV?$Hash_table_iterator@PBVL2rVariable@@PBV1@@@XZ 0042b710 f i readersd:L2_file_translator.obj
 0001:0002a7a0       ?find@?$Hash_table@PBVL2rVariable@@V?$Slist@PBVL2rVariable@@@@@@QAE?AV?$Hash_table_iterator@PBVL2rVariable@@V?$Slist@PBVL2rVariable@@@@@@ABQBVL2rVariable@@@Z 0042b7a0 f i readersd:L2_file_translator.obj
 0001:0002a900       ?insert@?$Hash_table@PBVL2rVariable@@V?$Slist@PBVL2rVariable@@@@@@QAE?AU?$MBApair@V?$Hash_table_iterator@PBVL2rVariable@@V?$Slist@PBVL2rVariable@@@@@@_N@@ABQBVL2rVariable@@ABV?$Slist@PBVL2rVariable@@@@@Z 0042b900 f i readersd:L2_file_translator.obj
 0001:0002aac0       ?end@?$Hash_table@PBVL2rVariable@@V?$Slist@PBVL2rVariable@@@@@@QAE?AV?$Hash_table_iterator@PBVL2rVariable@@V?$Slist@PBVL2rVariable@@@@@@XZ 0042bac0 f i readersd:L2_file_translator.obj
 0001:0002ab50       ??4?$Slist@PBVL2rVariable@@@@QAEAAV0@ABV0@@Z 0042bb50 f i readersd:L2_file_translator.obj
 0001:0002acb0       ?find@?$Hash_table@PBVL2rProposition@@PBV1@@@QAE?AV?$Hash_table_iterator@PBVL2rProposition@@PBV1@@@ABQBVL2rProposition@@@Z 0042bcb0 f i readersd:L2_file_translator.obj
 0001:0002ae10       ?insert@?$Hash_table@PBVL2rProposition@@PBV1@@@QAE?AU?$MBApair@V?$Hash_table_iterator@PBVL2rProposition@@PBV1@@@_N@@ABQBVL2rProposition@@0@Z 0042be10 f i readersd:L2_file_translator.obj
 0001:0002af80       ?end@?$Hash_table@PBVL2rProposition@@PBV1@@@QAE?AV?$Hash_table_iterator@PBVL2rProposition@@PBV1@@@XZ 0042bf80 f i readersd:L2_file_translator.obj
 0001:0002b010       ?find@?$Hash_table@PBVL2rProposition@@V?$Slist@PBVL2rProposition@@@@@@QAE?AV?$Hash_table_iterator@PBVL2rProposition@@V?$Slist@PBVL2rProposition@@@@@@ABQBVL2rProposition@@@Z 0042c010 f i readersd:L2_file_translator.obj
 0001:0002b170       ?insert@?$Hash_table@PBVL2rProposition@@V?$Slist@PBVL2rProposition@@@@@@QAE?AU?$MBApair@V?$Hash_table_iterator@PBVL2rProposition@@V?$Slist@PBVL2rProposition@@@@@@_N@@ABQBVL2rProposition@@ABV?$Slist@PBVL2rProposition@@@@@Z 0042c170 f i readersd:L2_file_translator.obj
 0001:0002b330       ?end@?$Hash_table@PBVL2rProposition@@V?$Slist@PBVL2rProposition@@@@@@QAE?AV?$Hash_table_iterator@PBVL2rProposition@@V?$Slist@PBVL2rProposition@@@@@@XZ 0042c330 f i readersd:L2_file_translator.obj
 0001:0002b3c0       ??4?$Slist@PBVL2rProposition@@@@QAEAAV0@ABV0@@Z 0042c3c0 f i readersd:L2_file_translator.obj
 0001:0002b520       ?find@?$Hash_table@PBVL2rClause@@PBV1@@@QAE?AV?$Hash_table_iterator@PBVL2rClause@@PBV1@@@ABQBVL2rClause@@@Z 0042c520 f i readersd:L2_file_translator.obj
 0001:0002b680       ?insert@?$Hash_table@PBVL2rClause@@PBV1@@@QAE?AU?$MBApair@V?$Hash_table_iterator@PBVL2rClause@@PBV1@@@_N@@ABQBVL2rClause@@0@Z 0042c680 f i readersd:L2_file_translator.obj
 0001:0002b7f0       ?end@?$Hash_table@PBVL2rClause@@PBV1@@@QAE?AV?$Hash_table_iterator@PBVL2rClause@@PBV1@@@XZ 0042c7f0 f i readersd:L2_file_translator.obj
 0001:0002b880       ?find@?$Hash_table@PBVL2rClause@@V?$Slist@PBVL2rClause@@@@@@QAE?AV?$Hash_table_iterator@PBVL2rClause@@V?$Slist@PBVL2rClause@@@@@@ABQBVL2rClause@@@Z 0042c880 f i readersd:L2_file_translator.obj
 0001:0002b9e0       ?insert@?$Hash_table@PBVL2rClause@@V?$Slist@PBVL2rClause@@@@@@QAE?AU?$MBApair@V?$Hash_table_iterator@PBVL2rClause@@V?$Slist@PBVL2rClause@@@@@@_N@@ABQBVL2rClause@@ABV?$Slist@PBVL2rClause@@@@@Z 0042c9e0 f i readersd:L2_file_translator.obj
 0001:0002bba0       ?end@?$Hash_table@PBVL2rClause@@V?$Slist@PBVL2rClause@@@@@@QAE?AV?$Hash_table_iterator@PBVL2rClause@@V?$Slist@PBVL2rClause@@@@@@XZ 0042cba0 f i readersd:L2_file_translator.obj
 0001:0002bc30       ??4?$Slist@PBVL2rClause@@@@QAEAAV0@ABV0@@Z 0042cc30 f i readersd:L2_file_translator.obj
 0001:0002bea0       ?push_front@?$Slist@U?$MBApair@QBVL2rEnumeration@@QBV1@@@@@QAEXABU?$MBApair@QBVL2rEnumeration@@QBV1@@@@Z 0042cea0 f i readersd:L2_file_translator.obj
 0001:0002bf20       ?begin@?$Slist@U?$MBApair@QBVL2rEnumeration@@QBV1@@@@@QAE?AV?$Slist_iterator@U?$MBApair@QBVL2rEnumeration@@QBV1@@@@@XZ 0042cf20 f i readersd:L2_file_translator.obj
 0001:0002bf70       ?end@?$Slist@U?$MBApair@QBVL2rEnumeration@@QBV1@@@@@QAE?AV?$Slist_iterator@U?$MBApair@QBVL2rEnumeration@@QBV1@@@@@XZ 0042cf70 f i readersd:L2_file_translator.obj
 0001:0002bfc0       ?push_front@?$Slist@U?$MBApair@QBVL2rEnumeration@@$$CBV?$Slist@PBVL2rEnumeration@@@@@@@@QAEXABU?$MBApair@QBVL2rEnumeration@@$$CBV?$Slist@PBVL2rEnumeration@@@@@@@Z 0042cfc0 f i readersd:L2_file_translator.obj
 0001:0002c040       ?begin@?$Slist@U?$MBApair@QBVL2rEnumeration@@$$CBV?$Slist@PBVL2rEnumeration@@@@@@@@QAE?AV?$Slist_iterator@U?$MBApair@QBVL2rEnumeration@@$$CBV?$Slist@PBVL2rEnumeration@@@@@@@@XZ 0042d040 f i readersd:L2_file_translator.obj
 0001:0002c090       ?end@?$Slist@U?$MBApair@QBVL2rEnumeration@@$$CBV?$Slist@PBVL2rEnumeration@@@@@@@@QAE?AV?$Slist_iterator@U?$MBApair@QBVL2rEnumeration@@$$CBV?$Slist@PBVL2rEnumeration@@@@@@@@XZ 0042d090 f i readersd:L2_file_translator.obj
 0001:0002c0e0       ?push_front@?$Slist@U?$MBApair@QBVL2rVariable@@QBV1@@@@@QAEXABU?$MBApair@QBVL2rVariable@@QBV1@@@@Z 0042d0e0 f i readersd:L2_file_translator.obj
 0001:0002c160       ?begin@?$Slist@U?$MBApair@QBVL2rVariable@@QBV1@@@@@QAE?AV?$Slist_iterator@U?$MBApair@QBVL2rVariable@@QBV1@@@@@XZ 0042d160 f i readersd:L2_file_translator.obj
 0001:0002c1b0       ?end@?$Slist@U?$MBApair@QBVL2rVariable@@QBV1@@@@@QAE?AV?$Slist_iterator@U?$MBApair@QBVL2rVariable@@QBV1@@@@@XZ 0042d1b0 f i readersd:L2_file_translator.obj
 0001:0002c200       ?push_front@?$Slist@U?$MBApair@QBVL2rVariable@@$$CBV?$Slist@PBVL2rVariable@@@@@@@@QAEXABU?$MBApair@QBVL2rVariable@@$$CBV?$Slist@PBVL2rVariable@@@@@@@Z 0042d200 f i readersd:L2_file_translator.obj
 0001:0002c280       ?begin@?$Slist@U?$MBApair@QBVL2rVariable@@$$CBV?$Slist@PBVL2rVariable@@@@@@@@QAE?AV?$Slist_iterator@U?$MBApair@QBVL2rVariable@@$$CBV?$Slist@PBVL2rVariable@@@@@@@@XZ 0042d280 f i readersd:L2_file_translator.obj
 0001:0002c2d0       ?end@?$Slist@U?$MBApair@QBVL2rVariable@@$$CBV?$Slist@PBVL2rVariable@@@@@@@@QAE?AV?$Slist_iterator@U?$MBApair@QBVL2rVariable@@$$CBV?$Slist@PBVL2rVariable@@@@@@@@XZ 0042d2d0 f i readersd:L2_file_translator.obj
 0001:0002c320       ?push_front@?$Slist@U?$MBApair@QBVL2rProposition@@QBV1@@@@@QAEXABU?$MBApair@QBVL2rProposition@@QBV1@@@@Z 0042d320 f i readersd:L2_file_translator.obj
 0001:0002c3a0       ?begin@?$Slist@U?$MBApair@QBVL2rProposition@@QBV1@@@@@QAE?AV?$Slist_iterator@U?$MBApair@QBVL2rProposition@@QBV1@@@@@XZ 0042d3a0 f i readersd:L2_file_translator.obj
 0001:0002c3f0       ?end@?$Slist@U?$MBApair@QBVL2rProposition@@QBV1@@@@@QAE?AV?$Slist_iterator@U?$MBApair@QBVL2rProposition@@QBV1@@@@@XZ 0042d3f0 f i readersd:L2_file_translator.obj
 0001:0002c440       ?push_front@?$Slist@U?$MBApair@QBVL2rProposition@@$$CBV?$Slist@PBVL2rProposition@@@@@@@@QAEXABU?$MBApair@QBVL2rProposition@@$$CBV?$Slist@PBVL2rProposition@@@@@@@Z 0042d440 f i readersd:L2_file_translator.obj
 0001:0002c4c0       ?begin@?$Slist@U?$MBApair@QBVL2rProposition@@$$CBV?$Slist@PBVL2rProposition@@@@@@@@QAE?AV?$Slist_iterator@U?$MBApair@QBVL2rProposition@@$$CBV?$Slist@PBVL2rProposition@@@@@@@@XZ 0042d4c0 f i readersd:L2_file_translator.obj
 0001:0002c510       ?end@?$Slist@U?$MBApair@QBVL2rProposition@@$$CBV?$Slist@PBVL2rProposition@@@@@@@@QAE?AV?$Slist_iterator@U?$MBApair@QBVL2rProposition@@$$CBV?$Slist@PBVL2rProposition@@@@@@@@XZ 0042d510 f i readersd:L2_file_translator.obj
 0001:0002c560       ?push_front@?$Slist@U?$MBApair@QBVL2rClause@@QBV1@@@@@QAEXABU?$MBApair@QBVL2rClause@@QBV1@@@@Z 0042d560 f i readersd:L2_file_translator.obj
 0001:0002c5e0       ?begin@?$Slist@U?$MBApair@QBVL2rClause@@QBV1@@@@@QAE?AV?$Slist_iterator@U?$MBApair@QBVL2rClause@@QBV1@@@@@XZ 0042d5e0 f i readersd:L2_file_translator.obj
 0001:0002c630       ?end@?$Slist@U?$MBApair@QBVL2rClause@@QBV1@@@@@QAE?AV?$Slist_iterator@U?$MBApair@QBVL2rClause@@QBV1@@@@@XZ 0042d630 f i readersd:L2_file_translator.obj
 0001:0002c680       ?push_front@?$Slist@U?$MBApair@QBVL2rClause@@$$CBV?$Slist@PBVL2rClause@@@@@@@@QAEXABU?$MBApair@QBVL2rClause@@$$CBV?$Slist@PBVL2rClause@@@@@@@Z 0042d680 f i readersd:L2_file_translator.obj
 0001:0002c700       ?begin@?$Slist@U?$MBApair@QBVL2rClause@@$$CBV?$Slist@PBVL2rClause@@@@@@@@QAE?AV?$Slist_iterator@U?$MBApair@QBVL2rClause@@$$CBV?$Slist@PBVL2rClause@@@@@@@@XZ 0042d700 f i readersd:L2_file_translator.obj
 0001:0002c750       ?end@?$Slist@U?$MBApair@QBVL2rClause@@$$CBV?$Slist@PBVL2rClause@@@@@@@@QAE?AV?$Slist_iterator@U?$MBApair@QBVL2rClause@@$$CBV?$Slist@PBVL2rClause@@@@@@@@XZ 0042d750 f i readersd:L2_file_translator.obj
 0001:0002c7a0       ??0?$Hash_table_iterator@PBVL2rEnumeration@@PBV1@@@AAE@AAV?$Hash_table@PBVL2rEnumeration@@PBV1@@@IV?$Slist_iterator@U?$MBApair@QBVL2rEnumeration@@QBV1@@@@@@Z 0042d7a0 f i readersd:L2_file_translator.obj
 0001:0002c7f0       ??E?$Slist_iterator@U?$MBApair@QBVL2rEnumeration@@QBV1@@@@@QAEAAV0@XZ 0042d7f0 f i readersd:L2_file_translator.obj
 0001:0002c840       ??9?$Slist_iterator@U?$MBApair@QBVL2rEnumeration@@QBV1@@@@@QBE_NABV0@@Z 0042d840 f i readersd:L2_file_translator.obj
 0001:0002c880       ??0?$Hash_table_iterator@PBVL2rEnumeration@@V?$Slist@PBVL2rEnumeration@@@@@@AAE@AAV?$Hash_table@PBVL2rEnumeration@@V?$Slist@PBVL2rEnumeration@@@@@@IV?$Slist_iterator@U?$MBApair@QBVL2rEnumeration@@$$CBV?$Slist@PBVL2rEnumeration@@@@@@@@@Z 0042d880 f i readersd:L2_file_translator.obj
 0001:0002c8d0       ??E?$Slist_iterator@U?$MBApair@QBVL2rEnumeration@@$$CBV?$Slist@PBVL2rEnumeration@@@@@@@@QAEAAV0@XZ 0042d8d0 f i readersd:L2_file_translator.obj
 0001:0002c920       ??9?$Slist_iterator@U?$MBApair@QBVL2rEnumeration@@$$CBV?$Slist@PBVL2rEnumeration@@@@@@@@QBE_NABV0@@Z 0042d920 f i readersd:L2_file_translator.obj
 0001:0002c960       ??0?$MBApair@V?$Hash_table_iterator@PBVL2rEnumeration@@PBV1@@@_N@@QAE@ABV?$Hash_table_iterator@PBVL2rEnumeration@@PBV1@@@AB_N@Z 0042d960 f i readersd:L2_file_translator.obj
 0001:0002c9b0       ??0?$MBApair@V?$Hash_table_iterator@PBVL2rEnumeration@@V?$Slist@PBVL2rEnumeration@@@@@@_N@@QAE@ABV?$Hash_table_iterator@PBVL2rEnumeration@@V?$Slist@PBVL2rEnumeration@@@@@@AB_N@Z 0042d9b0 f i readersd:L2_file_translator.obj
 0001:0002ca00       ??0?$Hash_table_iterator@PBVL2rVariable@@PBV1@@@AAE@AAV?$Hash_table@PBVL2rVariable@@PBV1@@@IV?$Slist_iterator@U?$MBApair@QBVL2rVariable@@QBV1@@@@@@Z 0042da00 f i readersd:L2_file_translator.obj
 0001:0002ca50       ??E?$Slist_iterator@U?$MBApair@QBVL2rVariable@@QBV1@@@@@QAEAAV0@XZ 0042da50 f i readersd:L2_file_translator.obj
 0001:0002caa0       ??9?$Slist_iterator@U?$MBApair@QBVL2rVariable@@QBV1@@@@@QBE_NABV0@@Z 0042daa0 f i readersd:L2_file_translator.obj
 0001:0002cae0       ??0?$Hash_table_iterator@PBVL2rVariable@@V?$Slist@PBVL2rVariable@@@@@@AAE@AAV?$Hash_table@PBVL2rVariable@@V?$Slist@PBVL2rVariable@@@@@@IV?$Slist_iterator@U?$MBApair@QBVL2rVariable@@$$CBV?$Slist@PBVL2rVariable@@@@@@@@@Z 0042dae0 f i readersd:L2_file_translator.obj
 0001:0002cb30       ??E?$Slist_iterator@U?$MBApair@QBVL2rVariable@@$$CBV?$Slist@PBVL2rVariable@@@@@@@@QAEAAV0@XZ 0042db30 f i readersd:L2_file_translator.obj
 0001:0002cb80       ??9?$Slist_iterator@U?$MBApair@QBVL2rVariable@@$$CBV?$Slist@PBVL2rVariable@@@@@@@@QBE_NABV0@@Z 0042db80 f i readersd:L2_file_translator.obj
 0001:0002cbc0       ??0?$MBApair@V?$Hash_table_iterator@PBVL2rVariable@@PBV1@@@_N@@QAE@ABV?$Hash_table_iterator@PBVL2rVariable@@PBV1@@@AB_N@Z 0042dbc0 f i readersd:L2_file_translator.obj
 0001:0002cc10       ??0?$MBApair@V?$Hash_table_iterator@PBVL2rVariable@@V?$Slist@PBVL2rVariable@@@@@@_N@@QAE@ABV?$Hash_table_iterator@PBVL2rVariable@@V?$Slist@PBVL2rVariable@@@@@@AB_N@Z 0042dc10 f i readersd:L2_file_translator.obj
 0001:0002cc60       ??0?$Hash_table_iterator@PBVL2rProposition@@PBV1@@@AAE@AAV?$Hash_table@PBVL2rProposition@@PBV1@@@IV?$Slist_iterator@U?$MBApair@QBVL2rProposition@@QBV1@@@@@@Z 0042dc60 f i readersd:L2_file_translator.obj
 0001:0002ccb0       ??E?$Slist_iterator@U?$MBApair@QBVL2rProposition@@QBV1@@@@@QAEAAV0@XZ 0042dcb0 f i readersd:L2_file_translator.obj
 0001:0002cd00       ??9?$Slist_iterator@U?$MBApair@QBVL2rProposition@@QBV1@@@@@QBE_NABV0@@Z 0042dd00 f i readersd:L2_file_translator.obj
 0001:0002cd40       ??0?$Hash_table_iterator@PBVL2rProposition@@V?$Slist@PBVL2rProposition@@@@@@AAE@AAV?$Hash_table@PBVL2rProposition@@V?$Slist@PBVL2rProposition@@@@@@IV?$Slist_iterator@U?$MBApair@QBVL2rProposition@@$$CBV?$Slist@PBVL2rProposition@@@@@@@@@Z 0042dd40 f i readersd:L2_file_translator.obj
 0001:0002cd90       ??E?$Slist_iterator@U?$MBApair@QBVL2rProposition@@$$CBV?$Slist@PBVL2rProposition@@@@@@@@QAEAAV0@XZ 0042dd90 f i readersd:L2_file_translator.obj
 0001:0002cde0       ??9?$Slist_iterator@U?$MBApair@QBVL2rProposition@@$$CBV?$Slist@PBVL2rProposition@@@@@@@@QBE_NABV0@@Z 0042dde0 f i readersd:L2_file_translator.obj
 0001:0002ce20       ??0?$MBApair@V?$Hash_table_iterator@PBVL2rProposition@@PBV1@@@_N@@QAE@ABV?$Hash_table_iterator@PBVL2rProposition@@PBV1@@@AB_N@Z 0042de20 f i readersd:L2_file_translator.obj
 0001:0002ce70       ??0?$MBApair@V?$Hash_table_iterator@PBVL2rProposition@@V?$Slist@PBVL2rProposition@@@@@@_N@@QAE@ABV?$Hash_table_iterator@PBVL2rProposition@@V?$Slist@PBVL2rProposition@@@@@@AB_N@Z 0042de70 f i readersd:L2_file_translator.obj
 0001:0002cec0       ??0?$Hash_table_iterator@PBVL2rClause@@PBV1@@@AAE@AAV?$Hash_table@PBVL2rClause@@PBV1@@@IV?$Slist_iterator@U?$MBApair@QBVL2rClause@@QBV1@@@@@@Z 0042dec0 f i readersd:L2_file_translator.obj
 0001:0002cf10       ??E?$Slist_iterator@U?$MBApair@QBVL2rClause@@QBV1@@@@@QAEAAV0@XZ 0042df10 f i readersd:L2_file_translator.obj
 0001:0002cf60       ??9?$Slist_iterator@U?$MBApair@QBVL2rClause@@QBV1@@@@@QBE_NABV0@@Z 0042df60 f i readersd:L2_file_translator.obj
 0001:0002cfa0       ??0?$Hash_table_iterator@PBVL2rClause@@V?$Slist@PBVL2rClause@@@@@@AAE@AAV?$Hash_table@PBVL2rClause@@V?$Slist@PBVL2rClause@@@@@@IV?$Slist_iterator@U?$MBApair@QBVL2rClause@@$$CBV?$Slist@PBVL2rClause@@@@@@@@@Z 0042dfa0 f i readersd:L2_file_translator.obj
 0001:0002cff0       ??E?$Slist_iterator@U?$MBApair@QBVL2rClause@@$$CBV?$Slist@PBVL2rClause@@@@@@@@QAEAAV0@XZ 0042dff0 f i readersd:L2_file_translator.obj
 0001:0002d040       ??9?$Slist_iterator@U?$MBApair@QBVL2rClause@@$$CBV?$Slist@PBVL2rClause@@@@@@@@QBE_NABV0@@Z 0042e040 f i readersd:L2_file_translator.obj
 0001:0002d080       ??0?$MBApair@V?$Hash_table_iterator@PBVL2rClause@@PBV1@@@_N@@QAE@ABV?$Hash_table_iterator@PBVL2rClause@@PBV1@@@AB_N@Z 0042e080 f i readersd:L2_file_translator.obj
 0001:0002d0d0       ??0?$MBApair@V?$Hash_table_iterator@PBVL2rClause@@V?$Slist@PBVL2rClause@@@@@@_N@@QAE@ABV?$Hash_table_iterator@PBVL2rClause@@V?$Slist@PBVL2rClause@@@@@@AB_N@Z 0042e0d0 f i readersd:L2_file_translator.obj
 0001:0002d120       ??0?$MBApair@QBVL2rEnumeration@@QBV1@@@QAE@ABQBVL2rEnumeration@@0@Z 0042e120 f i readersd:L2_file_translator.obj
 0001:0002d160       ??0?$MBApair@QBVL2rEnumeration@@$$CBV?$Slist@PBVL2rEnumeration@@@@@@QAE@ABQBVL2rEnumeration@@ABV?$Slist@PBVL2rEnumeration@@@@@Z 0042e160 f i readersd:L2_file_translator.obj
 0001:0002d1b0       ??0?$MBApair@QBVL2rVariable@@QBV1@@@QAE@ABQBVL2rVariable@@0@Z 0042e1b0 f i readersd:L2_file_translator.obj
 0001:0002d1f0       ??0?$MBApair@QBVL2rVariable@@$$CBV?$Slist@PBVL2rVariable@@@@@@QAE@ABQBVL2rVariable@@ABV?$Slist@PBVL2rVariable@@@@@Z 0042e1f0 f i readersd:L2_file_translator.obj
 0001:0002d240       ??0?$MBApair@QBVL2rProposition@@QBV1@@@QAE@ABQBVL2rProposition@@0@Z 0042e240 f i readersd:L2_file_translator.obj
 0001:0002d280       ??0?$MBApair@QBVL2rProposition@@$$CBV?$Slist@PBVL2rProposition@@@@@@QAE@ABQBVL2rProposition@@ABV?$Slist@PBVL2rProposition@@@@@Z 0042e280 f i readersd:L2_file_translator.obj
 0001:0002d2d0       ??0?$MBApair@QBVL2rClause@@QBV1@@@QAE@ABQBVL2rClause@@0@Z 0042e2d0 f i readersd:L2_file_translator.obj
 0001:0002d310       ??0?$MBApair@QBVL2rClause@@$$CBV?$Slist@PBVL2rClause@@@@@@QAE@ABQBVL2rClause@@ABV?$Slist@PBVL2rClause@@@@@Z 0042e310 f i readersd:L2_file_translator.obj
 0001:0002d360       ??0?$Slist_iterator@U?$MBApair@QBVL2rEnumeration@@QBV1@@@@@QAE@PAV?$Slist_item@U?$MBApair@QBVL2rEnumeration@@QBV1@@@@@@Z 0042e360 f i readersd:L2_file_translator.obj
 0001:0002d3a0       ??0?$Slist_iterator@U?$MBApair@QBVL2rEnumeration@@$$CBV?$Slist@PBVL2rEnumeration@@@@@@@@QAE@PAV?$Slist_item@U?$MBApair@QBVL2rEnumeration@@$$CBV?$Slist@PBVL2rEnumeration@@@@@@@@@Z 0042e3a0 f i readersd:L2_file_translator.obj
 0001:0002d3e0       ??0?$Slist_iterator@U?$MBApair@QBVL2rVariable@@QBV1@@@@@QAE@PAV?$Slist_item@U?$MBApair@QBVL2rVariable@@QBV1@@@@@@Z 0042e3e0 f i readersd:L2_file_translator.obj
 0001:0002d420       ??0?$Slist_iterator@U?$MBApair@QBVL2rVariable@@$$CBV?$Slist@PBVL2rVariable@@@@@@@@QAE@PAV?$Slist_item@U?$MBApair@QBVL2rVariable@@$$CBV?$Slist@PBVL2rVariable@@@@@@@@@Z 0042e420 f i readersd:L2_file_translator.obj
 0001:0002d460       ??0?$Slist_iterator@U?$MBApair@QBVL2rProposition@@QBV1@@@@@QAE@PAV?$Slist_item@U?$MBApair@QBVL2rProposition@@QBV1@@@@@@Z 0042e460 f i readersd:L2_file_translator.obj
 0001:0002d4a0       ??0?$Slist_iterator@U?$MBApair@QBVL2rProposition@@$$CBV?$Slist@PBVL2rProposition@@@@@@@@QAE@PAV?$Slist_item@U?$MBApair@QBVL2rProposition@@$$CBV?$Slist@PBVL2rProposition@@@@@@@@@Z 0042e4a0 f i readersd:L2_file_translator.obj
 0001:0002d4e0       ??0?$Slist_iterator@U?$MBApair@QBVL2rClause@@QBV1@@@@@QAE@PAV?$Slist_item@U?$MBApair@QBVL2rClause@@QBV1@@@@@@Z 0042e4e0 f i readersd:L2_file_translator.obj
 0001:0002d520       ??0?$Slist_iterator@U?$MBApair@QBVL2rClause@@$$CBV?$Slist@PBVL2rClause@@@@@@@@QAE@PAV?$Slist_item@U?$MBApair@QBVL2rClause@@$$CBV?$Slist@PBVL2rClause@@@@@@@@@Z 0042e520 f i readersd:L2_file_translator.obj
 0001:0002d560       ??0?$Slist_item@U?$MBApair@QBVL2rEnumeration@@QBV1@@@@@QAE@ABU?$MBApair@QBVL2rEnumeration@@QBV1@@@PAV0@@Z 0042e560 f i readersd:L2_file_translator.obj
 0001:0002d5c0       ??0?$Slist_item@U?$MBApair@QBVL2rEnumeration@@$$CBV?$Slist@PBVL2rEnumeration@@@@@@@@QAE@ABU?$MBApair@QBVL2rEnumeration@@$$CBV?$Slist@PBVL2rEnumeration@@@@@@PAV0@@Z 0042e5c0 f i readersd:L2_file_translator.obj
 0001:0002d640       ??0?$Slist_item@U?$MBApair@QBVL2rVariable@@QBV1@@@@@QAE@ABU?$MBApair@QBVL2rVariable@@QBV1@@@PAV0@@Z 0042e640 f i readersd:L2_file_translator.obj
 0001:0002d6a0       ??0?$Slist_item@U?$MBApair@QBVL2rVariable@@$$CBV?$Slist@PBVL2rVariable@@@@@@@@QAE@ABU?$MBApair@QBVL2rVariable@@$$CBV?$Slist@PBVL2rVariable@@@@@@PAV0@@Z 0042e6a0 f i readersd:L2_file_translator.obj
 0001:0002d720       ??0?$Slist_item@U?$MBApair@QBVL2rProposition@@QBV1@@@@@QAE@ABU?$MBApair@QBVL2rProposition@@QBV1@@@PAV0@@Z 0042e720 f i readersd:L2_file_translator.obj
 0001:0002d780       ??0?$Slist_item@U?$MBApair@QBVL2rProposition@@$$CBV?$Slist@PBVL2rProposition@@@@@@@@QAE@ABU?$MBApair@QBVL2rProposition@@$$CBV?$Slist@PBVL2rProposition@@@@@@PAV0@@Z 0042e780 f i readersd:L2_file_translator.obj
 0001:0002d800       ??0?$Slist_item@U?$MBApair@QBVL2rClause@@QBV1@@@@@QAE@ABU?$MBApair@QBVL2rClause@@QBV1@@@PAV0@@Z 0042e800 f i readersd:L2_file_translator.obj
 0001:0002d860       ??0?$Slist_item@U?$MBApair@QBVL2rClause@@$$CBV?$Slist@PBVL2rClause@@@@@@@@QAE@ABU?$MBApair@QBVL2rClause@@$$CBV?$Slist@PBVL2rClause@@@@@@PAV0@@Z 0042e860 f i readersd:L2_file_translator.obj
 0001:0002dae0       ?copy_all_enums@xlate_strip@@MAEXXZ 0042eae0 f   readersd:xlate_strip.obj
 0001:0002dd30       ?copy_all_vars@xlate_strip@@MAEXXZ 0042ed30 f   readersd:xlate_strip.obj
 0001:0002df80       ?copy_all_clauses@xlate_strip@@MAEXXZ 0042ef80 f   readersd:xlate_strip.obj
 0001:0002e0e0       ?copy_transition@xlate_strip@@MAEPAVL2rTransition@@PBV2@_N@Z 0042f0e0 f   readersd:xlate_strip.obj
 0001:0002e200       ??0?$Hash_table@IPAVL2rEnumeration@@@@QAE@P6AIABI@Z@Z 0042f200 f i readersd:xlate_strip.obj
 0001:0002e270       ??1?$Hash_table@IPAVL2rEnumeration@@@@QAE@XZ 0042f270 f i readersd:xlate_strip.obj
 0001:0002e2c0       ??0?$Slist@PAVL2rEnumeration@@@@QAE@XZ 0042f2c0 f i readersd:xlate_strip.obj
 0001:0002e300       ??1?$Slist@PAVL2rEnumeration@@@@QAE@XZ 0042f300 f i readersd:xlate_strip.obj
 0001:0002e340       ?push_front@?$Slist@PAVL2rEnumeration@@@@QAEXABQAVL2rEnumeration@@@Z 0042f340 f i readersd:xlate_strip.obj
 0001:0002e3c0       ?begin@?$Slist@PAVL2rEnumeration@@@@QAE?AV?$Slist_iterator@PAVL2rEnumeration@@@@XZ 0042f3c0 f i readersd:xlate_strip.obj
 0001:0002e410       ?end@?$Slist@PAVL2rEnumeration@@@@QAE?AV?$Slist_iterator@PAVL2rEnumeration@@@@XZ 0042f410 f i readersd:xlate_strip.obj
 0001:0002e460       ??D?$Hash_table_iterator@IPAVL2rEnumeration@@@@QAEABQAVL2rEnumeration@@XZ 0042f460 f i readersd:xlate_strip.obj
 0001:0002e4a0       ??8?$Hash_table_iterator@IPAVL2rEnumeration@@@@QBE_NABV0@@Z 0042f4a0 f i readersd:xlate_strip.obj
 0001:0002e520       ??E?$Slist_iterator@PAVL2rEnumeration@@@@QAEAAV0@XZ 0042f520 f i readersd:xlate_strip.obj
 0001:0002e570       ??D?$Slist_iterator@PAVL2rEnumeration@@@@QAEAAPAVL2rEnumeration@@XZ 0042f570 f i readersd:xlate_strip.obj
 0001:0002e5c0       ??9?$Slist_iterator@PAVL2rEnumeration@@@@QBE_NABV0@@Z 0042f5c0 f i readersd:xlate_strip.obj
 0001:0002e600       ?erase@?$Slist@PAVL2rEnumeration@@@@QAEXXZ 0042f600 f i readersd:xlate_strip.obj
 0001:0002e660       ??D?$Slist_iterator@U?$MBApair@$$CBIQAVL2rEnumeration@@@@@@QAEAAU?$MBApair@$$CBIQAVL2rEnumeration@@@@XZ 0042f660 f i readersd:xlate_strip.obj
 0001:0002e6b0       ??8?$Slist_iterator@U?$MBApair@$$CBIQAVL2rEnumeration@@@@@@QBE_NABV0@@Z 0042f6b0 f i readersd:xlate_strip.obj
 0001:0002e6f0       ??0?$Slist_iterator@PAVL2rEnumeration@@@@QAE@PAV?$Slist_item@PAVL2rEnumeration@@@@@Z 0042f6f0 f i readersd:xlate_strip.obj
 0001:0002e730       ??0?$Slist_item@PAVL2rEnumeration@@@@QAE@ABQAVL2rEnumeration@@PAV0@@Z 0042f730 f i readersd:xlate_strip.obj
 0001:0002e780       ?delete_list@?$Slist_item@PAVL2rEnumeration@@@@QAEXXZ 0042f780 f i readersd:xlate_strip.obj
 0001:0002e800       ??_G?$Slist_item@PAVL2rEnumeration@@@@QAEPAXI@Z 0042f800 f i readersd:xlate_strip.obj
 0001:0002e860       ??1?$Slist_item@PAVL2rEnumeration@@@@QAE@XZ 0042f860 f i readersd:xlate_strip.obj
 0001:0002e8a0       ?find@?$Hash_table@IPAVL2rEnumeration@@@@QAE?AV?$Hash_table_iterator@IPAVL2rEnumeration@@@@ABI@Z 0042f8a0 f i readersd:xlate_strip.obj
 0001:0002ea00       ?insert@?$Hash_table@IPAVL2rEnumeration@@@@QAE?AU?$MBApair@V?$Hash_table_iterator@IPAVL2rEnumeration@@@@_N@@ABIABQAVL2rEnumeration@@@Z 0042fa00 f i readersd:xlate_strip.obj
 0001:0002eb70       ?end@?$Hash_table@IPAVL2rEnumeration@@@@QAE?AV?$Hash_table_iterator@IPAVL2rEnumeration@@@@XZ 0042fb70 f i readersd:xlate_strip.obj
 0001:0002ec00       ?hash_integral_key@@YAIABI@Z 0042fc00 f i readersd:xlate_strip.obj
 0001:0002ec30       ?L2_initialize_array@@YAPAV?$Slist@U?$MBApair@$$CBIQAVL2rEnumeration@@@@@@PAV1@I@Z 0042fc30 f i readersd:xlate_strip.obj
 0001:0002ece0       ?L2_free_array@@YAXPAV?$Slist@U?$MBApair@$$CBIQAVL2rEnumeration@@@@@@I@Z 0042fce0 f i readersd:xlate_strip.obj
 0001:0002ed90       ??_G?$Slist@U?$MBApair@$$CBIQAVL2rEnumeration@@@@@@QAEPAXI@Z 0042fd90 f i readersd:xlate_strip.obj
 0001:0002edf0       ??0?$Hash_table_iterator@IPAVL2rEnumeration@@@@AAE@AAV?$Hash_table@IPAVL2rEnumeration@@@@IV?$Slist_iterator@U?$MBApair@$$CBIQAVL2rEnumeration@@@@@@@Z 0042fdf0 f i readersd:xlate_strip.obj
 0001:0002ee40       ??E?$Slist_iterator@U?$MBApair@$$CBIQAVL2rEnumeration@@@@@@QAEAAV0@XZ 0042fe40 f i readersd:xlate_strip.obj
 0001:0002ee90       ??9?$Slist_iterator@U?$MBApair@$$CBIQAVL2rEnumeration@@@@@@QBE_NABV0@@Z 0042fe90 f i readersd:xlate_strip.obj
 0001:0002eed0       ??0?$MBApair@V?$Hash_table_iterator@IPAVL2rEnumeration@@@@_N@@QAE@ABV?$Hash_table_iterator@IPAVL2rEnumeration@@@@AB_N@Z 0042fed0 f i readersd:xlate_strip.obj
 0001:0002ef20       ??0?$Slist@U?$MBApair@$$CBIQAVL2rEnumeration@@@@@@QAE@XZ 0042ff20 f i readersd:xlate_strip.obj
 0001:0002ef60       ??1?$Slist@U?$MBApair@$$CBIQAVL2rEnumeration@@@@@@QAE@XZ 0042ff60 f i readersd:xlate_strip.obj
 0001:0002efa0       ?push_front@?$Slist@U?$MBApair@$$CBIQAVL2rEnumeration@@@@@@QAEXABU?$MBApair@$$CBIQAVL2rEnumeration@@@@@Z 0042ffa0 f i readersd:xlate_strip.obj
 0001:0002f020       ?begin@?$Slist@U?$MBApair@$$CBIQAVL2rEnumeration@@@@@@QAE?AV?$Slist_iterator@U?$MBApair@$$CBIQAVL2rEnumeration@@@@@@XZ 00430020 f i readersd:xlate_strip.obj
 0001:0002f070       ?end@?$Slist@U?$MBApair@$$CBIQAVL2rEnumeration@@@@@@QAE?AV?$Slist_iterator@U?$MBApair@$$CBIQAVL2rEnumeration@@@@@@XZ 00430070 f i readersd:xlate_strip.obj
 0001:0002f0c0       ??0?$MBApair@$$CBIQAVL2rEnumeration@@@@QAE@ABIABQAVL2rEnumeration@@@Z 004300c0 f i readersd:xlate_strip.obj
 0001:0002f100       ??0?$Slist_iterator@U?$MBApair@$$CBIQAVL2rEnumeration@@@@@@QAE@PAV?$Slist_item@U?$MBApair@$$CBIQAVL2rEnumeration@@@@@@@Z 00430100 f i readersd:xlate_strip.obj
 0001:0002f140       ?erase@?$Slist@U?$MBApair@$$CBIQAVL2rEnumeration@@@@@@QAEXXZ 00430140 f i readersd:xlate_strip.obj
 0001:0002f1a0       ??0?$Slist_item@U?$MBApair@$$CBIQAVL2rEnumeration@@@@@@QAE@ABU?$MBApair@$$CBIQAVL2rEnumeration@@@@PAV0@@Z 004301a0 f i readersd:xlate_strip.obj
 0001:0002f200       ?delete_list@?$Slist_item@U?$MBApair@$$CBIQAVL2rEnumeration@@@@@@QAEXXZ 00430200 f i readersd:xlate_strip.obj
 0001:0002f280       ??_G?$Slist_item@U?$MBApair@$$CBIQAVL2rEnumeration@@@@@@QAEPAXI@Z 00430280 f i readersd:xlate_strip.obj
 0001:0002f2e0       ??1?$Slist_item@U?$MBApair@$$CBIQAVL2rEnumeration@@@@@@QAE@XZ 004302e0 f i readersd:xlate_strip.obj
 0001:0002f320       ??0?$Slist@U?$MBApair@$$CBIQAVL2rEnumeration@@@@@@QAE@ABV0@@Z 00430320 f i readersd:xlate_strip.obj
 0001:0002f420       ?L2_free_array_no_dtor@@YAXPAV?$Slist@U?$MBApair@$$CBIQAVL2rEnumeration@@@@@@I@Z 00430420 f i readersd:xlate_strip.obj
 0001:0002f570       ??0?$Slist_item@U?$MBApair@$$CBIQAVL2rEnumeration@@@@@@QAE@ABU?$MBApair@$$CBIQAVL2rEnumeration@@@@@Z 00430570 f i readersd:xlate_strip.obj
 0001:0002f7d0       ??0xlate_remove_duplicates@@QAE@PBVL2_file@@PAV1@@Z 004307d0 f   readersd:xlate_remove_duplicates.obj
 0001:0002f820       ??_Gxlate_remove_duplicates@@UAEPAXI@Z 00430820 f i readersd:xlate_remove_duplicates.obj
 0001:0002f820       ??_Exlate_remove_duplicates@@UAEPAXI@Z 00430820 f i readersd:xlate_remove_duplicates.obj
 0001:0002f880       ?copy_all_props@xlate_remove_duplicates@@MAEXXZ 00430880 f   readersd:xlate_remove_duplicates.obj
 0001:0002fb60       ??0Hashable_prop@xlate_remove_duplicates@@QAE@PBVL2rProposition@@PAVL2_file_translator@@@Z 00430b60 f i readersd:xlate_remove_duplicates.obj
 0001:0002fc20       ?initialize@Hashable_prop@xlate_remove_duplicates@@QAEXPBVL2rVariable@@I_N@Z 00430c20 f i readersd:xlate_remove_duplicates.obj
 0001:0002fc70       ?initialize@Hashable_prop@xlate_remove_duplicates@@QAEXPBVL2rVariable@@0_N@Z 00430c70 f i readersd:xlate_remove_duplicates.obj
 0001:0002fdb0       ??0MBA_string@@QAE@PBX@Z   00430db0 f i readersd:xlate_remove_duplicates.obj
 0001:0002fe90       ?hash@Hashable_prop@xlate_remove_duplicates@@SAIABV12@@Z 00430e90 f i readersd:xlate_remove_duplicates.obj
 0001:0002fed0       ?hashcode@Hashable_prop@xlate_remove_duplicates@@QBEIXZ 00430ed0 f i readersd:xlate_remove_duplicates.obj
 0001:0002ff40       ?create_prop@Hashable_prop@xlate_remove_duplicates@@QBEPAVL2rProposition@@I@Z 00430f40 f i readersd:xlate_remove_duplicates.obj
 0001:00030010       ?copy_all_clauses@xlate_remove_duplicates@@MAEXXZ 00431010 f   readersd:xlate_remove_duplicates.obj
 0001:000302e0       ??0Hashable_clause@xlate_remove_duplicates@@QAE@PBVL2rClause@@PAVL2_file_translator@@@Z 004312e0 f i readersd:xlate_remove_duplicates.obj
 0001:00030630       ?nprops@Hashable_clause@xlate_remove_duplicates@@QBEIXZ 00431630 f i readersd:xlate_remove_duplicates.obj
 0001:00030660       ?hash@Hashable_clause@xlate_remove_duplicates@@SAIABV12@@Z 00431660 f i readersd:xlate_remove_duplicates.obj
 0001:000306a0       ?hashcode@Hashable_clause@xlate_remove_duplicates@@QBEIXZ 004316a0 f i readersd:xlate_remove_duplicates.obj
 0001:000306d0       ?create_clause@Hashable_clause@xlate_remove_duplicates@@QBEPAVL2rClause@@I@Z 004316d0 f i readersd:xlate_remove_duplicates.obj
 0001:00030840       ?begin@Hashable_clause@xlate_remove_duplicates@@QBE?AV?$Slist_iterator@PBVL2rProposition@@@@XZ 00431840 f i readersd:xlate_remove_duplicates.obj
 0001:00030890       ?end@Hashable_clause@xlate_remove_duplicates@@QBE?AV?$Slist_iterator@PBVL2rProposition@@@@XZ 00431890 f i readersd:xlate_remove_duplicates.obj
 0001:000308e0       ?add_prop@Hashable_clause@xlate_remove_duplicates@@AAEXPBVL2rProposition@@@Z 004318e0 f i readersd:xlate_remove_duplicates.obj
 0001:000309d0       ??1Hashable_clause@xlate_remove_duplicates@@QAE@XZ 004319d0 f i readersd:xlate_remove_duplicates.obj
 0001:00030a40       ??0?$Slist@PBVL2rProposition@@@@QAE@XZ 00431a40 f i readersd:xlate_remove_duplicates.obj
 0001:00030a80       ?insert_before@?$Slist@PBVL2rProposition@@@@QAE?AV?$Slist_iterator@PBVL2rProposition@@@@AAV2@ABQBVL2rProposition@@@Z 00431a80 f i readersd:xlate_remove_duplicates.obj
 0001:00030be0       ?begin@?$Slist@PBVL2rProposition@@@@QAE?AV?$Slist_iterator@PBVL2rProposition@@@@XZ 00431be0 f i readersd:xlate_remove_duplicates.obj
 0001:00030c30       ?end@?$Slist@PBVL2rProposition@@@@QAE?AV?$Slist_iterator@PBVL2rProposition@@@@XZ 00431c30 f i readersd:xlate_remove_duplicates.obj
 0001:00030c80       ??E?$Slist_iterator@PBVL2rProposition@@@@QAEAAV0@XZ 00431c80 f i readersd:xlate_remove_duplicates.obj
 0001:00030cd0       ??D?$Slist_iterator@PBVL2rProposition@@@@QAEAAPBVL2rProposition@@XZ 00431cd0 f i readersd:xlate_remove_duplicates.obj
 0001:00030d20       ??9?$Slist_iterator@PBVL2rProposition@@@@QBE_NABV0@@Z 00431d20 f i readersd:xlate_remove_duplicates.obj
 0001:00030d60       ??4?$Slist_iterator@PBVL2rProposition@@@@QAEAAV0@ABV0@@Z 00431d60 f i readersd:xlate_remove_duplicates.obj
 0001:00030da0       ??0?$Hash_table@VHashable_prop@xlate_remove_duplicates@@PAVL2rProposition@@@@QAE@P6AIABVHashable_prop@xlate_remove_duplicates@@@Z@Z 00431da0 f i readersd:xlate_remove_duplicates.obj
 0001:00030e10       ??1?$Hash_table@VHashable_prop@xlate_remove_duplicates@@PAVL2rProposition@@@@QAE@XZ 00431e10 f i readersd:xlate_remove_duplicates.obj
 0001:00030e60       ??D?$Hash_table_iterator@VHashable_prop@xlate_remove_duplicates@@PAVL2rProposition@@@@QAEABQAVL2rProposition@@XZ 00431e60 f i readersd:xlate_remove_duplicates.obj
 0001:00030ea0       ??8?$Hash_table_iterator@VHashable_prop@xlate_remove_duplicates@@PAVL2rProposition@@@@QBE_NABV0@@Z 00431ea0 f i readersd:xlate_remove_duplicates.obj
 0001:00030f20       ??9?$Hash_table_iterator@VHashable_prop@xlate_remove_duplicates@@PAVL2rProposition@@@@QBE_NABV0@@Z 00431f20 f i readersd:xlate_remove_duplicates.obj
 0001:00030f70       ??4?$Hash_table_iterator@VHashable_prop@xlate_remove_duplicates@@PAVL2rProposition@@@@QAEAAV0@ABV0@@Z 00431f70 f i readersd:xlate_remove_duplicates.obj
 0001:00030fd0       ??0?$Hash_table@VHashable_clause@xlate_remove_duplicates@@PAVL2rClause@@@@QAE@P6AIABVHashable_clause@xlate_remove_duplicates@@@Z@Z 00431fd0 f i readersd:xlate_remove_duplicates.obj
 0001:00031040       ??1?$Hash_table@VHashable_clause@xlate_remove_duplicates@@PAVL2rClause@@@@QAE@XZ 00432040 f i readersd:xlate_remove_duplicates.obj
 0001:00031090       ??D?$Hash_table_iterator@VHashable_clause@xlate_remove_duplicates@@PAVL2rClause@@@@QAEABQAVL2rClause@@XZ 00432090 f i readersd:xlate_remove_duplicates.obj
 0001:000310d0       ??8?$Hash_table_iterator@VHashable_clause@xlate_remove_duplicates@@PAVL2rClause@@@@QBE_NABV0@@Z 004320d0 f i readersd:xlate_remove_duplicates.obj
 0001:00031150       ??9?$Hash_table_iterator@VHashable_clause@xlate_remove_duplicates@@PAVL2rClause@@@@QBE_NABV0@@Z 00432150 f i readersd:xlate_remove_duplicates.obj
 0001:000311a0       ??4?$Hash_table_iterator@VHashable_clause@xlate_remove_duplicates@@PAVL2rClause@@@@QAEAAV0@ABV0@@Z 004321a0 f i readersd:xlate_remove_duplicates.obj
 0001:00031200       ??0?$Slist_iterator@PBVL2rProposition@@@@QAE@PAV?$Slist_item@PBVL2rProposition@@@@@Z 00432200 f i readersd:xlate_remove_duplicates.obj
 0001:00031240       ??8?$Slist_iterator@PBVL2rProposition@@@@QBE_NABV0@@Z 00432240 f i readersd:xlate_remove_duplicates.obj
 0001:00031280       ??D?$Slist_iterator@U?$MBApair@$$CBVHashable_prop@xlate_remove_duplicates@@QAVL2rProposition@@@@@@QAEAAU?$MBApair@$$CBVHashable_prop@xlate_remove_duplicates@@QAVL2rProposition@@@@XZ 00432280 f i readersd:xlate_remove_duplicates.obj
 0001:000312d0       ??8?$Slist_iterator@U?$MBApair@$$CBVHashable_prop@xlate_remove_duplicates@@QAVL2rProposition@@@@@@QBE_NABV0@@Z 004322d0 f i readersd:xlate_remove_duplicates.obj
 0001:00031310       ??4?$Slist_iterator@U?$MBApair@$$CBVHashable_prop@xlate_remove_duplicates@@QAVL2rProposition@@@@@@QAEAAV0@ABV0@@Z 00432310 f i readersd:xlate_remove_duplicates.obj
 0001:00031350       ??D?$Slist_iterator@U?$MBApair@$$CBVHashable_clause@xlate_remove_duplicates@@QAVL2rClause@@@@@@QAEAAU?$MBApair@$$CBVHashable_clause@xlate_remove_duplicates@@QAVL2rClause@@@@XZ 00432350 f i readersd:xlate_remove_duplicates.obj
 0001:000313a0       ??8?$Slist_iterator@U?$MBApair@$$CBVHashable_clause@xlate_remove_duplicates@@QAVL2rClause@@@@@@QBE_NABV0@@Z 004323a0 f i readersd:xlate_remove_duplicates.obj
 0001:000313e0       ??4?$Slist_iterator@U?$MBApair@$$CBVHashable_clause@xlate_remove_duplicates@@QAVL2rClause@@@@@@QAEAAV0@ABV0@@Z 004323e0 f i readersd:xlate_remove_duplicates.obj
 0001:00031420       ?find@?$Hash_table@VHashable_prop@xlate_remove_duplicates@@PAVL2rProposition@@@@QAE?AV?$Hash_table_iterator@VHashable_prop@xlate_remove_duplicates@@PAVL2rProposition@@@@ABVHashable_prop@xlate_remove_duplicates@@@Z 00432420 f i readersd:xlate_remove_duplicates.obj
 0001:00031580       ??8Hashable_prop@xlate_remove_duplicates@@QBE_NABV01@@Z 00432580 f i readersd:xlate_remove_duplicates.obj
 0001:00031630       ?insert@?$Hash_table@VHashable_prop@xlate_remove_duplicates@@PAVL2rProposition@@@@QAE?AU?$MBApair@V?$Hash_table_iterator@VHashable_prop@xlate_remove_duplicates@@PAVL2rProposition@@@@_N@@ABVHashable_prop@xlate_remove_duplicates@@ABQAVL2rProposition@@@Z 00432630 f i readersd:xlate_remove_duplicates.obj
 0001:000317b0       ?begin@?$Hash_table@VHashable_prop@xlate_remove_duplicates@@PAVL2rProposition@@@@QAE?AV?$Hash_table_iterator@VHashable_prop@xlate_remove_duplicates@@PAVL2rProposition@@@@XZ 004327b0 f i readersd:xlate_remove_duplicates.obj
 0001:000318c0       ?end@?$Hash_table@VHashable_prop@xlate_remove_duplicates@@PAVL2rProposition@@@@QAE?AV?$Hash_table_iterator@VHashable_prop@xlate_remove_duplicates@@PAVL2rProposition@@@@XZ 004328c0 f i readersd:xlate_remove_duplicates.obj
 0001:00031950       ??E?$Hash_table_iterator@VHashable_prop@xlate_remove_duplicates@@PAVL2rProposition@@@@QAEAAV0@XZ 00432950 f i readersd:xlate_remove_duplicates.obj
 0001:00031a70       ?find@?$Hash_table@VHashable_clause@xlate_remove_duplicates@@PAVL2rClause@@@@QAE?AV?$Hash_table_iterator@VHashable_clause@xlate_remove_duplicates@@PAVL2rClause@@@@ABVHashable_clause@xlate_remove_duplicates@@@Z 00432a70 f i readersd:xlate_remove_duplicates.obj
 0001:00031bd0       ??8Hashable_clause@xlate_remove_duplicates@@QBE_NABV01@@Z 00432bd0 f i readersd:xlate_remove_duplicates.obj
 0001:00031c50       ?hasSamePropositions@Hashable_clause@xlate_remove_duplicates@@ABE_NABV12@@Z 00432c50 f i readersd:xlate_remove_duplicates.obj
 0001:00031d10       ?insert@?$Hash_table@VHashable_clause@xlate_remove_duplicates@@PAVL2rClause@@@@QAE?AU?$MBApair@V?$Hash_table_iterator@VHashable_clause@xlate_remove_duplicates@@PAVL2rClause@@@@_N@@ABVHashable_clause@xlate_remove_duplicates@@ABQAVL2rClause@@@Z 00432d10 f i readersd:xlate_remove_duplicates.obj
 0001:00031ee0       ?begin@?$Hash_table@VHashable_clause@xlate_remove_duplicates@@PAVL2rClause@@@@QAE?AV?$Hash_table_iterator@VHashable_clause@xlate_remove_duplicates@@PAVL2rClause@@@@XZ 00432ee0 f i readersd:xlate_remove_duplicates.obj
 0001:00031ff0       ?end@?$Hash_table@VHashable_clause@xlate_remove_duplicates@@PAVL2rClause@@@@QAE?AV?$Hash_table_iterator@VHashable_clause@xlate_remove_duplicates@@PAVL2rClause@@@@XZ 00432ff0 f i readersd:xlate_remove_duplicates.obj
 0001:00032080       ??E?$Hash_table_iterator@VHashable_clause@xlate_remove_duplicates@@PAVL2rClause@@@@QAEAAV0@XZ 00433080 f i readersd:xlate_remove_duplicates.obj
 0001:000321a0       ?L2_initialize_array@@YAPAV?$Slist@U?$MBApair@$$CBVHashable_prop@xlate_remove_duplicates@@QAVL2rProposition@@@@@@PAV1@I@Z 004331a0 f i readersd:xlate_remove_duplicates.obj
 0001:00032250       ?L2_free_array@@YAXPAV?$Slist@U?$MBApair@$$CBVHashable_prop@xlate_remove_duplicates@@QAVL2rProposition@@@@@@I@Z 00433250 f i readersd:xlate_remove_duplicates.obj
 0001:00032300       ?L2_initialize_array@@YAPAV?$Slist@U?$MBApair@$$CBVHashable_clause@xlate_remove_duplicates@@QAVL2rClause@@@@@@PAV1@I@Z 00433300 f i readersd:xlate_remove_duplicates.obj
 0001:000323b0       ?L2_free_array@@YAXPAV?$Slist@U?$MBApair@$$CBVHashable_clause@xlate_remove_duplicates@@QAVL2rClause@@@@@@I@Z 004333b0 f i readersd:xlate_remove_duplicates.obj
 0001:00032460       ??1?$MBApair@$$CBVHashable_clause@xlate_remove_duplicates@@QAVL2rClause@@@@QAE@XZ 00433460 f i readersd:xlate_remove_duplicates.obj
 0001:000324a0       ??_G?$Slist@U?$MBApair@$$CBVHashable_prop@xlate_remove_duplicates@@QAVL2rProposition@@@@@@QAEPAXI@Z 004334a0 f i readersd:xlate_remove_duplicates.obj
 0001:00032500       ??_G?$Slist@U?$MBApair@$$CBVHashable_clause@xlate_remove_duplicates@@QAVL2rClause@@@@@@QAEPAXI@Z 00433500 f i readersd:xlate_remove_duplicates.obj
 0001:00032560       ??0?$Hash_table_iterator@VHashable_prop@xlate_remove_duplicates@@PAVL2rProposition@@@@AAE@AAV?$Hash_table@VHashable_prop@xlate_remove_duplicates@@PAVL2rProposition@@@@IV?$Slist_iterator@U?$MBApair@$$CBVHashable_prop@xlate_remove_duplicates@@QAVL2rProposition@@@@@@@Z 00433560 f i readersd:xlate_remove_duplicates.obj
 0001:000325b0       ??E?$Slist_iterator@U?$MBApair@$$CBVHashable_prop@xlate_remove_duplicates@@QAVL2rProposition@@@@@@QAEAAV0@XZ 004335b0 f i readersd:xlate_remove_duplicates.obj
 0001:00032600       ??9?$Slist_iterator@U?$MBApair@$$CBVHashable_prop@xlate_remove_duplicates@@QAVL2rProposition@@@@@@QBE_NABV0@@Z 00433600 f i readersd:xlate_remove_duplicates.obj
 0001:00032640       ??0?$MBApair@V?$Hash_table_iterator@VHashable_prop@xlate_remove_duplicates@@PAVL2rProposition@@@@_N@@QAE@ABV?$Hash_table_iterator@VHashable_prop@xlate_remove_duplicates@@PAVL2rProposition@@@@AB_N@Z 00433640 f i readersd:xlate_remove_duplicates.obj
 0001:00032690       ??0?$Hash_table_iterator@VHashable_clause@xlate_remove_duplicates@@PAVL2rClause@@@@AAE@AAV?$Hash_table@VHashable_clause@xlate_remove_duplicates@@PAVL2rClause@@@@IV?$Slist_iterator@U?$MBApair@$$CBVHashable_clause@xlate_remove_duplicates@@QAVL2rClause@@@@@@@Z 00433690 f i readersd:xlate_remove_duplicates.obj
 0001:000326e0       ??E?$Slist_iterator@U?$MBApair@$$CBVHashable_clause@xlate_remove_duplicates@@QAVL2rClause@@@@@@QAEAAV0@XZ 004336e0 f i readersd:xlate_remove_duplicates.obj
 0001:00032730       ??9?$Slist_iterator@U?$MBApair@$$CBVHashable_clause@xlate_remove_duplicates@@QAVL2rClause@@@@@@QBE_NABV0@@Z 00433730 f i readersd:xlate_remove_duplicates.obj
 0001:00032770       ??0?$MBApair@V?$Hash_table_iterator@VHashable_clause@xlate_remove_duplicates@@PAVL2rClause@@@@_N@@QAE@ABV?$Hash_table_iterator@VHashable_clause@xlate_remove_duplicates@@PAVL2rClause@@@@AB_N@Z 00433770 f i readersd:xlate_remove_duplicates.obj
 0001:000327c0       ??0?$Slist@U?$MBApair@$$CBVHashable_prop@xlate_remove_duplicates@@QAVL2rProposition@@@@@@QAE@XZ 004337c0 f i readersd:xlate_remove_duplicates.obj
 0001:00032800       ??1?$Slist@U?$MBApair@$$CBVHashable_prop@xlate_remove_duplicates@@QAVL2rProposition@@@@@@QAE@XZ 00433800 f i readersd:xlate_remove_duplicates.obj
 0001:00032840       ?empty@?$Slist@U?$MBApair@$$CBVHashable_prop@xlate_remove_duplicates@@QAVL2rProposition@@@@@@QBE_NXZ 00433840 f i readersd:xlate_remove_duplicates.obj
 0001:00032880       ?push_front@?$Slist@U?$MBApair@$$CBVHashable_prop@xlate_remove_duplicates@@QAVL2rProposition@@@@@@QAEXABU?$MBApair@$$CBVHashable_prop@xlate_remove_duplicates@@QAVL2rProposition@@@@@Z 00433880 f i readersd:xlate_remove_duplicates.obj
 0001:00032900       ?begin@?$Slist@U?$MBApair@$$CBVHashable_prop@xlate_remove_duplicates@@QAVL2rProposition@@@@@@QAE?AV?$Slist_iterator@U?$MBApair@$$CBVHashable_prop@xlate_remove_duplicates@@QAVL2rProposition@@@@@@XZ 00433900 f i readersd:xlate_remove_duplicates.obj
 0001:00032950       ?end@?$Slist@U?$MBApair@$$CBVHashable_prop@xlate_remove_duplicates@@QAVL2rProposition@@@@@@QAE?AV?$Slist_iterator@U?$MBApair@$$CBVHashable_prop@xlate_remove_duplicates@@QAVL2rProposition@@@@@@XZ 00433950 f i readersd:xlate_remove_duplicates.obj
 0001:000329a0       ??0?$MBApair@$$CBVHashable_prop@xlate_remove_duplicates@@QAVL2rProposition@@@@QAE@ABVHashable_prop@xlate_remove_duplicates@@ABQAVL2rProposition@@@Z 004339a0 f i readersd:xlate_remove_duplicates.obj
 0001:000329f0       ??0?$Slist@U?$MBApair@$$CBVHashable_clause@xlate_remove_duplicates@@QAVL2rClause@@@@@@QAE@XZ 004339f0 f i readersd:xlate_remove_duplicates.obj
 0001:00032a30       ??1?$Slist@U?$MBApair@$$CBVHashable_clause@xlate_remove_duplicates@@QAVL2rClause@@@@@@QAE@XZ 00433a30 f i readersd:xlate_remove_duplicates.obj
 0001:00032a70       ?empty@?$Slist@U?$MBApair@$$CBVHashable_clause@xlate_remove_duplicates@@QAVL2rClause@@@@@@QBE_NXZ 00433a70 f i readersd:xlate_remove_duplicates.obj
 0001:00032ab0       ?push_front@?$Slist@U?$MBApair@$$CBVHashable_clause@xlate_remove_duplicates@@QAVL2rClause@@@@@@QAEXABU?$MBApair@$$CBVHashable_clause@xlate_remove_duplicates@@QAVL2rClause@@@@@Z 00433ab0 f i readersd:xlate_remove_duplicates.obj
 0001:00032b30       ?begin@?$Slist@U?$MBApair@$$CBVHashable_clause@xlate_remove_duplicates@@QAVL2rClause@@@@@@QAE?AV?$Slist_iterator@U?$MBApair@$$CBVHashable_clause@xlate_remove_duplicates@@QAVL2rClause@@@@@@XZ 00433b30 f i readersd:xlate_remove_duplicates.obj
 0001:00032b80       ?end@?$Slist@U?$MBApair@$$CBVHashable_clause@xlate_remove_duplicates@@QAVL2rClause@@@@@@QAE?AV?$Slist_iterator@U?$MBApair@$$CBVHashable_clause@xlate_remove_duplicates@@QAVL2rClause@@@@@@XZ 00433b80 f i readersd:xlate_remove_duplicates.obj
 0001:00032bd0       ??0?$MBApair@$$CBVHashable_clause@xlate_remove_duplicates@@QAVL2rClause@@@@QAE@ABVHashable_clause@xlate_remove_duplicates@@ABQAVL2rClause@@@Z 00433bd0 f i readersd:xlate_remove_duplicates.obj
 0001:00032c20       ??0Hashable_clause@xlate_remove_duplicates@@QAE@ABV01@@Z 00433c20 f i readersd:xlate_remove_duplicates.obj
 0001:00032cc0       ??0?$Slist_iterator@U?$MBApair@$$CBVHashable_prop@xlate_remove_duplicates@@QAVL2rProposition@@@@@@QAE@PAV?$Slist_item@U?$MBApair@$$CBVHashable_prop@xlate_remove_duplicates@@QAVL2rProposition@@@@@@@Z 00433cc0 f i readersd:xlate_remove_duplicates.obj
 0001:00032d00       ??0?$Slist_iterator@U?$MBApair@$$CBVHashable_clause@xlate_remove_duplicates@@QAVL2rClause@@@@@@QAE@PAV?$Slist_item@U?$MBApair@$$CBVHashable_clause@xlate_remove_duplicates@@QAVL2rClause@@@@@@@Z 00433d00 f i readersd:xlate_remove_duplicates.obj
 0001:00032d40       ?erase@?$Slist@U?$MBApair@$$CBVHashable_prop@xlate_remove_duplicates@@QAVL2rProposition@@@@@@QAEXXZ 00433d40 f i readersd:xlate_remove_duplicates.obj
 0001:00032da0       ?erase@?$Slist@U?$MBApair@$$CBVHashable_clause@xlate_remove_duplicates@@QAVL2rClause@@@@@@QAEXXZ 00433da0 f i readersd:xlate_remove_duplicates.obj
 0001:00032e00       ??0?$Slist_item@U?$MBApair@$$CBVHashable_prop@xlate_remove_duplicates@@QAVL2rProposition@@@@@@QAE@ABU?$MBApair@$$CBVHashable_prop@xlate_remove_duplicates@@QAVL2rProposition@@@@PAV0@@Z 00433e00 f i readersd:xlate_remove_duplicates.obj
 0001:00032e60       ??0?$Slist_item@U?$MBApair@$$CBVHashable_clause@xlate_remove_duplicates@@QAVL2rClause@@@@@@QAE@ABU?$MBApair@$$CBVHashable_clause@xlate_remove_duplicates@@QAVL2rClause@@@@PAV0@@Z 00433e60 f i readersd:xlate_remove_duplicates.obj
 0001:00032ee0       ??0?$MBApair@$$CBVHashable_clause@xlate_remove_duplicates@@QAVL2rClause@@@@QAE@ABU0@@Z 00433ee0 f i readersd:xlate_remove_duplicates.obj
 0001:00032f30       ?delete_list@?$Slist_item@U?$MBApair@$$CBVHashable_prop@xlate_remove_duplicates@@QAVL2rProposition@@@@@@QAEXXZ 00433f30 f i readersd:xlate_remove_duplicates.obj
 0001:00032fb0       ?delete_list@?$Slist_item@U?$MBApair@$$CBVHashable_clause@xlate_remove_duplicates@@QAVL2rClause@@@@@@QAEXXZ 00433fb0 f i readersd:xlate_remove_duplicates.obj
 0001:00033030       ??_G?$Slist_item@U?$MBApair@$$CBVHashable_prop@xlate_remove_duplicates@@QAVL2rProposition@@@@@@QAEPAXI@Z 00434030 f i readersd:xlate_remove_duplicates.obj
 0001:00033090       ??_G?$Slist_item@U?$MBApair@$$CBVHashable_clause@xlate_remove_duplicates@@QAVL2rClause@@@@@@QAEPAXI@Z 00434090 f i readersd:xlate_remove_duplicates.obj
 0001:000330f0       ??1?$Slist_item@U?$MBApair@$$CBVHashable_prop@xlate_remove_duplicates@@QAVL2rProposition@@@@@@QAE@XZ 004340f0 f i readersd:xlate_remove_duplicates.obj
 0001:00033130       ??1?$Slist_item@U?$MBApair@$$CBVHashable_clause@xlate_remove_duplicates@@QAVL2rClause@@@@@@QAE@XZ 00434130 f i readersd:xlate_remove_duplicates.obj
 0001:000331a0       ??0?$Slist@U?$MBApair@$$CBVHashable_prop@xlate_remove_duplicates@@QAVL2rProposition@@@@@@QAE@ABV0@@Z 004341a0 f i readersd:xlate_remove_duplicates.obj
 0001:000332a0       ??0?$Slist@U?$MBApair@$$CBVHashable_clause@xlate_remove_duplicates@@QAVL2rClause@@@@@@QAE@ABV0@@Z 004342a0 f i readersd:xlate_remove_duplicates.obj
 0001:000333a0       ?L2_free_array_no_dtor@@YAXPAV?$Slist@U?$MBApair@$$CBVHashable_prop@xlate_remove_duplicates@@QAVL2rProposition@@@@@@I@Z 004343a0 f i readersd:xlate_remove_duplicates.obj
 0001:000333e0       ?L2_free_array_no_dtor@@YAXPAV?$Slist@U?$MBApair@$$CBVHashable_clause@xlate_remove_duplicates@@QAVL2rClause@@@@@@I@Z 004343e0 f i readersd:xlate_remove_duplicates.obj
 0001:00033530       ??0?$Slist_item@U?$MBApair@$$CBVHashable_prop@xlate_remove_duplicates@@QAVL2rProposition@@@@@@QAE@ABU?$MBApair@$$CBVHashable_prop@xlate_remove_duplicates@@QAVL2rProposition@@@@@Z 00434530 f i readersd:xlate_remove_duplicates.obj
 0001:00033590       ??0?$Slist_item@U?$MBApair@$$CBVHashable_clause@xlate_remove_duplicates@@QAVL2rClause@@@@@@QAE@ABU?$MBApair@$$CBVHashable_clause@xlate_remove_duplicates@@QAVL2rClause@@@@@Z 00434590 f i readersd:xlate_remove_duplicates.obj
 0001:00033810       ?count_props@xlate_sort_props@@SAXPBVL2_file@@AAI111@Z 00434810 f   readersd:xlate_sort_props.obj
 0001:000339e0       ??0L2_writer_error@@QAE@VMBA_string@@@Z 004349e0 f i readersd:xlate_sort_props.obj
 0001:00033a70       ??1L2_writer_error@@QAE@XZ 00434a70 f i readersd:xlate_sort_props.obj
 0001:00033ab0       ??0L2_writer_error@@QAE@ABV0@@Z 00434ab0 f i readersd:xlate_sort_props.obj
 0001:00033af0       ?check_sorted@xlate_sort_props@@SAXPBVL2_file@@IIII@Z 00434af0 f   readersd:xlate_sort_props.obj
 0001:00033f50       ?copy_all_props@xlate_sort_props@@MAEXXZ 00434f50 f   readersd:xlate_sort_props.obj
 0001:00034500       ??0dbg_L2rEnumeration@@QAE@IIABVMBA_string@@PBV1@@Z 00435500 f   readersd:enumeration.obj
 0001:000345f0       ?printMember@dbg_L2rEnumeration@@UBEXAAV?$basic_ostream@DU?$char_traits@D@std@@@std@@I@Z 004355f0 f i readersd:enumeration.obj
 0001:000346a0       ?toOStream_long@dbg_L2rEnumeration@@UBEXAAV?$basic_ostream@DU?$char_traits@D@std@@@std@@@Z 004356a0 f i readersd:enumeration.obj
 0001:00034800       ?toOStream@dbg_L2rEnumeration@@UBEXAAV?$basic_ostream@DU?$char_traits@D@std@@@std@@@Z 00435800 f i readersd:enumeration.obj
 0001:00034890       ?hasDebug@dbg_L2rEnumeration@@UBE_NXZ 00435890 f i readersd:enumeration.obj
 0001:000348c0       ??_Edbg_L2rEnumeration@@UAEPAXI@Z 004358c0 f i readersd:enumeration.obj
 0001:000348c0       ??_Gdbg_L2rEnumeration@@UAEPAXI@Z 004358c0 f i readersd:enumeration.obj
 0001:00034920       ??1dbg_L2rEnumeration@@UAE@XZ 00435920 f   readersd:enumeration.obj
 0001:00034cd0       ??1L2rMode@@QAE@XZ         00435cd0 f   readersd:modes.obj
 0001:00034e60       ?add_transition@L2rMode@@QAEXPBVL2rTransition@@@Z 00435e60 f   readersd:modes.obj
 0001:00034fd0       ??1?$Slist@PBVL2rTransition@@@@QAE@XZ 00435fd0 f i readersd:modes.obj
 0001:00035010       ?push_front@?$Slist@PBVL2rTransition@@@@QAEXABQBVL2rTransition@@@Z 00436010 f i readersd:modes.obj
 0001:00035090       ?insert_before@?$Slist@PBVL2rTransition@@@@QAE?AV?$Slist_iterator@PBVL2rTransition@@@@AAV2@ABQBVL2rTransition@@@Z 00436090 f i readersd:modes.obj
 0001:000351f0       ?erase@?$Slist@PBVL2rTransition@@@@QAEXXZ 004361f0 f i readersd:modes.obj
 0001:00035250       ??8?$Slist_iterator@PBVL2rTransition@@@@QBE_NABV0@@Z 00436250 f i readersd:modes.obj
 0001:00035290       ??0?$Slist_item@PBVL2rTransition@@@@QAE@ABQBVL2rTransition@@PAV0@@Z 00436290 f i readersd:modes.obj
 0001:000352e0       ?delete_list@?$Slist_item@PBVL2rTransition@@@@QAEXXZ 004362e0 f i readersd:modes.obj
 0001:00035360       ??_G?$Slist_item@PBVL2rTransition@@@@QAEPAXI@Z 00436360 f i readersd:modes.obj
 0001:000353c0       ??1?$Slist_item@PBVL2rTransition@@@@QAE@XZ 004363c0 f i readersd:modes.obj
 0001:00035400       ?push_back@?$Slist@PBVL2rTransition@@@@QAEXABQBVL2rTransition@@@Z 00436400 f i readersd:modes.obj
 0001:000354c0       ?erase@?$Slist@PBVL2rTransition@@@@QAEXAAV?$Slist_iterator@PBVL2rTransition@@@@@Z 004364c0 f i readersd:modes.obj
 0001:00035570       ?contains@?$Slist@PBVL2rTransition@@@@QBE_NABQBVL2rTransition@@@Z 00436570 f i readersd:modes.obj
 0001:000355d0       ??0?$Slist_item@PBVL2rTransition@@@@QAE@ABQBVL2rTransition@@@Z 004365d0 f i readersd:modes.obj
 0001:00035620       ?last@?$Slist@PBVL2rTransition@@@@ABEPAV?$Slist_item@PBVL2rTransition@@@@XZ 00436620 f i readersd:modes.obj
 0001:00035980       ??0L2rClause@@QAE@IIPBQBVL2rProposition@@_N@Z 00436980 f   readersd:clause.obj
 0001:00035aa0       ?hasDebug@L2rClause@@UBE_NXZ 00436aa0 f i readersd:clause.obj
 0001:00035ad0       ??_EL2rClause@@UAEPAXI@Z   00436ad0 f i readersd:clause.obj
 0001:00035ad0       ??_GL2rClause@@UAEPAXI@Z   00436ad0 f i readersd:clause.obj
 0001:00035b30       ??1L2rClause@@UAE@XZ       00436b30 f   readersd:clause.obj
 0001:00035bd0       ??0dbg_L2rClause@@QAE@VMBA_string@@IIPBQBVL2rProposition@@_N@Z 00436bd0 f   readersd:clause.obj
 0001:00035c70       ?hasDebug@dbg_L2rClause@@UBE_NXZ 00436c70 f i readersd:clause.obj
 0001:00035ca0       ??_Edbg_L2rClause@@UAEPAXI@Z 00436ca0 f i readersd:clause.obj
 0001:00035ca0       ??_Gdbg_L2rClause@@UAEPAXI@Z 00436ca0 f i readersd:clause.obj
 0001:00035d00       ??1dbg_L2rClause@@UAE@XZ   00436d00 f i readersd:clause.obj
 0001:00035d80       ?L2_free_array_no_dtor@@YAXPAPBVL2rProposition@@I@Z 00436d80 f i readersd:clause.obj
 0001:000360d0       ?setKind@L2rVariable@@QAEXW4VarKind@@@Z 004370d0 f   readersd:variable.obj
 0001:00036310       ??0L2rMode@@QAE@XZ         00437310 f i readersd:variable.obj
 0001:00036390       ?VarKind_to_string@@YA?AVMBA_string@@W4VarKind@@@Z 00437390 f i readersd:variable.obj
 0001:00036470       ?setInitial@L2rVariable@@QAEXH@Z 00437470 f   readersd:variable.obj
 0001:00036660       ?shadowInitial@L2rVariable@@QAEXH@Z 00437660 f   readersd:variable.obj
 0001:000366a0       ?restoreInitial@L2rVariable@@QAEXXZ 004376a0 f   readersd:variable.obj
 0001:000366e0       ??0?$Slist@PBVL2rTransition@@@@QAE@XZ 004376e0 f i readersd:variable.obj
 0001:00036a30       ??0L2rTransition@@QAE@PBVL2rVariable@@HHIPBQBVL2rClause@@_N2I@Z 00437a30 f   readersd:transition.obj
 0001:00036b60       ?hasDebug@L2rTransition@@UBE_NXZ 00437b60 f i readersd:transition.obj
 0001:00036b90       ?toOStream_long@L2rTransition@@UBEXAAV?$basic_ostream@DU?$char_traits@D@std@@@std@@@Z 00437b90 f i readersd:transition.obj
 0001:00036be0       ??_EL2rTransition@@UAEPAXI@Z 00437be0 f i readersd:transition.obj
 0001:00036be0       ??_GL2rTransition@@UAEPAXI@Z 00437be0 f i readersd:transition.obj
 0001:00036c40       ??1L2rTransition@@UAE@XZ   00437c40 f   readersd:transition.obj
 0001:00036ce0       ?L2_free_array_no_dtor@@YAXPAPBVL2rClause@@I@Z 00437ce0 f i readersd:transition.obj
 0001:00037030       ?L2_alloc@@YAPAXI@Z        00438030 f   coverd:array_allocator.obj
 0001:000375e0       ?L2_free@@YAXPAXI@Z        004385e0 f   coverd:array_allocator.obj
 0001:000376b0       ?L2_alloc_reclaim@@YAXXZ   004386b0 f   coverd:array_allocator.obj
 0001:00037740       ?reset_memory_flag@@YAXXZ  00438740 f   coverd:array_allocator.obj
 0001:000379f0       ?hashpjw@@YAIABVMBA_string@@@Z 004389f0 f   coverd:Hash_table.obj
 0001:00037af6       ?transcode@XMLString@@SAPADQBG@Z 00438af6 f   xerces-c_1:xerces-c_1_1.dll
 0001:00037afc       ?getMessage@XMLException@@QBEPBGXZ 00438afc f   xerces-c_1:xerces-c_1_1.dll
 0001:00037b02       ?parse@SAXParser@@UAEXQBD_N@Z 00438b02 f   xerces-c_1:xerces-c_1_1.dll
 0001:00037b08       ??1SAXParser@@UAE@XZ       00438b08 f   xerces-c_1:xerces-c_1_1.dll
 0001:00037b0e       ?setErrorHandler@SAXParser@@UAEXQAVErrorHandler@@@Z 00438b0e f   xerces-c_1:xerces-c_1_1.dll
 0001:00037b14       ?setDocumentHandler@SAXParser@@UAEXQAVDocumentHandler@@@Z 00438b14 f   xerces-c_1:xerces-c_1_1.dll
 0001:00037b1a       ??0SAXParser@@QAE@QAVXMLValidator@@@Z 00438b1a f   xerces-c_1:xerces-c_1_1.dll
 0001:00037b20       ?Initialize@XMLPlatformUtils@@SAXXZ 00438b20 f   xerces-c_1:xerces-c_1_1.dll
 0001:00037b26       ?resetErrors@HandlerBase@@UAEXXZ 00438b26 f   xerces-c_1:xerces-c_1_1.dll
 0001:00037b2c       ?startDocument@HandlerBase@@UAEXXZ 00438b2c f   xerces-c_1:xerces-c_1_1.dll
 0001:00037b32       ?setDocumentLocator@HandlerBase@@UAEXQAVLocator@@@Z 00438b32 f   xerces-c_1:xerces-c_1_1.dll
 0001:00037b38       ?resetDocument@HandlerBase@@UAEXXZ 00438b38 f   xerces-c_1:xerces-c_1_1.dll
 0001:00037b3e       ?processingInstruction@HandlerBase@@UAEXQBG0@Z 00438b3e f   xerces-c_1:xerces-c_1_1.dll
 0001:00037b44       ?ignorableWhitespace@HandlerBase@@UAEXQBGI@Z 00438b44 f   xerces-c_1:xerces-c_1_1.dll
 0001:00037b4a       ?endDocument@HandlerBase@@UAEXXZ 00438b4a f   xerces-c_1:xerces-c_1_1.dll
 0001:00037b50       ?resetDocType@HandlerBase@@UAEXXZ 00438b50 f   xerces-c_1:xerces-c_1_1.dll
 0001:00037b56       ?unparsedEntityDecl@HandlerBase@@UAEXQBG000@Z 00438b56 f   xerces-c_1:xerces-c_1_1.dll
 0001:00037b5c       ?notationDecl@HandlerBase@@UAEXQBG00@Z 00438b5c f   xerces-c_1:xerces-c_1_1.dll
 0001:00037b62       ?resolveEntity@HandlerBase@@UAEPAVInputSource@@QBG0@Z 00438b62 f   xerces-c_1:xerces-c_1_1.dll
 0001:00037b68       ??1HandlerBase@@UAE@XZ     00438b68 f   xerces-c_1:xerces-c_1_1.dll
 0001:00037b6e       ??0HandlerBase@@QAE@XZ     00438b6e f   xerces-c_1:xerces-c_1_1.dll
 0001:00037b74       ?getLineNumber@SAXParseException@@QBEIXZ 00438b74 f   xerces-c_1:xerces-c_1_1.dll
 0001:00037b7a       ?getMessage@SAXException@@QBEPBGXZ 00438b7a f   xerces-c_1:xerces-c_1_1.dll
 0001:00037b80       ?getColumnNumber@SAXParseException@@QBEIXZ 00438b80 f   xerces-c_1:xerces-c_1_1.dll
 0001:00037d90       ??0Livingstone_debug@@QAE@XZ 00438d90 f   debuggersd:livingstone_debug.obj
 0001:00037e90       ??0Livingstone@@QAE@XZ     00438e90 f i debuggersd:livingstone_debug.obj
 0001:00037f70       ??0T_system@@QAE@II_N@Z    00438f70 f i debuggersd:livingstone_debug.obj
 0001:000380d0       ??0Conflict_db@@QAE@XZ     004390d0 f i debuggersd:livingstone_debug.obj
 0001:000381d0       ??0LTMS@@QAE@XZ            004391d0 f i debuggersd:livingstone_debug.obj
 0001:00038280       ??0Ptheory@@QAE@XZ         00439280 f i debuggersd:livingstone_debug.obj
 0001:00038330       ?remove@Ptheory@@UAEXAAVClause@@@Z 00439330 f i debuggersd:livingstone_debug.obj
 0001:00038370       ?set_deleted@Clause@@AAEX_N@Z 00439370 f i debuggersd:livingstone_debug.obj
 0001:000383b0       ?set_flag@Clause@@AAEX_NW4bit_masks@1@@Z 004393b0 f i debuggersd:livingstone_debug.obj
 0001:00038410       ??_GPtheory@@UAEPAXI@Z     00439410 f i debuggersd:livingstone_debug.obj
 0001:00038410       ??_EPtheory@@UAEPAXI@Z     00439410 f i debuggersd:livingstone_debug.obj
 0001:00038470       ??1LTMS@@UAE@XZ            00439470 f i debuggersd:livingstone_debug.obj
 0001:00038520       ??1Fringe@LTMS@@QAE@XZ     00439520 f i debuggersd:livingstone_debug.obj
 0001:00038560       ??_GLTMS@@UAEPAXI@Z        00439560 f i debuggersd:livingstone_debug.obj
 0001:00038560       ??_ELTMS@@UAEPAXI@Z        00439560 f i debuggersd:livingstone_debug.obj
 0001:000385c0       ??_EConflict_db@@UAEPAXI@Z 004395c0 f i debuggersd:livingstone_debug.obj
 0001:000385c0       ??_GConflict_db@@UAEPAXI@Z 004395c0 f i debuggersd:livingstone_debug.obj
 0001:00038620       ?set_progress_uses_full@T_system@@QAEX_N@Z 00439620 f i debuggersd:livingstone_debug.obj
 0001:00038660       ??_ET_system@@UAEPAXI@Z    00439660 f i debuggersd:livingstone_debug.obj
 0001:00038660       ??_GT_system@@UAEPAXI@Z    00439660 f i debuggersd:livingstone_debug.obj
 0001:000386c0       ?optimize@Livingstone@@UAE_NXZ 004396c0 f i debuggersd:livingstone_debug.obj
 0001:00038700       ?init_tracker_created_writer@Livingstone@@MAEXPAVto_t_system@@@Z 00439700 f i debuggersd:livingstone_debug.obj
 0001:00038730       ??_ELivingstone@@UAEPAXI@Z 00439730 f i debuggersd:livingstone_debug.obj
 0001:00038730       ??_GLivingstone@@UAEPAXI@Z 00439730 f i debuggersd:livingstone_debug.obj
 0001:00038790       ?optimize@Livingstone_debug@@UAE_NXZ 00439790 f i debuggersd:livingstone_debug.obj
 0001:000387e0       ?optimize@Livingstone_reader@@QAE_NAAV?$Hash_table@VMBA_string@@V1@@@AAV?$Array@VMBA_string@@$00@@@Z 004397e0 f i debuggersd:livingstone_debug.obj
 0001:00038850       ??_GLivingstone_debug@@UAEPAXI@Z 00439850 f i debuggersd:livingstone_debug.obj
 0001:00038850       ??_ELivingstone_debug@@UAEPAXI@Z 00439850 f i debuggersd:livingstone_debug.obj
 0001:000388b0       ??1Livingstone_debug@@UAE@XZ 004398b0 f   debuggersd:livingstone_debug.obj
 0001:00038a10       ?create_debugger@Livingstone_debug@@QAEXXZ 00439a10 f   debuggersd:livingstone_debug.obj
 0001:00038c50       ?get_use_cbfs_tracker@Livingstone@@QBE_NXZ 00439c50 f i debuggersd:livingstone_debug.obj
 0001:00038c90       ?get_search_style@L2_parameters@@QBE?AW4Search_style@Tracker@@XZ 00439c90 f i debuggersd:livingstone_debug.obj
 0001:00038cc0       ?get_debugger@Livingstone_debug@@QAEPAVTracker_debug@@XZ 00439cc0 f i debuggersd:livingstone_debug.obj
 0001:00038cf0       ??0CBFS_tracker_debug@@QAE@AAVCBFS_tracker@@AAVL2_string_map@@AAV?$basic_ostream@DU?$char_traits@D@std@@@std@@@Z 00439cf0 f i debuggersd:livingstone_debug.obj
 0001:00038d40       ?print_assignment@T_system_debug@@UAEIABVAssignment@@I@Z 00439d40 f i debuggersd:livingstone_debug.obj
 0001:00038da0       ??_GCBFS_tracker_debug@@UAEPAXI@Z 00439da0 f i debuggersd:livingstone_debug.obj
 0001:00038da0       ??_ECBFS_tracker_debug@@UAEPAXI@Z 00439da0 f i debuggersd:livingstone_debug.obj
 0001:00038e00       ??1CBFS_tracker_debug@@UAE@XZ 00439e00 f i debuggersd:livingstone_debug.obj
 0001:00038e40       ??1Tracker_debug@@UAE@XZ   00439e40 f i debuggersd:livingstone_debug.obj
 0001:00038ec0       ??1T_system_debug@@UAE@XZ  00439ec0 f i debuggersd:livingstone_debug.obj
 0001:00038f00       ??1Conflict_db_debug@@UAE@XZ 00439f00 f i debuggersd:livingstone_debug.obj
 0001:00038f40       ??1LTMS_debug@@UAE@XZ      00439f40 f i debuggersd:livingstone_debug.obj
 0001:00038fa0       ??_GLTMS_debug@@UAEPAXI@Z  00439fa0 f i debuggersd:livingstone_debug.obj
 0001:00038fa0       ??_ELTMS_debug@@UAEPAXI@Z  00439fa0 f i debuggersd:livingstone_debug.obj
 0001:00039000       ?print_assignment@Conflict_db_debug@@UAEIABVAssignment@@I@Z 0043a000 f i debuggersd:livingstone_debug.obj
 0001:00039060       ??_GConflict_db_debug@@UAEPAXI@Z 0043a060 f i debuggersd:livingstone_debug.obj
 0001:00039060       ??_EConflict_db_debug@@UAEPAXI@Z 0043a060 f i debuggersd:livingstone_debug.obj
 0001:000390c0       ??0Cover_tracker_debug@@QAE@AAVCover_tracker@@AAVL2_string_map@@AAV?$basic_ostream@DU?$char_traits@D@std@@@std@@@Z 0043a0c0 f i debuggersd:livingstone_debug.obj
 0001:00039110       ?search_termination@Cover_tracker_debug@@UBE?AVMBA_string@@XZ 0043a110 f i debuggersd:livingstone_debug.obj
 0001:00039160       ??_GCover_tracker_debug@@UAEPAXI@Z 0043a160 f i debuggersd:livingstone_debug.obj
 0001:00039160       ??_ECover_tracker_debug@@UAEPAXI@Z 0043a160 f i debuggersd:livingstone_debug.obj
 0001:000391c0       ??1Cover_tracker_debug@@UAE@XZ 0043a1c0 f i debuggersd:livingstone_debug.obj
 0001:00039200       ?run@Livingstone_debug@@QAE_NAAV?$basic_istream@DU?$char_traits@D@std@@@std@@_N@Z 0043a200 f   debuggersd:livingstone_debug.obj
 0001:000398a0       ??Bios_base@std@@QBEPAXXZ  0043a8a0 f i debuggersd:livingstone_debug.obj
 0001:000398f0       ?eof@ios_base@std@@QBE_NXZ 0043a8f0 f i debuggersd:livingstone_debug.obj
 0001:00039930       ?bad@ios_base@std@@QBE_NXZ 0043a930 f i debuggersd:livingstone_debug.obj
 0001:00039970       ?init_tracker_created_writer@Livingstone_debug@@MAEXPAVto_t_system@@@Z 0043a970 f   debuggersd:livingstone_debug.obj
 0001:00039a40       ?getRepresentativeVariable@Livingstone_debug@@QAE?BVMBA_string@@ABV2@@Z 0043aa40 f   debuggersd:livingstone_debug.obj
 0001:00039b40       ?getVariableMapping@Livingstone_debug@@QAE?BVMBA_string@@ABV2@@Z 0043ab40 f   debuggersd:livingstone_debug.obj
 0001:00039c70       ?collectAllVariableNames@Livingstone_debug@@QAEXXZ 0043ac70 f   debuggersd:livingstone_debug.obj
 0001:00039dc0       ?begin_variables@Conflict_db@@QAE?AV?$Slist_iterator@PAVVariable@@@@XZ 0043adc0 f i debuggersd:livingstone_debug.obj
 0001:00039e10       ?end_variables@Conflict_db@@QAE?AV?$Slist_iterator@PAVVariable@@@@XZ 0043ae10 f i debuggersd:livingstone_debug.obj
 0001:00039e60       ?get_t_system@Livingstone@@QAEAAVT_system@@XZ 0043ae60 f i debuggersd:livingstone_debug.obj
 0001:00039e90       ?addVariableName@Livingstone_debug@@QAEXAAVMBA_string@@@Z 0043ae90 f i debuggersd:livingstone_debug.obj
 0001:00039f30       ?beginOptimizedAwayVariableNames@Livingstone_debug@@QAEPAVMBA_string@@XZ 0043af30 f i debuggersd:livingstone_debug.obj
 0001:00039f70       ?endOptimizedAwayVariableNames@Livingstone_debug@@QAEPAVMBA_string@@XZ 0043af70 f i debuggersd:livingstone_debug.obj
 0001:00039fb0       ?getRepresentative@Livingstone_debug@@QAEPBVVariable@@ABVMBA_string@@@Z 0043afb0 f   debuggersd:livingstone_debug.obj
 0001:0003a080       ?getline@?$basic_istream@DU?$char_traits@D@std@@@std@@QAEAAV12@PADH@Z 0043b080 f i debuggersd:livingstone_debug.obj
 0001:0003a0e0       ??0?$Slist@PBVConflict@@@@QAE@XZ 0043b0e0 f i debuggersd:livingstone_debug.obj
 0001:0003a120       ??1?$Slist@PBVConflict@@@@QAE@XZ 0043b120 f i debuggersd:livingstone_debug.obj
 0001:0003a160       ?erase@?$Slist@PBVConflict@@@@QAEXXZ 0043b160 f i debuggersd:livingstone_debug.obj
 0001:0003a1c0       ??0?$Array@PAVClause@@$0A@@@QAE@XZ 0043b1c0 f i debuggersd:livingstone_debug.obj
 0001:0003a210       ??1?$Array@PAVClause@@$0A@@@QAE@XZ 0043b210 f i debuggersd:livingstone_debug.obj
 0001:0003a270       ?erase@?$Array@PAVClause@@$0A@@@QAEXXZ 0043b270 f i debuggersd:livingstone_debug.obj
 0001:0003a2d0       ??0?$Array@PAVProposition@@$0A@@@QAE@XZ 0043b2d0 f i debuggersd:livingstone_debug.obj
 0001:0003a320       ??1?$Array@PAVProposition@@$0A@@@QAE@XZ 0043b320 f i debuggersd:livingstone_debug.obj
 0001:0003a380       ??0?$Slist@PAVPtheory_listener@@@@QAE@XZ 0043b380 f i debuggersd:livingstone_debug.obj
 0001:0003a3c0       ??0?$Slist@PAVVariable@@@@QAE@XZ 0043b3c0 f i debuggersd:livingstone_debug.obj
 0001:0003a400       ??1?$Slist@PAVVariable@@@@QAE@XZ 0043b400 f i debuggersd:livingstone_debug.obj
 0001:0003a440       ?begin@?$Slist@PAVVariable@@@@QAE?AV?$Slist_iterator@PAVVariable@@@@XZ 0043b440 f i debuggersd:livingstone_debug.obj
 0001:0003a490       ?end@?$Slist@PAVVariable@@@@QAE?AV?$Slist_iterator@PAVVariable@@@@XZ 0043b490 f i debuggersd:livingstone_debug.obj
 0001:0003a4e0       ??0?$Slist@PAVAssignable@@@@QAE@XZ 0043b4e0 f i debuggersd:livingstone_debug.obj
 0001:0003a520       ??1?$Slist@PAVAssignable@@@@QAE@XZ 0043b520 f i debuggersd:livingstone_debug.obj
 0001:0003a560       ??0?$Slist@PAVAssumption@@@@QAE@XZ 0043b560 f i debuggersd:livingstone_debug.obj
 0001:0003a5a0       ??1?$Slist@PAVAssumption@@@@QAE@XZ 0043b5a0 f i debuggersd:livingstone_debug.obj
 0001:0003a5e0       ??E?$Slist_iterator@PAVVariable@@@@QAEAAV0@XZ 0043b5e0 f i debuggersd:livingstone_debug.obj
 0001:0003a630       ??D?$Slist_iterator@PAVVariable@@@@QAEAAPAVVariable@@XZ 0043b630 f i debuggersd:livingstone_debug.obj
 0001:0003a680       ??9?$Slist_iterator@PAVVariable@@@@QBE_NABV0@@Z 0043b680 f i debuggersd:livingstone_debug.obj
 0001:0003a6c0       ??0?$Slist@PAVCandidate@@@@QAE@XZ 0043b6c0 f i debuggersd:livingstone_debug.obj
 0001:0003a700       ??1?$Slist@PAVCandidate@@@@QAE@XZ 0043b700 f i debuggersd:livingstone_debug.obj
 0001:0003a740       ??0?$Slist@PAVConflict_db_listener@@@@QAE@XZ 0043b740 f i debuggersd:livingstone_debug.obj
 0001:0003a780       ??0?$Slist@PAVProto_constraint@T_system@@@@QAE@XZ 0043b780 f i debuggersd:livingstone_debug.obj
 0001:0003a7c0       ??1?$Slist@PAVProto_constraint@T_system@@@@QAE@XZ 0043b7c0 f i debuggersd:livingstone_debug.obj
 0001:0003a800       ??0?$Array@PAVVariable@@$0A@@@QAE@XZ 0043b800 f i debuggersd:livingstone_debug.obj
 0001:0003a850       ??1?$Array@PAVVariable@@$0A@@@QAE@XZ 0043b850 f i debuggersd:livingstone_debug.obj
 0001:0003a8b0       ??0?$Slist@PAVClause@@@@QAE@XZ 0043b8b0 f i debuggersd:livingstone_debug.obj
 0001:0003a8f0       ??1?$Slist@PAVClause@@@@QAE@XZ 0043b8f0 f i debuggersd:livingstone_debug.obj
 0001:0003a930       ??0?$Array@V?$Slist@PAVAssignment@@@@$00@@QAE@XZ 0043b930 f i debuggersd:livingstone_debug.obj
 0001:0003a980       ??1?$Array@V?$Slist@PAVAssignment@@@@$00@@QAE@XZ 0043b980 f i debuggersd:livingstone_debug.obj
 0001:0003a9e0       ??0?$Slist@PAVT_system_listener@@@@QAE@XZ 0043b9e0 f i debuggersd:livingstone_debug.obj
 0001:0003aa20       ??1?$Slist@PAVT_system_listener@@@@QAE@XZ 0043ba20 f i debuggersd:livingstone_debug.obj
 0001:0003aa60       ??1?$Hash_table@IUckpt_descriptor@Tracker_debug@@@@QAE@XZ 0043ba60 f i debuggersd:livingstone_debug.obj
 0001:0003aab0       ??1?$Hash_table@VMBA_string@@Uckpt_descriptor@Tracker_debug@@@@QAE@XZ 0043bab0 f i debuggersd:livingstone_debug.obj
 0001:0003ab00       ?widen@?$basic_ios@DU?$char_traits@D@std@@@std@@QBEDD@Z 0043bb00 f i debuggersd:livingstone_debug.obj
 0001:0003aba0       ?widen@?$ctype@D@std@@QBEDD@Z 0043bba0 f i debuggersd:livingstone_debug.obj
 0001:0003abd0       ?getline@?$basic_istream@DU?$char_traits@D@std@@@std@@QAEAAV12@PADHD@Z 0043bbd0 f i debuggersd:livingstone_debug.obj
 0001:0003adf0       ??0sentry@?$basic_istream@DU?$char_traits@D@std@@@std@@QAE@AAV12@_N@Z 0043bdf0 f i debuggersd:livingstone_debug.obj
 0001:0003ae40       ??Bsentry@?$basic_istream@DU?$char_traits@D@std@@@std@@QBE_NXZ 0043be40 f i debuggersd:livingstone_debug.obj
 0001:0003ae70       ?sgetc@?$basic_streambuf@DU?$char_traits@D@std@@@std@@QAEHXZ 0043be70 f i debuggersd:livingstone_debug.obj
 0001:0003aef0       ?snextc@?$basic_streambuf@DU?$char_traits@D@std@@@std@@QAEHXZ 0043bef0 f i debuggersd:livingstone_debug.obj
 0001:0003af70       ?ipfx@?$basic_istream@DU?$char_traits@D@std@@@std@@QAE_N_N@Z 0043bf70 f i debuggersd:livingstone_debug.obj
 0001:0003b1a0       ?is@?$ctype@D@std@@QBE_NFD@Z 0043c1a0 f i debuggersd:livingstone_debug.obj
 0001:0003b1f0       ?sbumpc@?$basic_streambuf@DU?$char_traits@D@std@@@std@@QAEHXZ 0043c1f0 f i debuggersd:livingstone_debug.obj
 0001:0003b270       ?do_free@?$Array@PAVClause@@$0A@@@AAEXPAPAVClause@@I@Z 0043c270 f i debuggersd:livingstone_debug.obj
 0001:0003b2d0       ?erase@?$Array@PAVProposition@@$0A@@@QAEXXZ 0043c2d0 f i debuggersd:livingstone_debug.obj
 0001:0003b330       ?erase@?$Slist@PAVVariable@@@@QAEXXZ 0043c330 f i debuggersd:livingstone_debug.obj
 0001:0003b390       ?erase@?$Slist@PAVAssignable@@@@QAEXXZ 0043c390 f i debuggersd:livingstone_debug.obj
 0001:0003b3f0       ?erase@?$Slist@PAVAssumption@@@@QAEXXZ 0043c3f0 f i debuggersd:livingstone_debug.obj
 0001:0003b450       ??0?$Slist_iterator@PAVVariable@@@@QAE@PAV?$Slist_item@PAVVariable@@@@@Z 0043c450 f i debuggersd:livingstone_debug.obj
 0001:0003b490       ?erase@?$Slist@PAVCandidate@@@@QAEXXZ 0043c490 f i debuggersd:livingstone_debug.obj
 0001:0003b4f0       ?erase@?$Slist@PAVProto_constraint@T_system@@@@QAEXXZ 0043c4f0 f i debuggersd:livingstone_debug.obj
 0001:0003b550       ?erase@?$Array@PAVVariable@@$0A@@@QAEXXZ 0043c550 f i debuggersd:livingstone_debug.obj
 0001:0003b5b0       ?erase@?$Slist@PAVClause@@@@QAEXXZ 0043c5b0 f i debuggersd:livingstone_debug.obj
 0001:0003b610       ?erase@?$Array@V?$Slist@PAVAssignment@@@@$00@@QAEXXZ 0043c610 f i debuggersd:livingstone_debug.obj
 0001:0003b670       ?erase@?$Slist@PAVT_system_listener@@@@QAEXXZ 0043c670 f i debuggersd:livingstone_debug.obj
 0001:0003b6d0       ?delete_list@?$Slist_item@PBVConflict@@@@QAEXXZ 0043c6d0 f i debuggersd:livingstone_debug.obj
 0001:0003b750       ??_G?$Slist_item@PBVConflict@@@@QAEPAXI@Z 0043c750 f i debuggersd:livingstone_debug.obj
 0001:0003b7b0       ??1?$Slist_item@PBVConflict@@@@QAE@XZ 0043c7b0 f i debuggersd:livingstone_debug.obj
 0001:0003b7f0       ?stossc@?$basic_streambuf@DU?$char_traits@D@std@@@std@@QAEXXZ 0043c7f0 f i debuggersd:livingstone_debug.obj
 0001:0003b860       ?do_free@?$Array@PAVProposition@@$0A@@@AAEXPAPAVProposition@@I@Z 0043c860 f i debuggersd:livingstone_debug.obj
 0001:0003b8c0       ?do_free@?$Array@PAVVariable@@$0A@@@AAEXPAPAVVariable@@I@Z 0043c8c0 f i debuggersd:livingstone_debug.obj
 0001:0003b920       ?do_free@?$Array@V?$Slist@PAVAssignment@@@@$00@@AAEXPAV?$Slist@PAVAssignment@@@@I@Z 0043c920 f i debuggersd:livingstone_debug.obj
 0001:0003b980       ?delete_list@?$Slist_item@PAVAssignable@@@@QAEXXZ 0043c980 f i debuggersd:livingstone_debug.obj
 0001:0003ba00       ?delete_list@?$Slist_item@PAVAssumption@@@@QAEXXZ 0043ca00 f i debuggersd:livingstone_debug.obj
 0001:0003ba80       ?delete_list@?$Slist_item@PAVVariable@@@@QAEXXZ 0043ca80 f i debuggersd:livingstone_debug.obj
 0001:0003bb00       ?delete_list@?$Slist_item@PAVCandidate@@@@QAEXXZ 0043cb00 f i debuggersd:livingstone_debug.obj
 0001:0003bb80       ?delete_list@?$Slist_item@PAVT_system_listener@@@@QAEXXZ 0043cb80 f i debuggersd:livingstone_debug.obj
 0001:0003bc00       ?delete_list@?$Slist_item@PAVProto_constraint@T_system@@@@QAEXXZ 0043cc00 f i debuggersd:livingstone_debug.obj
 0001:0003bc80       ?delete_list@?$Slist_item@PAVClause@@@@QAEXXZ 0043cc80 f i debuggersd:livingstone_debug.obj
 0001:0003bd00       ??_G?$Slist_item@PAVAssignable@@@@QAEPAXI@Z 0043cd00 f i debuggersd:livingstone_debug.obj
 0001:0003bd60       ??_G?$Slist_item@PAVAssumption@@@@QAEPAXI@Z 0043cd60 f i debuggersd:livingstone_debug.obj
 0001:0003bdc0       ??_G?$Slist_item@PAVVariable@@@@QAEPAXI@Z 0043cdc0 f i debuggersd:livingstone_debug.obj
 0001:0003be20       ??_G?$Slist_item@PAVCandidate@@@@QAEPAXI@Z 0043ce20 f i debuggersd:livingstone_debug.obj
 0001:0003be80       ??_G?$Slist_item@PAVT_system_listener@@@@QAEPAXI@Z 0043ce80 f i debuggersd:livingstone_debug.obj
 0001:0003bee0       ??_G?$Slist_item@PAVProto_constraint@T_system@@@@QAEPAXI@Z 0043cee0 f i debuggersd:livingstone_debug.obj
 0001:0003bf40       ??_G?$Slist_item@PAVClause@@@@QAEPAXI@Z 0043cf40 f i debuggersd:livingstone_debug.obj
 0001:0003bfa0       ??1?$Slist_item@PAVAssignable@@@@QAE@XZ 0043cfa0 f i debuggersd:livingstone_debug.obj
 0001:0003bfe0       ??1?$Slist_item@PAVAssumption@@@@QAE@XZ 0043cfe0 f i debuggersd:livingstone_debug.obj
 0001:0003c020       ??1?$Slist_item@PAVVariable@@@@QAE@XZ 0043d020 f i debuggersd:livingstone_debug.obj
 0001:0003c060       ??1?$Slist_item@PAVCandidate@@@@QAE@XZ 0043d060 f i debuggersd:livingstone_debug.obj
 0001:0003c0a0       ??1?$Slist_item@PAVT_system_listener@@@@QAE@XZ 0043d0a0 f i debuggersd:livingstone_debug.obj
 0001:0003c0e0       ??1?$Slist_item@PAVProto_constraint@T_system@@@@QAE@XZ 0043d0e0 f i debuggersd:livingstone_debug.obj
 0001:0003c120       ??1?$Slist_item@PAVClause@@@@QAE@XZ 0043d120 f i debuggersd:livingstone_debug.obj
 0001:0003c160       ?use_facet@std@@YAABV?$ctype@D@1@ABVlocale@1@PBV21@_N@Z 0043d160 f i debuggersd:livingstone_debug.obj
 0001:0003c2a0       ??0?$ctype@D@std@@QAE@PBF_NI@Z 0043d2a0 f i debuggersd:livingstone_debug.obj
 0001:0003c3c0       ??0ctype_base@std@@QAE@I@Z 0043d3c0 f i debuggersd:livingstone_debug.obj
 0001:0003c410       ??_Ectype_base@std@@UAEPAXI@Z 0043d410 f i debuggersd:livingstone_debug.obj
 0001:0003c410       ??_Gctype_base@std@@UAEPAXI@Z 0043d410 f i debuggersd:livingstone_debug.obj
 0001:0003c470       ??1ctype_base@std@@UAE@XZ  0043d470 f i debuggersd:livingstone_debug.obj
 0001:0003c4b0       ?_Init@?$ctype@D@std@@IAEXABV_Locinfo@2@@Z 0043d4b0 f i debuggersd:livingstone_debug.obj
 0001:0003c580       ?_Getctype@_Locinfo@std@@QBE?AU_Ctypevec@@XZ 0043d580 f i debuggersd:livingstone_debug.obj
 0001:0003c5f0       ?_Term@?$ctype@D@std@@KAXXZ 0043d5f0 f i debuggersd:livingstone_debug.obj
 0001:0003c630       ?do_tolower@?$ctype@D@std@@MBEDD@Z 0043d630 f i debuggersd:livingstone_debug.obj
 0001:0003c680       ?do_tolower@?$ctype@D@std@@MBEPBDPADPBD@Z 0043d680 f i debuggersd:livingstone_debug.obj
 0001:0003c6f0       ?do_toupper@?$ctype@D@std@@MBEDD@Z 0043d6f0 f i debuggersd:livingstone_debug.obj
 0001:0003c740       ?do_toupper@?$ctype@D@std@@MBEPBDPADPBD@Z 0043d740 f i debuggersd:livingstone_debug.obj
 0001:0003c7b0       ??_G?$ctype@D@std@@UAEPAXI@Z 0043d7b0 f i debuggersd:livingstone_debug.obj
 0001:0003c7b0       ??_E?$ctype@D@std@@UAEPAXI@Z 0043d7b0 f i debuggersd:livingstone_debug.obj
 0001:0003c810       ??1?$ctype@D@std@@UAE@XZ   0043d810 f i debuggersd:livingstone_debug.obj
 0001:0003c870       ?find@?$Hash_table@VMBA_string@@V1@@@QAE?AV?$Hash_table_iterator@VMBA_string@@V1@@@ABVMBA_string@@@Z 0043d870 f i debuggersd:livingstone_debug.obj
 0001:0003c9d0       ?L2_free_array@@YAXPAV?$Slist@U?$MBApair@$$CBI$$CBUckpt_descriptor@Tracker_debug@@@@@@I@Z 0043d9d0 f i debuggersd:livingstone_debug.obj
 0001:0003ca80       ?L2_free_array@@YAXPAV?$Slist@U?$MBApair@$$CBVMBA_string@@$$CBUckpt_descriptor@Tracker_debug@@@@@@I@Z 0043da80 f i debuggersd:livingstone_debug.obj
 0001:0003cb30       ?L2_free_array@@YAXPAPAVClause@@I@Z 0043db30 f i debuggersd:livingstone_debug.obj
 0001:0003cba0       ?L2_free_array_no_dtor@@YAXPAPAVClause@@I@Z 0043dba0 f i debuggersd:livingstone_debug.obj
 0001:0003cbe0       ?L2_free_array@@YAXPAPAVProposition@@I@Z 0043dbe0 f i debuggersd:livingstone_debug.obj
 0001:0003cc50       ?L2_free_array_no_dtor@@YAXPAPAVProposition@@I@Z 0043dc50 f i debuggersd:livingstone_debug.obj
 0001:0003cc90       ?L2_free_array@@YAXPAPAVVariable@@I@Z 0043dc90 f i debuggersd:livingstone_debug.obj
 0001:0003cd00       ?L2_free_array_no_dtor@@YAXPAPAVVariable@@I@Z 0043dd00 f i debuggersd:livingstone_debug.obj
 0001:0003cd40       ?L2_free_array@@YAXPAV?$Slist@PAVAssignment@@@@I@Z 0043dd40 f i debuggersd:livingstone_debug.obj
 0001:0003cdf0       ??1?$Slist@PAVAssignment@@@@QAE@XZ 0043ddf0 f i debuggersd:livingstone_debug.obj
 0001:0003ce30       ?erase@?$Slist@PAVAssignment@@@@QAEXXZ 0043de30 f i debuggersd:livingstone_debug.obj
 0001:0003ce90       ?delete_list@?$Slist_item@PAVAssignment@@@@QAEXXZ 0043de90 f i debuggersd:livingstone_debug.obj
 0001:0003cf10       ??_G?$Slist_item@PAVAssignment@@@@QAEPAXI@Z 0043df10 f i debuggersd:livingstone_debug.obj
 0001:0003cf70       ??1?$Slist_item@PAVAssignment@@@@QAE@XZ 0043df70 f i debuggersd:livingstone_debug.obj
 0001:0003cfb0       ??0?$Slist@PAVAssignment@@@@QAE@ABV0@@Z 0043dfb0 f i debuggersd:livingstone_debug.obj
 0001:0003d0b0       ?L2_free_array_no_dtor@@YAXPAV?$Slist@PAVAssignment@@@@I@Z 0043e0b0 f i debuggersd:livingstone_debug.obj
 0001:0003d0f0       ??_G?$Slist@U?$MBApair@$$CBI$$CBUckpt_descriptor@Tracker_debug@@@@@@QAEPAXI@Z 0043e0f0 f i debuggersd:livingstone_debug.obj
 0001:0003d150       ??_G?$Slist@U?$MBApair@$$CBVMBA_string@@$$CBUckpt_descriptor@Tracker_debug@@@@@@QAEPAXI@Z 0043e150 f i debuggersd:livingstone_debug.obj
 0001:0003d1b0       ??_G?$Slist@PAVAssignment@@@@QAEPAXI@Z 0043e1b0 f i debuggersd:livingstone_debug.obj
 0001:0003d210       ??0?$Slist_item@PAVAssignment@@@@QAE@ABQAVAssignment@@@Z 0043e210 f i debuggersd:livingstone_debug.obj
 0001:0003d260       ?_Save@?$_Tidyfac@V?$ctype@D@std@@@std@@SAPAV?$ctype@D@2@PAV32@@Z 0043e260 f i debuggersd:livingstone_debug.obj
 0001:0003d2f0       ??1?$Slist@U?$MBApair@$$CBI$$CBUckpt_descriptor@Tracker_debug@@@@@@QAE@XZ 0043e2f0 f i debuggersd:livingstone_debug.obj
 0001:0003d330       ??1?$Slist@U?$MBApair@$$CBVMBA_string@@$$CBUckpt_descriptor@Tracker_debug@@@@@@QAE@XZ 0043e330 f i debuggersd:livingstone_debug.obj
 0001:0003d370       ?_Tidy@?$_Tidyfac@V?$ctype@D@std@@@std@@SAXXZ 0043e370 f i debuggersd:livingstone_debug.obj
 0001:0003d420       ?erase@?$Slist@U?$MBApair@$$CBI$$CBUckpt_descriptor@Tracker_debug@@@@@@QAEXXZ 0043e420 f i debuggersd:livingstone_debug.obj
 0001:0003d480       ?erase@?$Slist@U?$MBApair@$$CBVMBA_string@@$$CBUckpt_descriptor@Tracker_debug@@@@@@QAEXXZ 0043e480 f i debuggersd:livingstone_debug.obj
 0001:0003d4e0       ?delete_list@?$Slist_item@U?$MBApair@$$CBI$$CBUckpt_descriptor@Tracker_debug@@@@@@QAEXXZ 0043e4e0 f i debuggersd:livingstone_debug.obj
 0001:0003d560       ?delete_list@?$Slist_item@U?$MBApair@$$CBVMBA_string@@$$CBUckpt_descriptor@Tracker_debug@@@@@@QAEXXZ 0043e560 f i debuggersd:livingstone_debug.obj
 0001:0003d5e0       ??_G?$Slist_item@U?$MBApair@$$CBI$$CBUckpt_descriptor@Tracker_debug@@@@@@QAEPAXI@Z 0043e5e0 f i debuggersd:livingstone_debug.obj
 0001:0003d640       ??_G?$Slist_item@U?$MBApair@$$CBVMBA_string@@$$CBUckpt_descriptor@Tracker_debug@@@@@@QAEPAXI@Z 0043e640 f i debuggersd:livingstone_debug.obj
 0001:0003d6a0       ??1?$Slist_item@U?$MBApair@$$CBI$$CBUckpt_descriptor@Tracker_debug@@@@@@QAE@XZ 0043e6a0 f i debuggersd:livingstone_debug.obj
 0001:0003d710       ??1?$Slist_item@U?$MBApair@$$CBVMBA_string@@$$CBUckpt_descriptor@Tracker_debug@@@@@@QAE@XZ 0043e710 f i debuggersd:livingstone_debug.obj
 0001:0003d780       ??1?$MBApair@$$CBI$$CBUckpt_descriptor@Tracker_debug@@@@QAE@XZ 0043e780 f i debuggersd:livingstone_debug.obj
 0001:0003d7c0       ??1ckpt_descriptor@Tracker_debug@@QAE@XZ 0043e7c0 f i debuggersd:livingstone_debug.obj
 0001:0003d800       ??1?$MBApair@$$CBVMBA_string@@$$CBUckpt_descriptor@Tracker_debug@@@@QAE@XZ 0043e800 f i debuggersd:livingstone_debug.obj
 0001:0003d870       ??0?$Slist@U?$MBApair@$$CBI$$CBUckpt_descriptor@Tracker_debug@@@@@@QAE@ABV0@@Z 0043e870 f i debuggersd:livingstone_debug.obj
 0001:0003d970       ?L2_free_array_no_dtor@@YAXPAV?$Slist@U?$MBApair@$$CBI$$CBUckpt_descriptor@Tracker_debug@@@@@@I@Z 0043e970 f i debuggersd:livingstone_debug.obj
 0001:0003d9b0       ??0?$Slist@U?$MBApair@$$CBVMBA_string@@$$CBUckpt_descriptor@Tracker_debug@@@@@@QAE@ABV0@@Z 0043e9b0 f i debuggersd:livingstone_debug.obj
 0001:0003dab0       ?L2_free_array_no_dtor@@YAXPAV?$Slist@U?$MBApair@$$CBVMBA_string@@$$CBUckpt_descriptor@Tracker_debug@@@@@@I@Z 0043eab0 f i debuggersd:livingstone_debug.obj
 0001:0003dbb0       ??0?$Slist_item@U?$MBApair@$$CBI$$CBUckpt_descriptor@Tracker_debug@@@@@@QAE@ABU?$MBApair@$$CBI$$CBUckpt_descriptor@Tracker_debug@@@@@Z 0043ebb0 f i debuggersd:livingstone_debug.obj
 0001:0003dc30       ??0?$Slist_item@U?$MBApair@$$CBVMBA_string@@$$CBUckpt_descriptor@Tracker_debug@@@@@@QAE@ABU?$MBApair@$$CBVMBA_string@@$$CBUckpt_descriptor@Tracker_debug@@@@@Z 0043ec30 f i debuggersd:livingstone_debug.obj
 0001:0003dcb0       ??0?$MBApair@$$CBI$$CBUckpt_descriptor@Tracker_debug@@@@QAE@ABU0@@Z 0043ecb0 f i debuggersd:livingstone_debug.obj
 0001:0003dd00       ??0?$MBApair@$$CBVMBA_string@@$$CBUckpt_descriptor@Tracker_debug@@@@QAE@ABU0@@Z 0043ed00 f i debuggersd:livingstone_debug.obj
 0001:0003dd80       ??0ckpt_descriptor@Tracker_debug@@QAE@ABU01@@Z 0043ed80 f i debuggersd:livingstone_debug.obj
 0001:0003dfe0       ??0L2_string_map@@QAE@XZ   0043efe0 f   debuggersd:L2_string_map.obj
 0001:0003e140       ??_EL2_string_map@@UAEPAXI@Z 0043f140 f i debuggersd:L2_string_map.obj
 0001:0003e140       ??_GL2_string_map@@UAEPAXI@Z 0043f140 f i debuggersd:L2_string_map.obj
 0001:0003e1a0       ??1L2_string_map@@UAE@XZ   0043f1a0 f   debuggersd:L2_string_map.obj
 0001:0003e370       ?begin_domains@L2_string_map@@QBE?AV?$Slist_iterator@PBVDomain@@@@XZ 0043f370 f i debuggersd:L2_string_map.obj
 0001:0003e3c0       ?end_domains@L2_string_map@@QBE?AV?$Slist_iterator@PBVDomain@@@@XZ 0043f3c0 f i debuggersd:L2_string_map.obj
 0001:0003e410       ?get_variable_name@L2_string_map@@QBE?AVMBA_string@@ABVVariable@@@Z 0043f410 f   debuggersd:L2_string_map.obj
 0001:0003e5c0       ?get_id@Variable@@QBEIXZ   0043f5c0 f i debuggersd:L2_string_map.obj
 0001:0003e5f0       ?get_time_step@Variable@@QBEIXZ 0043f5f0 f i debuggersd:L2_string_map.obj
 0001:0003e620       ?get_variable_name@L2_string_map@@QBE?AVMBA_string@@ABVVariable@@I@Z 0043f620 f   debuggersd:L2_string_map.obj
 0001:0003e7c0       ?get_variable_by_name@L2_string_map@@QAEAAVVariable@@ABVMBA_string@@@Z 0043f7c0 f   debuggersd:L2_string_map.obj
 0001:0003e880       ?has_variable_named@L2_string_map@@QAE_NABVMBA_string@@@Z 0043f880 f   debuggersd:L2_string_map.obj
 0001:0003e8d0       ?get_var_or_null@L2_string_map@@QAEPAVVariable@@ABVMBA_string@@@Z 0043f8d0 f   debuggersd:L2_string_map.obj
 0001:0003eba0       ?get_previous@Variable@@QBEPAV1@XZ 0043fba0 f i debuggersd:L2_string_map.obj
 0001:0003ebd0       ?get_zenith@Transitioned@@QAEPAVTransition@@XZ 0043fbd0 f i debuggersd:L2_string_map.obj
 0001:0003ec00       ?get_model_variable@L2_string_map@@QBEPBVL2rVariable@@ABVVariable@@@Z 0043fc00 f   debuggersd:L2_string_map.obj
 0001:0003ec70       ?get_variable_values@L2_string_map@@QBEPBVMBA_string@@PBVL2rVariable@@@Z 0043fc70 f   debuggersd:L2_string_map.obj
 0001:0003ecc0       ?get_values@Domain@@QBEPBVMBA_string@@XZ 0043fcc0 f i debuggersd:L2_string_map.obj
 0001:0003ecf0       ?get_variable_values@L2_string_map@@QBEPBVMBA_string@@ABVVariable@@@Z 0043fcf0 f   debuggersd:L2_string_map.obj
 0001:0003ed40       ?get_variable_domain@L2_string_map@@QBEPBVDomain@@PBVL2rVariable@@@Z 0043fd40 f   debuggersd:L2_string_map.obj
 0001:0003ed90       ?get_variable_domain@L2_string_map@@QBEPBVDomain@@ABVVariable@@@Z 0043fd90 f   debuggersd:L2_string_map.obj
 0001:0003ee30       ?get_now_variable@L2_string_map@@QAEAAVVariable@@PBVL2rVariable@@@Z 0043fe30 f   debuggersd:L2_string_map.obj
 0001:0003ee80       ?create_domains@L2_string_map@@QAEXABVL2_file@@@Z 0043fe80 f   debuggersd:L2_string_map.obj
 0001:0003f0c0       ?add_variable@L2_string_map@@QAEXPBVL2rVariable@@AAVVariable@@@Z 004400c0 f   debuggersd:L2_string_map.obj
 0001:0003f240       ?add_variable@L2_string_map@@QAEXAAVVariable@@@Z 00440240 f   debuggersd:L2_string_map.obj
 0001:0003f300       ?get_nvalues@Variable@@QBEIXZ 00440300 f i debuggersd:L2_string_map.obj
 0001:0003f340       ?remove_variable@L2_string_map@@QAEXABVVariable@@@Z 00440340 f   debuggersd:L2_string_map.obj
 0001:0003f420       ?form_name_at_time@L2_string_map@@SA?AVMBA_string@@ABV2@I@Z 00440420 f   debuggersd:L2_string_map.obj
 0001:0003f510       ?get_assignment_of_prop@L2_string_map@@QAE?AU?$MBApair@PAVVariable@@I@@PAVProposition@@@Z 00440510 f   debuggersd:L2_string_map.obj
 0001:0003f5d0       ?get_name_of_prop@L2_string_map@@QAE?AVMBA_string@@PAVProposition@@@Z 004405d0 f   debuggersd:L2_string_map.obj
 0001:0003f6e0       ?get_prop_by_name@L2_string_map@@QAEPAVProposition@@ABVMBA_string@@@Z 004406e0 f   debuggersd:L2_string_map.obj
 0001:0003f920       ?remove_prop@L2_string_map@@QAEXPAVProposition@@@Z 00440920 f   debuggersd:L2_string_map.obj
 0001:0003f960       ?revise_state_domain@L2_string_map@@QAEXI@Z 00440960 f   debuggersd:L2_string_map.obj
 0001:0003fa80       ?size@Domain@@QBEIXZ       00440a80 f i debuggersd:L2_string_map.obj
 0001:0003fab0       ?size@?$Array@PAVProposition@@$0A@@@QBEIXZ 00440ab0 f i debuggersd:L2_string_map.obj
 0001:0003fae0       ??0?$Hash_table@VMBA_string@@I@@QAE@P6AIABVMBA_string@@@Z@Z 00440ae0 f i debuggersd:L2_string_map.obj
 0001:0003fb50       ??1?$Hash_table@VMBA_string@@I@@QAE@XZ 00440b50 f i debuggersd:L2_string_map.obj
 0001:0003fba0       ??A?$Array@VMBA_string@@$00@@QBEABVMBA_string@@I@Z 00440ba0 f i debuggersd:L2_string_map.obj
 0001:0003fc00       ??A?$Array@VMBA_string@@$00@@QAEAAVMBA_string@@I@Z 00440c00 f i debuggersd:L2_string_map.obj
 0001:0003fc60       ??A?$Array@PAVVariable@@$0A@@@QAEAAPAVVariable@@I@Z 00440c60 f i debuggersd:L2_string_map.obj
 0001:0003fcc0       ?size@?$Array@PAVVariable@@$0A@@@QBEIXZ 00440cc0 f i debuggersd:L2_string_map.obj
 0001:0003fcf0       ?grow_and_set@?$Array@PAVVariable@@$0A@@@QAEXIPAVVariable@@@Z 00440cf0 f i debuggersd:L2_string_map.obj
 0001:0003fd60       ??0?$Array@PBVL2rVariable@@$0A@@@QAE@XZ 00440d60 f i debuggersd:L2_string_map.obj
 0001:0003fdb0       ??1?$Array@PBVL2rVariable@@$0A@@@QAE@XZ 00440db0 f i debuggersd:L2_string_map.obj
 0001:0003fe10       ??A?$Array@PBVL2rVariable@@$0A@@@QBEABQBVL2rVariable@@I@Z 00440e10 f i debuggersd:L2_string_map.obj
 0001:0003fe70       ??A?$Array@PBVL2rVariable@@$0A@@@QAEAAPBVL2rVariable@@I@Z 00440e70 f i debuggersd:L2_string_map.obj
 0001:0003fed0       ?grow_and_set@?$Array@PBVL2rVariable@@$0A@@@QAEXIPBVL2rVariable@@@Z 00440ed0 f i debuggersd:L2_string_map.obj
 0001:0003ff40       ??0?$Slist@PBVDomain@@@@QAE@XZ 00440f40 f i debuggersd:L2_string_map.obj
 0001:0003ff80       ??1?$Slist@PBVDomain@@@@QAE@XZ 00440f80 f i debuggersd:L2_string_map.obj
 0001:0003ffc0       ?push_front@?$Slist@PBVDomain@@@@QAEXABQBVDomain@@@Z 00440fc0 f i debuggersd:L2_string_map.obj
 0001:00040040       ?begin@?$Slist@PBVDomain@@@@QAE?AV?$Slist_iterator@PBVDomain@@@@XZ 00441040 f i debuggersd:L2_string_map.obj
 0001:00040090       ?end@?$Slist@PBVDomain@@@@QAE?AV?$Slist_iterator@PBVDomain@@@@XZ 00441090 f i debuggersd:L2_string_map.obj
 0001:000400e0       ??0?$Hash_table@PAVProposition@@U?$MBApair@PAVVariable@@I@@@@QAE@P6AIABQAVProposition@@@Z@Z 004410e0 f i debuggersd:L2_string_map.obj
 0001:00040150       ??1?$Hash_table@PAVProposition@@U?$MBApair@PAVVariable@@I@@@@QAE@XZ 00441150 f i debuggersd:L2_string_map.obj
 0001:000401a0       ??E?$Slist_iterator@PBVDomain@@@@QAEAAV0@XZ 004411a0 f i debuggersd:L2_string_map.obj
 0001:000401f0       ??D?$Slist_iterator@PBVDomain@@@@QAEAAPBVDomain@@XZ 004411f0 f i debuggersd:L2_string_map.obj
 0001:00040240       ??9?$Slist_iterator@PBVDomain@@@@QBE_NABV0@@Z 00441240 f i debuggersd:L2_string_map.obj
 0001:00040280       ??0?$MBApair@PAVVariable@@I@@QAE@ABQAVVariable@@ABI@Z 00441280 f i debuggersd:L2_string_map.obj
 0001:000402c0       ??D?$Hash_table_iterator@VMBA_string@@I@@QAEABIXZ 004412c0 f i debuggersd:L2_string_map.obj
 0001:00040300       ??8?$Hash_table_iterator@VMBA_string@@I@@QBE_NABV0@@Z 00441300 f i debuggersd:L2_string_map.obj
 0001:00040380       ??0?$Hash_table@PBVL2rEnumeration@@PBVDomain@@@@QAE@P6AIABQBVL2rEnumeration@@@Z@Z 00441380 f i debuggersd:L2_string_map.obj
 0001:000403f0       ??1?$Hash_table@PBVL2rEnumeration@@PBVDomain@@@@QAE@XZ 004413f0 f i debuggersd:L2_string_map.obj
 0001:00040440       ??D?$Hash_table_iterator@PBVL2rEnumeration@@PBVDomain@@@@QAEABQBVDomain@@XZ 00441440 f i debuggersd:L2_string_map.obj
 0001:00040480       ?ensure@?$Array@PAVVariable@@$0A@@@AAEXI@Z 00441480 f i debuggersd:L2_string_map.obj
 0001:00040550       ?erase@?$Array@PBVL2rVariable@@$0A@@@QAEXXZ 00441550 f i debuggersd:L2_string_map.obj
 0001:000405b0       ?size@?$Array@PBVL2rVariable@@$0A@@@QBEIXZ 004415b0 f i debuggersd:L2_string_map.obj
 0001:000405e0       ?ensure@?$Array@PBVL2rVariable@@$0A@@@AAEXI@Z 004415e0 f i debuggersd:L2_string_map.obj
 0001:000406b0       ?erase@?$Slist@PBVDomain@@@@QAEXXZ 004416b0 f i debuggersd:L2_string_map.obj
 0001:00040710       ??0?$Slist_iterator@PBVDomain@@@@QAE@PAV?$Slist_item@PBVDomain@@@@@Z 00441710 f i debuggersd:L2_string_map.obj
 0001:00040750       ??D?$Slist_iterator@U?$MBApair@$$CBVMBA_string@@$$CBI@@@@QAEAAU?$MBApair@$$CBVMBA_string@@$$CBI@@XZ 00441750 f i debuggersd:L2_string_map.obj
 0001:000407a0       ??8?$Slist_iterator@U?$MBApair@$$CBVMBA_string@@$$CBI@@@@QBE_NABV0@@Z 004417a0 f i debuggersd:L2_string_map.obj
 0001:000407e0       ??D?$Slist_iterator@U?$MBApair@QBVL2rEnumeration@@QBVDomain@@@@@@QAEAAU?$MBApair@QBVL2rEnumeration@@QBVDomain@@@@XZ 004417e0 f i debuggersd:L2_string_map.obj
 0001:00040830       ??0?$Slist_item@PBVDomain@@@@QAE@ABQBVDomain@@PAV0@@Z 00441830 f i debuggersd:L2_string_map.obj
 0001:00040880       ?do_allocate@?$Array@PAVVariable@@$0A@@@AAEPAPAVVariable@@I@Z 00441880 f i debuggersd:L2_string_map.obj
 0001:000408f0       ?do_allocate@?$Array@PBVL2rVariable@@$0A@@@AAEPAPBVL2rVariable@@I@Z 004418f0 f i debuggersd:L2_string_map.obj
 0001:00040960       ?do_free@?$Array@PBVL2rVariable@@$0A@@@AAEXPAPBVL2rVariable@@I@Z 00441960 f i debuggersd:L2_string_map.obj
 0001:000409c0       ?delete_list@?$Slist_item@PBVDomain@@@@QAEXXZ 004419c0 f i debuggersd:L2_string_map.obj
 0001:00040a40       ??_G?$Slist_item@PBVDomain@@@@QAEPAXI@Z 00441a40 f i debuggersd:L2_string_map.obj
 0001:00040aa0       ??1?$Slist_item@PBVDomain@@@@QAE@XZ 00441aa0 f i debuggersd:L2_string_map.obj
 0001:00040ae0       ?erase@?$Hash_table@VMBA_string@@I@@QAEJABVMBA_string@@@Z 00441ae0 f i debuggersd:L2_string_map.obj
 0001:00040b70       ?find@?$Hash_table@VMBA_string@@I@@QAE?AV?$Hash_table_iterator@VMBA_string@@I@@ABVMBA_string@@@Z 00441b70 f i debuggersd:L2_string_map.obj
 0001:00040cd0       ?insert@?$Hash_table@VMBA_string@@I@@QAE?AU?$MBApair@V?$Hash_table_iterator@VMBA_string@@I@@_N@@ABVMBA_string@@ABI@Z 00441cd0 f i debuggersd:L2_string_map.obj
 0001:00040ea0       ?end@?$Hash_table@VMBA_string@@I@@QAE?AV?$Hash_table_iterator@VMBA_string@@I@@XZ 00441ea0 f i debuggersd:L2_string_map.obj
 0001:00040f30       ?erase@?$Hash_table@PAVProposition@@U?$MBApair@PAVVariable@@I@@@@QAEJABQAVProposition@@@Z 00441f30 f i debuggersd:L2_string_map.obj
 0001:00040fc0       ?insert_duplicate@?$Hash_table@PAVProposition@@U?$MBApair@PAVVariable@@I@@@@QAE?AV?$Hash_table_iterator@PAVProposition@@U?$MBApair@PAVVariable@@I@@@@ABQAVProposition@@ABU?$MBApair@PAVVariable@@I@@@Z 00441fc0 f i debuggersd:L2_string_map.obj
 0001:00041080       ?hash_integral_key@@YAIABQAVProposition@@@Z 00442080 f i debuggersd:L2_string_map.obj
 0001:000410b0       ?L2_free_array@@YAXPAPBVDomain@@I@Z 004420b0 f i debuggersd:L2_string_map.obj
 0001:00041120       ?L2_initialize_array@@YAPAPBVDomain@@PAPBV1@I@Z 00442120 f i debuggersd:L2_string_map.obj
 0001:00041180       ?find@?$Hash_table@PBVL2rEnumeration@@PBVDomain@@@@QAE?AV?$Hash_table_iterator@PBVL2rEnumeration@@PBVDomain@@@@ABQBVL2rEnumeration@@@Z 00442180 f i debuggersd:L2_string_map.obj
 0001:000412e0       ?insert@?$Hash_table@PBVL2rEnumeration@@PBVDomain@@@@QAE?AU?$MBApair@V?$Hash_table_iterator@PBVL2rEnumeration@@PBVDomain@@@@_N@@ABQBVL2rEnumeration@@ABQBVDomain@@@Z 004422e0 f i debuggersd:L2_string_map.obj
 0001:00041450       ?get_element_for_key@@YA?AU?$MBApair@PAVVariable@@I@@QAVProposition@@AAV?$Hash_table@PAVProposition@@U?$MBApair@PAVVariable@@I@@@@ABVMBA_string@@2@Z 00442450 f i debuggersd:L2_string_map.obj
 0001:000415d0       ?L2_initialize_array@@YAPAV?$Slist@U?$MBApair@$$CBVMBA_string@@$$CBI@@@@PAV1@I@Z 004425d0 f i debuggersd:L2_string_map.obj
 0001:00041680       ?L2_free_array@@YAXPAV?$Slist@U?$MBApair@$$CBVMBA_string@@$$CBI@@@@I@Z 00442680 f i debuggersd:L2_string_map.obj
 0001:00041730       ?L2_initialize_array@@YAPAV?$Slist@U?$MBApair@QAVProposition@@$$CBU?$MBApair@PAVVariable@@I@@@@@@PAV1@I@Z 00442730 f i debuggersd:L2_string_map.obj
 0001:000417e0       ?L2_free_array@@YAXPAV?$Slist@U?$MBApair@QAVProposition@@$$CBU?$MBApair@PAVVariable@@I@@@@@@I@Z 004427e0 f i debuggersd:L2_string_map.obj
 0001:00041890       ?L2_initialize_array@@YAPAV?$Slist@U?$MBApair@QBVL2rEnumeration@@QBVDomain@@@@@@PAV1@I@Z 00442890 f i debuggersd:L2_string_map.obj
 0001:00041940       ?L2_free_array@@YAXPAV?$Slist@U?$MBApair@QBVL2rEnumeration@@QBVDomain@@@@@@I@Z 00442940 f i debuggersd:L2_string_map.obj
 0001:000419f0       ?L2_initialize_array@@YAPAPAVVariable@@PAPAV1@I@Z 004429f0 f i debuggersd:L2_string_map.obj
 0001:00041a50       ?L2_initialize_array@@YAPAPBVL2rVariable@@PAPBV1@I@Z 00442a50 f i debuggersd:L2_string_map.obj
 0001:00041ab0       ?L2_free_array@@YAXPAPBVL2rVariable@@I@Z 00442ab0 f i debuggersd:L2_string_map.obj
 0001:00041b20       ?L2_free_array_no_dtor@@YAXPAPBVL2rVariable@@I@Z 00442b20 f i debuggersd:L2_string_map.obj
 0001:00041b60       ??1?$MBApair@$$CBVMBA_string@@$$CBI@@QAE@XZ 00442b60 f i debuggersd:L2_string_map.obj
 0001:00041ba0       ??_G?$Slist@U?$MBApair@$$CBVMBA_string@@$$CBI@@@@QAEPAXI@Z 00442ba0 f i debuggersd:L2_string_map.obj
 0001:00041c00       ??_G?$Slist@U?$MBApair@QAVProposition@@$$CBU?$MBApair@PAVVariable@@I@@@@@@QAEPAXI@Z 00442c00 f i debuggersd:L2_string_map.obj
 0001:00041c60       ??_G?$Slist@U?$MBApair@QBVL2rEnumeration@@QBVDomain@@@@@@QAEPAXI@Z 00442c60 f i debuggersd:L2_string_map.obj
 0001:00041cc0       ?size@?$Hash_table@PAVProposition@@U?$MBApair@PAVVariable@@I@@@@QBEJXZ 00442cc0 f i debuggersd:L2_string_map.obj
 0001:00041d30       ??9?$Hash_table_iterator@VMBA_string@@I@@QBE_NABV0@@Z 00442d30 f i debuggersd:L2_string_map.obj
 0001:00041d80       ??0?$Hash_table_iterator@VMBA_string@@I@@AAE@AAV?$Hash_table@VMBA_string@@I@@IV?$Slist_iterator@U?$MBApair@$$CBVMBA_string@@$$CBI@@@@@Z 00442d80 f i debuggersd:L2_string_map.obj
 0001:00041dd0       ?erase@?$Hash_table_iterator@VMBA_string@@I@@AAEXXZ 00442dd0 f i debuggersd:L2_string_map.obj
 0001:00041e50       ??E?$Slist_iterator@U?$MBApair@$$CBVMBA_string@@$$CBI@@@@QAEAAV0@XZ 00442e50 f i debuggersd:L2_string_map.obj
 0001:00041ea0       ??9?$Slist_iterator@U?$MBApair@$$CBVMBA_string@@$$CBI@@@@QBE_NABV0@@Z 00442ea0 f i debuggersd:L2_string_map.obj
 0001:00041ee0       ??0?$MBApair@V?$Hash_table_iterator@PBVL2rEnumeration@@PBVDomain@@@@_N@@QAE@ABV?$Hash_table_iterator@PBVL2rEnumeration@@PBVDomain@@@@AB_N@Z 00442ee0 f i debuggersd:L2_string_map.obj
 0001:00041f30       ??0?$Hash_table_iterator@PBVL2rEnumeration@@PBVDomain@@@@AAE@AAV?$Hash_table@PBVL2rEnumeration@@PBVDomain@@@@IV?$Slist_iterator@U?$MBApair@QBVL2rEnumeration@@QBVDomain@@@@@@@Z 00442f30 f i debuggersd:L2_string_map.obj
 0001:00041f80       ??E?$Slist_iterator@U?$MBApair@QBVL2rEnumeration@@QBVDomain@@@@@@QAEAAV0@XZ 00442f80 f i debuggersd:L2_string_map.obj
 0001:00041fd0       ??9?$Slist_iterator@U?$MBApair@QBVL2rEnumeration@@QBVDomain@@@@@@QBE_NABV0@@Z 00442fd0 f i debuggersd:L2_string_map.obj
 0001:00042010       ??0?$MBApair@V?$Hash_table_iterator@VMBA_string@@I@@_N@@QAE@ABV?$Hash_table_iterator@VMBA_string@@I@@AB_N@Z 00443010 f i debuggersd:L2_string_map.obj
 0001:00042060       ??D?$Hash_table_iterator@PAVProposition@@U?$MBApair@PAVVariable@@I@@@@QAEABU?$MBApair@PAVVariable@@I@@XZ 00443060 f i debuggersd:L2_string_map.obj
 0001:000420a0       ??8?$Hash_table_iterator@PAVProposition@@U?$MBApair@PAVVariable@@I@@@@QBE_NABV0@@Z 004430a0 f i debuggersd:L2_string_map.obj
 0001:00042120       ??9?$Hash_table_iterator@PAVProposition@@U?$MBApair@PAVVariable@@I@@@@QBE_NABV0@@Z 00443120 f i debuggersd:L2_string_map.obj
 0001:00042170       ??0?$Hash_table_iterator@PAVProposition@@U?$MBApair@PAVVariable@@I@@@@AAE@AAV?$Hash_table@PAVProposition@@U?$MBApair@PAVVariable@@I@@@@IV?$Slist_iterator@U?$MBApair@QAVProposition@@$$CBU?$MBApair@PAVVariable@@I@@@@@@@Z 00443170 f i debuggersd:L2_string_map.obj
 0001:000421c0       ?erase@?$Hash_table_iterator@PAVProposition@@U?$MBApair@PAVVariable@@I@@@@AAEXXZ 004431c0 f i debuggersd:L2_string_map.obj
 0001:00042240       ??0?$Slist@U?$MBApair@$$CBVMBA_string@@$$CBI@@@@QAE@XZ 00443240 f i debuggersd:L2_string_map.obj
 0001:00042280       ??1?$Slist@U?$MBApair@$$CBVMBA_string@@$$CBI@@@@QAE@XZ 00443280 f i debuggersd:L2_string_map.obj
 0001:000422c0       ?push_front@?$Slist@U?$MBApair@$$CBVMBA_string@@$$CBI@@@@QAEXABU?$MBApair@$$CBVMBA_string@@$$CBI@@@Z 004432c0 f i debuggersd:L2_string_map.obj
 0001:00042340       ?begin@?$Slist@U?$MBApair@$$CBVMBA_string@@$$CBI@@@@QAE?AV?$Slist_iterator@U?$MBApair@$$CBVMBA_string@@$$CBI@@@@XZ 00443340 f i debuggersd:L2_string_map.obj
 0001:00042390       ?end@?$Slist@U?$MBApair@$$CBVMBA_string@@$$CBI@@@@QAE?AV?$Slist_iterator@U?$MBApair@$$CBVMBA_string@@$$CBI@@@@XZ 00443390 f i debuggersd:L2_string_map.obj
 0001:000423e0       ??0?$Slist@U?$MBApair@QAVProposition@@$$CBU?$MBApair@PAVVariable@@I@@@@@@QAE@XZ 004433e0 f i debuggersd:L2_string_map.obj
 0001:00042420       ??1?$Slist@U?$MBApair@QAVProposition@@$$CBU?$MBApair@PAVVariable@@I@@@@@@QAE@XZ 00443420 f i debuggersd:L2_string_map.obj
 0001:00042460       ?push_front@?$Slist@U?$MBApair@QAVProposition@@$$CBU?$MBApair@PAVVariable@@I@@@@@@QAEXABU?$MBApair@QAVProposition@@$$CBU?$MBApair@PAVVariable@@I@@@@@Z 00443460 f i debuggersd:L2_string_map.obj
 0001:000424e0       ?begin@?$Slist@U?$MBApair@QAVProposition@@$$CBU?$MBApair@PAVVariable@@I@@@@@@QAE?AV?$Slist_iterator@U?$MBApair@QAVProposition@@$$CBU?$MBApair@PAVVariable@@I@@@@@@XZ 004434e0 f i debuggersd:L2_string_map.obj
 0001:00042530       ??0?$MBApair@$$CBVMBA_string@@$$CBI@@QAE@ABVMBA_string@@ABI@Z 00443530 f i debuggersd:L2_string_map.obj
 0001:00042580       ??0?$Slist@U?$MBApair@QBVL2rEnumeration@@QBVDomain@@@@@@QAE@XZ 00443580 f i debuggersd:L2_string_map.obj
 0001:000425c0       ??1?$Slist@U?$MBApair@QBVL2rEnumeration@@QBVDomain@@@@@@QAE@XZ 004435c0 f i debuggersd:L2_string_map.obj
 0001:00042600       ?push_front@?$Slist@U?$MBApair@QBVL2rEnumeration@@QBVDomain@@@@@@QAEXABU?$MBApair@QBVL2rEnumeration@@QBVDomain@@@@@Z 00443600 f i debuggersd:L2_string_map.obj
 0001:00042680       ?begin@?$Slist@U?$MBApair@QBVL2rEnumeration@@QBVDomain@@@@@@QAE?AV?$Slist_iterator@U?$MBApair@QBVL2rEnumeration@@QBVDomain@@@@@@XZ 00443680 f i debuggersd:L2_string_map.obj
 0001:000426d0       ?end@?$Slist@U?$MBApair@QBVL2rEnumeration@@QBVDomain@@@@@@QAE?AV?$Slist_iterator@U?$MBApair@QBVL2rEnumeration@@QBVDomain@@@@@@XZ 004436d0 f i debuggersd:L2_string_map.obj
 0001:00042720       ??0?$MBApair@QBVL2rEnumeration@@QBVDomain@@@@QAE@ABQBVL2rEnumeration@@ABQBVDomain@@@Z 00443720 f i debuggersd:L2_string_map.obj
 0001:00042760       ??0?$MBApair@QAVProposition@@$$CBU?$MBApair@PAVVariable@@I@@@@QAE@ABQAVProposition@@ABU?$MBApair@PAVVariable@@I@@@Z 00443760 f i debuggersd:L2_string_map.obj
 0001:000427b0       ??0?$Slist_iterator@U?$MBApair@$$CBVMBA_string@@$$CBI@@@@QAE@PAV?$Slist_item@U?$MBApair@$$CBVMBA_string@@$$CBI@@@@@Z 004437b0 f i debuggersd:L2_string_map.obj
 0001:000427f0       ??0?$Slist_iterator@U?$MBApair@QBVL2rEnumeration@@QBVDomain@@@@@@QAE@PAV?$Slist_item@U?$MBApair@QBVL2rEnumeration@@QBVDomain@@@@@@@Z 004437f0 f i debuggersd:L2_string_map.obj
 0001:00042830       ??0?$Slist_iterator@U?$MBApair@QAVProposition@@$$CBU?$MBApair@PAVVariable@@I@@@@@@QAE@PAV?$Slist_item@U?$MBApair@QAVProposition@@$$CBU?$MBApair@PAVVariable@@I@@@@@@@Z 00443830 f i debuggersd:L2_string_map.obj
 0001:00042870       ??D?$Slist_iterator@U?$MBApair@QAVProposition@@$$CBU?$MBApair@PAVVariable@@I@@@@@@QAEAAU?$MBApair@QAVProposition@@$$CBU?$MBApair@PAVVariable@@I@@@@XZ 00443870 f i debuggersd:L2_string_map.obj
 0001:000428c0       ??8?$Slist_iterator@U?$MBApair@QAVProposition@@$$CBU?$MBApair@PAVVariable@@I@@@@@@QBE_NABV0@@Z 004438c0 f i debuggersd:L2_string_map.obj
 0001:00042900       ?erase@?$Slist@U?$MBApair@$$CBVMBA_string@@$$CBI@@@@QAEXXZ 00443900 f i debuggersd:L2_string_map.obj
 0001:00042960       ?erase@?$Slist@U?$MBApair@QAVProposition@@$$CBU?$MBApair@PAVVariable@@I@@@@@@QAEXXZ 00443960 f i debuggersd:L2_string_map.obj
 0001:000429c0       ?end@?$Slist@U?$MBApair@QAVProposition@@$$CBU?$MBApair@PAVVariable@@I@@@@@@QAE?AV?$Slist_iterator@U?$MBApair@QAVProposition@@$$CBU?$MBApair@PAVVariable@@I@@@@@@XZ 004439c0 f i debuggersd:L2_string_map.obj
 0001:00042a10       ?erase@?$Slist@U?$MBApair@QBVL2rEnumeration@@QBVDomain@@@@@@QAEXXZ 00443a10 f i debuggersd:L2_string_map.obj
 0001:00042a70       ??0?$Slist_item@U?$MBApair@$$CBVMBA_string@@$$CBI@@@@QAE@ABU?$MBApair@$$CBVMBA_string@@$$CBI@@PAV0@@Z 00443a70 f i debuggersd:L2_string_map.obj
 0001:00042af0       ??0?$Slist_item@U?$MBApair@QBVL2rEnumeration@@QBVDomain@@@@@@QAE@ABU?$MBApair@QBVL2rEnumeration@@QBVDomain@@@@PAV0@@Z 00443af0 f i debuggersd:L2_string_map.obj
 0001:00042b50       ??0?$Slist_item@U?$MBApair@QAVProposition@@$$CBU?$MBApair@PAVVariable@@I@@@@@@QAE@ABU?$MBApair@QAVProposition@@$$CBU?$MBApair@PAVVariable@@I@@@@PAV0@@Z 00443b50 f i debuggersd:L2_string_map.obj
 0001:00042bb0       ??0?$MBApair@$$CBVMBA_string@@$$CBI@@QAE@ABU0@@Z 00443bb0 f i debuggersd:L2_string_map.obj
 0001:00042c00       ?delete_list@?$Slist_item@U?$MBApair@$$CBVMBA_string@@$$CBI@@@@QAEXXZ 00443c00 f i debuggersd:L2_string_map.obj
 0001:00042c80       ?delete_list@?$Slist_item@U?$MBApair@QBVL2rEnumeration@@QBVDomain@@@@@@QAEXXZ 00443c80 f i debuggersd:L2_string_map.obj
 0001:00042d00       ?delete_list@?$Slist_item@U?$MBApair@QAVProposition@@$$CBU?$MBApair@PAVVariable@@I@@@@@@QAEXXZ 00443d00 f i debuggersd:L2_string_map.obj
 0001:00042d80       ??_G?$Slist_item@U?$MBApair@$$CBVMBA_string@@$$CBI@@@@QAEPAXI@Z 00443d80 f i debuggersd:L2_string_map.obj
 0001:00042de0       ??_G?$Slist_item@U?$MBApair@QBVL2rEnumeration@@QBVDomain@@@@@@QAEPAXI@Z 00443de0 f i debuggersd:L2_string_map.obj
 0001:00042e40       ??_G?$Slist_item@U?$MBApair@QAVProposition@@$$CBU?$MBApair@PAVVariable@@I@@@@@@QAEPAXI@Z 00443e40 f i debuggersd:L2_string_map.obj
 0001:00042ea0       ??1?$Slist_item@U?$MBApair@$$CBVMBA_string@@$$CBI@@@@QAE@XZ 00443ea0 f i debuggersd:L2_string_map.obj
 0001:00042f10       ??1?$Slist_item@U?$MBApair@QBVL2rEnumeration@@QBVDomain@@@@@@QAE@XZ 00443f10 f i debuggersd:L2_string_map.obj
 0001:00042f50       ??1?$Slist_item@U?$MBApair@QAVProposition@@$$CBU?$MBApair@PAVVariable@@I@@@@@@QAE@XZ 00443f50 f i debuggersd:L2_string_map.obj
 0001:00042f90       ??E?$Hash_table_iterator@VMBA_string@@I@@QAEAAV0@XZ 00443f90 f i debuggersd:L2_string_map.obj
 0001:000430b0       ??0?$Slist@U?$MBApair@$$CBVMBA_string@@$$CBI@@@@QAE@ABV0@@Z 004440b0 f i debuggersd:L2_string_map.obj
 0001:000431b0       ?erase@?$Slist@U?$MBApair@$$CBVMBA_string@@$$CBI@@@@QAEXAAV?$Slist_iterator@U?$MBApair@$$CBVMBA_string@@$$CBI@@@@@Z 004441b0 f i debuggersd:L2_string_map.obj
 0001:00043260       ?find@?$Hash_table@PAVProposition@@U?$MBApair@PAVVariable@@I@@@@QAE?AV?$Hash_table_iterator@PAVProposition@@U?$MBApair@PAVVariable@@I@@@@ABQAVProposition@@@Z 00444260 f i debuggersd:L2_string_map.obj
 0001:000433c0       ?end@?$Hash_table@PAVProposition@@U?$MBApair@PAVVariable@@I@@@@QAE?AV?$Hash_table_iterator@PAVProposition@@U?$MBApair@PAVVariable@@I@@@@XZ 004443c0 f i debuggersd:L2_string_map.obj
 0001:00043450       ??E?$Hash_table_iterator@PAVProposition@@U?$MBApair@PAVVariable@@I@@@@QAEAAV0@XZ 00444450 f i debuggersd:L2_string_map.obj
 0001:00043570       ??0?$Slist@U?$MBApair@QAVProposition@@$$CBU?$MBApair@PAVVariable@@I@@@@@@QAE@ABV0@@Z 00444570 f i debuggersd:L2_string_map.obj
 0001:00043670       ?size@?$Slist@U?$MBApair@QAVProposition@@$$CBU?$MBApair@PAVVariable@@I@@@@@@QBEIXZ 00444670 f i debuggersd:L2_string_map.obj
 0001:000436a0       ?erase@?$Slist@U?$MBApair@QAVProposition@@$$CBU?$MBApair@PAVVariable@@I@@@@@@QAEXAAV?$Slist_iterator@U?$MBApair@QAVProposition@@$$CBU?$MBApair@PAVVariable@@I@@@@@@@Z 004446a0 f i debuggersd:L2_string_map.obj
 0001:00043750       ?L2_free_array_no_dtor@@YAXPAPBVDomain@@I@Z 00444750 f i debuggersd:L2_string_map.obj
 0001:00043790       ??0?$Slist@U?$MBApair@QBVL2rEnumeration@@QBVDomain@@@@@@QAE@ABV0@@Z 00444790 f i debuggersd:L2_string_map.obj
 0001:00043890       ?L2_free_array_no_dtor@@YAXPAV?$Slist@U?$MBApair@$$CBVMBA_string@@$$CBI@@@@I@Z 00444890 f i debuggersd:L2_string_map.obj
 0001:000438d0       ?L2_free_array_no_dtor@@YAXPAV?$Slist@U?$MBApair@QAVProposition@@$$CBU?$MBApair@PAVVariable@@I@@@@@@I@Z 004448d0 f i debuggersd:L2_string_map.obj
 0001:00043910       ?L2_free_array_no_dtor@@YAXPAV?$Slist@U?$MBApair@QBVL2rEnumeration@@QBVDomain@@@@@@I@Z 00444910 f i debuggersd:L2_string_map.obj
 0001:00043a60       ??4?$Slist_iterator@U?$MBApair@$$CBVMBA_string@@$$CBI@@@@QAEAAV0@ABV0@@Z 00444a60 f i debuggersd:L2_string_map.obj
 0001:00043aa0       ??E?$Slist_iterator@U?$MBApair@QAVProposition@@$$CBU?$MBApair@PAVVariable@@I@@@@@@QAEAAV0@XZ 00444aa0 f i debuggersd:L2_string_map.obj
 0001:00043af0       ??9?$Slist_iterator@U?$MBApair@QAVProposition@@$$CBU?$MBApair@PAVVariable@@I@@@@@@QBE_NABV0@@Z 00444af0 f i debuggersd:L2_string_map.obj
 0001:00043b30       ??4?$Slist_iterator@U?$MBApair@QAVProposition@@$$CBU?$MBApair@PAVVariable@@I@@@@@@QAEAAV0@ABV0@@Z 00444b30 f i debuggersd:L2_string_map.obj
 0001:00043b70       ?empty@?$Slist@U?$MBApair@$$CBVMBA_string@@$$CBI@@@@QBE_NXZ 00444b70 f i debuggersd:L2_string_map.obj
 0001:00043bb0       ?empty@?$Slist@U?$MBApair@QAVProposition@@$$CBU?$MBApair@PAVVariable@@I@@@@@@QBE_NXZ 00444bb0 f i debuggersd:L2_string_map.obj
 0001:00043bf0       ??0?$Slist_item@U?$MBApair@$$CBVMBA_string@@$$CBI@@@@QAE@ABU?$MBApair@$$CBVMBA_string@@$$CBI@@@Z 00444bf0 f i debuggersd:L2_string_map.obj
 0001:00043c70       ??0?$Slist_item@U?$MBApair@QBVL2rEnumeration@@QBVDomain@@@@@@QAE@ABU?$MBApair@QBVL2rEnumeration@@QBVDomain@@@@@Z 00444c70 f i debuggersd:L2_string_map.obj
 0001:00043cd0       ??0?$Slist_item@U?$MBApair@QAVProposition@@$$CBU?$MBApair@PAVVariable@@I@@@@@@QAE@ABU?$MBApair@QAVProposition@@$$CBU?$MBApair@PAVVariable@@I@@@@@Z 00444cd0 f i debuggersd:L2_string_map.obj
 0001:00043f30       ?time_variable_iterator@T_system_debug@@QAEXIAAVVariableCallbackObject@Conflict_db_debug@@@Z 00444f30 f   debuggersd:T_system_debug.obj
 0001:00043fe0       ?find_at_timestep@T_system_debug@@QAEPAVVariable@@VMBA_string@@I@Z 00444fe0 f   debuggersd:T_system_debug.obj
 0001:00044080       ?find_at_timestep@T_system_debug@@QAEPAVVariable@@AAV2@I@Z 00445080 f   debuggersd:T_system_debug.obj
 0001:000440e0       ?variable_time_iterator@T_system_debug@@QAEXPBDAAVVariableCallbackObject@Conflict_db_debug@@@Z 004450e0 f   debuggersd:T_system_debug.obj
 0001:00044220       ?get_time_step@T_system@@QBEIXZ 00445220 f i debuggersd:T_system_debug.obj
 0001:00044250       ?get_oldest_timestep@T_system@@QBEIXZ 00445250 f i debuggersd:T_system_debug.obj
 0001:00044280       _var_alpha_comp            00445280 f   debuggersd:T_system_debug.obj
 0001:00044310       ?print_variables_at_time@T_system_debug@@QAEXI@Z 00445310 f   debuggersd:T_system_debug.obj
 0001:000443d0       ?print_all_variables@T_system_debug@@QAEXXZ 004453d0 f   debuggersd:T_system_debug.obj
 0001:00044470       ?print_variable_at_times@T_system_debug@@QAEXPBD@Z 00445470 f   debuggersd:T_system_debug.obj
 0001:00044590       ??0PrintValueAndTime@@QAE@AAVConflict_db_debug@@@Z 00445590 f i debuggersd:T_system_debug.obj
 0001:000445e0       ??0VariableCallbackObject@Conflict_db_debug@@QAE@XZ 004455e0 f i debuggersd:T_system_debug.obj
 0001:00044610       ??RPrintValueAndTime@@UAEXAAVVariable@@@Z 00445610 f i debuggersd:T_system_debug.obj
 0001:000446f0       ?print_assignment@T_system_debug@@UAEIAAV?$basic_ostream@DU?$char_traits@D@std@@@std@@ABVAssignment@@I@Z 004456f0 f   debuggersd:T_system_debug.obj
 0001:00044770       ?get_variable@Assignment@@QBEPBVAssignable@@XZ 00445770 f i debuggersd:T_system_debug.obj
 0001:000447a0       ?get_state_variable@T_system@@QBEPAVState_variable@@XZ 004457a0 f i debuggersd:T_system_debug.obj
 0001:000447d0       ?print_start_state_assignment@T_system_debug@@QAEIAAV?$basic_ostream@DU?$char_traits@D@std@@@std@@ABVAssignment@@I@Z 004457d0 f   debuggersd:T_system_debug.obj
 0001:00044a50       ?get_index@Assignment@@QBEIXZ 00445a50 f i debuggersd:T_system_debug.obj
 0001:00044a80       ?get_time@Parts@Trajectory@@QBEIXZ 00445a80 f i debuggersd:T_system_debug.obj
 0001:00044ab0       ?get_rank@Parts@Trajectory@@QBEIXZ 00445ab0 f i debuggersd:T_system_debug.obj
 0001:00044ae0       ?get_id@Parts@Trajectory@@QBEIXZ 00445ae0 f i debuggersd:T_system_debug.obj
 0001:00044b10       ?get_index@Parts@Trajectory@@QBEIXZ 00445b10 f i debuggersd:T_system_debug.obj
 0001:00044b40       ?begin@Trajectory@@QBE?AV?$Slist_iterator@$$CBVParts@Trajectory@@@@XZ 00445b40 f i debuggersd:T_system_debug.obj
 0001:00044b90       ?end@Trajectory@@QBE?AV?$Slist_iterator@$$CBVParts@Trajectory@@@@XZ 00445b90 f i debuggersd:T_system_debug.obj
 0001:00044be0       ?get_present_variable@T_system@@QBEPAVVariable@@I@Z 00445be0 f i debuggersd:T_system_debug.obj
 0001:00044c50       ?candidate_details@T_system_debug@@QAEXAAVCandidate@@AAV?$Slist@VParts@Trajectory@@@@AAV?$Array@VMBA_string@@$00@@2@Z 00445c50 f   debuggersd:T_system_debug.obj
 0001:00044ee0       ?size@Candidate@@QBEIXZ    00445ee0 f i debuggersd:T_system_debug.obj
 0001:00044f20       ?get_assignment@Candidate@@QBEPBVAssignment@@I@Z 00445f20 f i debuggersd:T_system_debug.obj
 0001:00044f80       ?get_horizon@Transitioned@@QAEPAVTransition@@XZ 00445f80 f i debuggersd:T_system_debug.obj
 0001:00044fb0       ??1Parts@Trajectory@@QAE@XZ 00445fb0 f i debuggersd:T_system_debug.obj
 0001:00044ff0       ?doStateVariableStyle@T_system_debug@@IAEXPBD0@Z 00445ff0 f   debuggersd:T_system_debug.obj
 0001:00045120       ?doDiscrepancy@T_system_debug@@IAEXPBD0@Z 00446120 f   debuggersd:T_system_debug.obj
 0001:000452b0       ?propagate@Conflict_db@@QAE_NXZ 004462b0 f i debuggersd:T_system_debug.obj
 0001:00045300       ?doTransitions@T_system_debug@@IAEXPBD0@Z 00446300 f   debuggersd:T_system_debug.obj
 0001:000453a0       ?doValues@T_system_debug@@IAEXPBD0@Z 004463a0 f   debuggersd:T_system_debug.obj
 0001:00045460       ?doTimes@T_system_debug@@IAEXPBD0@Z 00446460 f   debuggersd:T_system_debug.obj
 0001:000454a0       ?doOldestTime@T_system_debug@@IAEXPBD0@Z 004464a0 f   debuggersd:T_system_debug.obj
 0001:00045510       ?doCommands@T_system_debug@@IAEXPBD0@Z 00446510 f   debuggersd:T_system_debug.obj
 0001:000455f0       ?doObservables@T_system_debug@@IAEXPBD0@Z 004465f0 f   debuggersd:T_system_debug.obj
 0001:000456d0       ?doTransitioned@T_system_debug@@IAEXPBD0@Z 004466d0 f   debuggersd:T_system_debug.obj
 0001:000457b0       ?doExportIniFile@T_system_debug@@IAEXPBD0@Z 004467b0 f   debuggersd:T_system_debug.obj
 0001:00045a30       ?npresent_variables@T_system@@QBEIXZ 00446a30 f i debuggersd:T_system_debug.obj
 0001:00045a70       ??_D?$basic_ofstream@DU?$char_traits@D@std@@@std@@QAEXXZ 00446a70 f i debuggersd:T_system_debug.obj
 0001:00045ac0       ?parse_cmd@T_system_debug@@UAE_NPBD0@Z 00446ac0 f   debuggersd:T_system_debug.obj
 0001:00045d00       ?listener_usage@T_system_debug@@UBEXXZ 00446d00 f   debuggersd:T_system_debug.obj
 0001:00045df0       ?print_transitioned@T_system_debug@@QAEXPAVTransitioned@@@Z 00446df0 f   debuggersd:T_system_debug.obj
 0001:000460f0       ?is_deleted@Clause@@QBE_NXZ 004470f0 f i debuggersd:T_system_debug.obj
 0001:00046130       ?get_flag@Clause@@ABE_NW4bit_masks@1@@Z 00447130 f i debuggersd:T_system_debug.obj
 0001:00046170       ?print_proto_assignment@T_system_debug@@QAEXABU?$MBApair@PAVVariable@@I@@@Z 00447170 f   debuggersd:T_system_debug.obj
 0001:00046270       ?print_proto_transition@T_system_debug@@QAEXAAVProto_transition@Transitioned@@@Z 00447270 f   debuggersd:T_system_debug.obj
 0001:000463a0       ?find_current_command@T_system_debug@@QAEPAVCommand@@VMBA_string@@@Z 004473a0 f   debuggersd:T_system_debug.obj
 0001:000464d0       ?find_current_observable@T_system_debug@@QAEPAVObservable@@VMBA_string@@@Z 004474d0 f   debuggersd:T_system_debug.obj
 0001:00046600       ?find_current_mode@T_system_debug@@QAEPAVTransitioned@@VMBA_string@@@Z 00447600 f   debuggersd:T_system_debug.obj
 0001:00046730       ?find_discrepant_observations@T_system_debug@@QAEXAAV?$Slist@PAVAssignment@@@@@Z 00447730 f   debuggersd:T_system_debug.obj
 0001:000468b0       ?get_variable@Assignment@@QAEPAVAssignable@@XZ 004478b0 f i debuggersd:T_system_debug.obj
 0001:000468e0       ?get_datum@Clause@@QBEPAXXZ 004478e0 f i debuggersd:T_system_debug.obj
 0001:00046910       ?get_solver@Conflict_db@@QAEPAVLTMS@@XZ 00447910 f i debuggersd:T_system_debug.obj
 0001:00046940       ?find_discrepant_commands@T_system_debug@@QAEXAAV?$Slist@PAVAssignment@@@@@Z 00447940 f   debuggersd:T_system_debug.obj
 0001:00046b00       ?assign_mode@T_system_debug@@QAE_NVMBA_string@@@Z 00447b00 f   debuggersd:T_system_debug.obj
 0001:00046e20       ?is_exogenously_assigned@T_system_debug@@QAE_NPAVVariable@@@Z 00447e20 f   debuggersd:T_system_debug.obj
 0001:00046e80       ?is_exogenously_assigned@Assignable@@QBE_NXZ 00447e80 f i debuggersd:T_system_debug.obj
 0001:00046eb0       ??0?$Slist@PAVAssignment@@@@QAE@XZ 00447eb0 f i debuggersd:T_system_debug.obj
 0001:00046ef0       ?push_front@?$Slist@PAVAssignment@@@@QAEXABQAVAssignment@@@Z 00447ef0 f i debuggersd:T_system_debug.obj
 0001:00046f70       ?begin@?$Slist@PAVAssignment@@@@QAE?AV?$Slist_iterator@PAVAssignment@@@@XZ 00447f70 f i debuggersd:T_system_debug.obj
 0001:00046fc0       ?end@?$Slist@PAVAssignment@@@@QAE?AV?$Slist_iterator@PAVAssignment@@@@XZ 00447fc0 f i debuggersd:T_system_debug.obj
 0001:00047010       ??E?$Slist_iterator@PAVAssignment@@@@QAEAAV0@XZ 00448010 f i debuggersd:T_system_debug.obj
 0001:00047060       ??D?$Slist_iterator@PAVAssignment@@@@QAEAAPAVAssignment@@XZ 00448060 f i debuggersd:T_system_debug.obj
 0001:000470b0       ??8?$Slist_iterator@PAVAssignment@@@@QBE_NABV0@@Z 004480b0 f i debuggersd:T_system_debug.obj
 0001:000470f0       ??9?$Slist_iterator@PAVAssignment@@@@QBE_NABV0@@Z 004480f0 f i debuggersd:T_system_debug.obj
 0001:00047130       ?size@?$Array@PBVAssignment@@$0A@@@QBEIXZ 00448130 f i debuggersd:T_system_debug.obj
 0001:00047160       ??A?$Array@PBVAssignment@@$0A@@@QBEABQBVAssignment@@I@Z 00448160 f i debuggersd:T_system_debug.obj
 0001:000471c0       ?push_front@?$Slist@VParts@Trajectory@@@@QAEXABVParts@Trajectory@@@Z 004481c0 f i debuggersd:T_system_debug.obj
 0001:00047240       ?begin@?$Slist@VParts@Trajectory@@@@QBE?AV?$Slist_iterator@$$CBVParts@Trajectory@@@@XZ 00448240 f i debuggersd:T_system_debug.obj
 0001:00047290       ?end@?$Slist@VParts@Trajectory@@@@QBE?AV?$Slist_iterator@$$CBVParts@Trajectory@@@@XZ 00448290 f i debuggersd:T_system_debug.obj
 0001:000472e0       ??E?$Slist_iterator@$$CBVParts@Trajectory@@@@QAEAAV0@XZ 004482e0 f i debuggersd:T_system_debug.obj
 0001:00047330       ??D?$Slist_iterator@$$CBVParts@Trajectory@@@@QAEABVParts@Trajectory@@XZ 00448330 f i debuggersd:T_system_debug.obj
 0001:00047380       ??9?$Slist_iterator@$$CBVParts@Trajectory@@@@QBE_NABV0@@Z 00448380 f i debuggersd:T_system_debug.obj
 0001:000473c0       ??A?$Array@PAVVariable@@$0A@@@QBEABQAVVariable@@I@Z 004483c0 f i debuggersd:T_system_debug.obj
 0001:00047420       ?begin@?$Slist@PAVClause@@@@QAE?AV?$Slist_iterator@PAVClause@@@@XZ 00448420 f i debuggersd:T_system_debug.obj
 0001:00047470       ?end@?$Slist@PAVClause@@@@QAE?AV?$Slist_iterator@PAVClause@@@@XZ 00448470 f i debuggersd:T_system_debug.obj
 0001:000474c0       ?begin@?$Slist@U?$MBApair@PAVVariable@@I@@@@QAE?AV?$Slist_iterator@U?$MBApair@PAVVariable@@I@@@@XZ 004484c0 f i debuggersd:T_system_debug.obj
 0001:00047510       ?end@?$Slist@U?$MBApair@PAVVariable@@I@@@@QAE?AV?$Slist_iterator@U?$MBApair@PAVVariable@@I@@@@XZ 00448510 f i debuggersd:T_system_debug.obj
 0001:00047560       ?begin@?$Slist@U?$MBApair@PBVAssignment@@V?$Slist@PAVProto_transition@Transitioned@@@@@@@@QAE?AV?$Slist_iterator@U?$MBApair@PBVAssignment@@V?$Slist@PAVProto_transition@Transitioned@@@@@@@@XZ 00448560 f i debuggersd:T_system_debug.obj
 0001:000475b0       ?end@?$Slist@U?$MBApair@PBVAssignment@@V?$Slist@PAVProto_transition@Transitioned@@@@@@@@QAE?AV?$Slist_iterator@U?$MBApair@PBVAssignment@@V?$Slist@PAVProto_transition@Transitioned@@@@@@@@XZ 004485b0 f i debuggersd:T_system_debug.obj
 0001:00047600       ?begin@?$Slist@PAVProto_transition@Transitioned@@@@QAE?AV?$Slist_iterator@PAVProto_transition@Transitioned@@@@XZ 00448600 f i debuggersd:T_system_debug.obj
 0001:00047650       ?end@?$Slist@PAVProto_transition@Transitioned@@@@QAE?AV?$Slist_iterator@PAVProto_transition@Transitioned@@@@XZ 00448650 f i debuggersd:T_system_debug.obj
 0001:000476a0       ??E?$Slist_iterator@PAVClause@@@@QAEAAV0@XZ 004486a0 f i debuggersd:T_system_debug.obj
 0001:000476f0       ??D?$Slist_iterator@PAVClause@@@@QAEAAPAVClause@@XZ 004486f0 f i debuggersd:T_system_debug.obj
 0001:00047740       ??9?$Slist_iterator@PAVClause@@@@QBE_NABV0@@Z 00448740 f i debuggersd:T_system_debug.obj
 0001:00047780       ??E?$Slist_iterator@U?$MBApair@PAVVariable@@I@@@@QAEAAV0@XZ 00448780 f i debuggersd:T_system_debug.obj
 0001:000477d0       ??D?$Slist_iterator@U?$MBApair@PAVVariable@@I@@@@QAEAAU?$MBApair@PAVVariable@@I@@XZ 004487d0 f i debuggersd:T_system_debug.obj
 0001:00047820       ??9?$Slist_iterator@U?$MBApair@PAVVariable@@I@@@@QBE_NABV0@@Z 00448820 f i debuggersd:T_system_debug.obj
 0001:00047860       ??0?$basic_ofstream@DU?$char_traits@D@std@@@std@@QAE@PBDH@Z 00448860 f i debuggersd:T_system_debug.obj
 0001:00047960       ??1?$basic_ostream@DU?$char_traits@D@std@@@std@@UAE@XZ 00448960 f i debuggersd:T_system_debug.obj
 0001:000479a0       ??1?$basic_ofstream@DU?$char_traits@D@std@@@std@@UAE@XZ 004489a0 f i debuggersd:T_system_debug.obj
 0001:00047a30       ??E?$Slist_iterator@U?$MBApair@PBVAssignment@@V?$Slist@PAVProto_transition@Transitioned@@@@@@@@QAEAAV0@XZ 00448a30 f i debuggersd:T_system_debug.obj
 0001:00047a80       ??D?$Slist_iterator@U?$MBApair@PBVAssignment@@V?$Slist@PAVProto_transition@Transitioned@@@@@@@@QAEAAU?$MBApair@PBVAssignment@@V?$Slist@PAVProto_transition@Transitioned@@@@@@XZ 00448a80 f i debuggersd:T_system_debug.obj
 0001:00047ad0       ??9?$Slist_iterator@U?$MBApair@PBVAssignment@@V?$Slist@PAVProto_transition@Transitioned@@@@@@@@QBE_NABV0@@Z 00448ad0 f i debuggersd:T_system_debug.obj
 0001:00047b10       ??E?$Slist_iterator@PAVProto_transition@Transitioned@@@@QAEAAV0@XZ 00448b10 f i debuggersd:T_system_debug.obj
 0001:00047b60       ??D?$Slist_iterator@PAVProto_transition@Transitioned@@@@QAEAAPAVProto_transition@Transitioned@@XZ 00448b60 f i debuggersd:T_system_debug.obj
 0001:00047bb0       ??9?$Slist_iterator@PAVProto_transition@Transitioned@@@@QBE_NABV0@@Z 00448bb0 f i debuggersd:T_system_debug.obj
 0001:00047bf0       ??_G?$basic_ostream@DU?$char_traits@D@std@@@std@@UAEPAXI@Z 00448bf0 f i debuggersd:T_system_debug.obj
 0001:00047bf0       ??_E?$basic_ostream@DU?$char_traits@D@std@@@std@@UAEPAXI@Z 00448bf0 f i debuggersd:T_system_debug.obj
 0001:00047c50       ??_E?$basic_ofstream@DU?$char_traits@D@std@@@std@@UAEPAXI@Z 00448c50 f i debuggersd:T_system_debug.obj
 0001:00047c50       ??_G?$basic_ofstream@DU?$char_traits@D@std@@@std@@UAEPAXI@Z 00448c50 f i debuggersd:T_system_debug.obj
 0001:00047cb0       ??_D?$basic_ostream@DU?$char_traits@D@std@@@std@@QAEXXZ 00448cb0 f i debuggersd:T_system_debug.obj
 0001:00047d00       ??0?$basic_ostream@DU?$char_traits@D@std@@@std@@QAE@PAV?$basic_streambuf@DU?$char_traits@D@std@@@1@_N1@Z 00448d00 f i debuggersd:T_system_debug.obj
 0001:00047dd0       ??0?$Slist_iterator@PAVAssignment@@@@QAE@PAV?$Slist_item@PAVAssignment@@@@@Z 00448dd0 f i debuggersd:T_system_debug.obj
 0001:00047e10       ??0?$Slist_iterator@$$CBVParts@Trajectory@@@@QAE@PAV?$Slist_item@$$CBVParts@Trajectory@@@@@Z 00448e10 f i debuggersd:T_system_debug.obj
 0001:00047e50       ??0?$Slist_iterator@PAVClause@@@@QAE@PAV?$Slist_item@PAVClause@@@@@Z 00448e50 f i debuggersd:T_system_debug.obj
 0001:00047e90       ??0?$Slist_iterator@U?$MBApair@PAVVariable@@I@@@@QAE@PAV?$Slist_item@U?$MBApair@PAVVariable@@I@@@@@Z 00448e90 f i debuggersd:T_system_debug.obj
 0001:00047ed0       ??0?$Slist_iterator@U?$MBApair@PBVAssignment@@V?$Slist@PAVProto_transition@Transitioned@@@@@@@@QAE@PAV?$Slist_item@U?$MBApair@PBVAssignment@@V?$Slist@PAVProto_transition@Transitioned@@@@@@@@@Z 00448ed0 f i debuggersd:T_system_debug.obj
 0001:00047f10       ??0?$Slist_iterator@PAVProto_transition@Transitioned@@@@QAE@PAV?$Slist_item@PAVProto_transition@Transitioned@@@@@Z 00448f10 f i debuggersd:T_system_debug.obj
 0001:00047f50       ??0?$Slist_item@PAVAssignment@@@@QAE@ABQAVAssignment@@PAV0@@Z 00448f50 f i debuggersd:T_system_debug.obj
 0001:00047fa0       ??0?$Slist_item@VParts@Trajectory@@@@QAE@ABVParts@Trajectory@@PAV0@@Z 00448fa0 f i debuggersd:T_system_debug.obj
 0001:00048000       ?print_variable_values@@YAXAAVConflict_db_debug@@V?$Slist_iterator@PAVVariable@@@@ABV2@P6A_NPAVVariable@@PAX@Z4@Z 00449000 f i debuggersd:T_system_debug.obj
 0001:000485a0       ?find_style@Tracker_debug@@SA?AW4FC_style@Tracker@@VMBA_string@@@Z 004495a0 f   debuggersd:tracker_debug.obj
 0001:00048660       ?find_style@Tracker_debug@@SA?AVMBA_string@@W4FC_style@Tracker@@@Z 00449660 f   debuggersd:tracker_debug.obj
 0001:000486e0       ??0Tracker_debug@@QAE@PAVTracker@@AAVL2_string_map@@AAV?$basic_ostream@DU?$char_traits@D@std@@@std@@@Z 004496e0 f   debuggersd:tracker_debug.obj
 0001:000487d0       ??0T_system_debug@@QAE@AAVT_system@@AAVL2_string_map@@AAV?$basic_ostream@DU?$char_traits@D@std@@@std@@@Z 004497d0 f i debuggersd:tracker_debug.obj
 0001:00048840       ??_GT_system_debug@@UAEPAXI@Z 00449840 f i debuggersd:tracker_debug.obj
 0001:00048840       ??_ET_system_debug@@UAEPAXI@Z 00449840 f i debuggersd:tracker_debug.obj
 0001:000488a0       ??_ETracker_debug@@UAEPAXI@Z 004498a0 f i debuggersd:tracker_debug.obj
 0001:000488a0       ??_GTracker_debug@@UAEPAXI@Z 004498a0 f i debuggersd:tracker_debug.obj
 0001:00048900       ?getCommandAssignment@Tracker_debug@@IAEPAVAssignment@@PBD@Z 00449900 f   debuggersd:tracker_debug.obj
 0001:000489c0       ?doProgressStyle@Tracker_debug@@IAEXPBD0@Z 004499c0 f   debuggersd:tracker_debug.obj
 0001:00048b70       ??0L2_parse_scenario_error@@QAE@VMBA_string@@@Z 00449b70 f i debuggersd:tracker_debug.obj
 0001:00048c00       ?get_progress_uses_full@T_system@@QBE_NXZ 00449c00 f i debuggersd:tracker_debug.obj
 0001:00048c30       ??1L2_parse_scenario_error@@QAE@XZ 00449c30 f i debuggersd:tracker_debug.obj
 0001:00048c70       ??0L2_parse_scenario_error@@QAE@ABV0@@Z 00449c70 f i debuggersd:tracker_debug.obj
 0001:00048cb0       ?doPrintCandidates@Tracker_debug@@IAEXPBD0@Z 00449cb0 f   debuggersd:tracker_debug.obj
 0001:00048d30       ?getCandidates@Conflict_db@@QAEAAV?$Slist@PAVCandidate@@@@XZ 00449d30 f i debuggersd:tracker_debug.obj
 0001:00048d60       ?doPrintClasses@Tracker_debug@@IAEXPBD0@Z 00449d60 f   debuggersd:tracker_debug.obj
 0001:00048ef0       ?size@CandidateEqClass@@QBEIXZ 00449ef0 f i debuggersd:tracker_debug.obj
 0001:00048f30       ?get@CandidateEqClass@@QBEPBVCandidate@@I@Z 00449f30 f i debuggersd:tracker_debug.obj
 0001:00048f90       ?size@Tracker@@QBEIXZ      00449f90 f i debuggersd:tracker_debug.obj
 0001:00048fd0       ?getCandidatePartition@Tracker@@QAEAAV?$Array@PAVCandidateEqClass@@$0A@@@XZ 00449fd0 f i debuggersd:tracker_debug.obj
 0001:00049000       ?doInstall@Tracker_debug@@IAEXPBD0@Z 0044a000 f   debuggersd:tracker_debug.obj
 0001:000490f0       ?install@Conflict_db@@QAEXI_N@Z 0044a0f0 f i debuggersd:tracker_debug.obj
 0001:00049140       ?doTruncate@Tracker_debug@@IAEXPBD0@Z 0044a140 f   debuggersd:tracker_debug.obj
 0001:000491c0       ?truncate_if_needed@T_system@@QAEXXZ 0044a1c0 f i debuggersd:tracker_debug.obj
 0001:00049210       ?get_horizon@T_system@@QBEIXZ 0044a210 f i debuggersd:tracker_debug.obj
 0001:00049270       ?history_full@T_system@@QBE_NXZ 0044a270 f i debuggersd:tracker_debug.obj
 0001:000492e0       ?doFindCandidatesStyle@Tracker_debug@@IAEXPBD0@Z 0044a2e0 f   debuggersd:tracker_debug.obj
 0001:00049500       ?get_fc_style@Tracker@@QBE?AW4FC_style@1@XZ 0044a500 f i debuggersd:tracker_debug.obj
 0001:00049530       ?set_fc_style@Tracker@@QAEXW4FC_style@1@@Z 0044a530 f i debuggersd:tracker_debug.obj
 0001:00049560       ?doFindCandidates@Tracker_debug@@IAEXPBD0@Z 0044a560 f   debuggersd:tracker_debug.obj
 0001:000496b0       ?doPruneAndSearch@Tracker_debug@@IAEXPBD0@Z 0044a6b0 f   debuggersd:tracker_debug.obj
 0001:00049700       ?prune_and_search@Tracker@@QAEXXZ 0044a700 f i debuggersd:tracker_debug.obj
 0001:00049780       ?doFindFreshCandidates@Tracker_debug@@IAEXPBD0@Z 0044a780 f   debuggersd:tracker_debug.obj
 0001:000497e0       ?doPrintAllStats@Tracker_debug@@IAEXPBD0@Z 0044a7e0 f   debuggersd:tracker_debug.obj
 0001:00049830       ?doAddAssumption@Tracker_debug@@IAEXPBD0@Z 0044a830 f   debuggersd:tracker_debug.obj
 0001:000498d0       ?parse_cmd@Tracker_debug@@UAE_NPBD0@Z 0044a8d0 f   debuggersd:tracker_debug.obj
 0001:00049d40       ?listener_usage@Tracker_debug@@UBEXXZ 0044ad40 f   debuggersd:tracker_debug.obj
 0001:00049ec0       ?print_stats@Tracker_debug@@QAEXXZ 0044aec0 f   debuggersd:tracker_debug.obj
 0001:00049f60       ?minimal_progress@Tracker_debug@@QAEXPAVAssignment@@@Z 0044af60 f   debuggersd:tracker_debug.obj
 0001:00049fc0       ?full_progress@Tracker_debug@@QAEXPAVAssignment@@@Z 0044afc0 f   debuggersd:tracker_debug.obj
 0001:0004a020       ?progress@Tracker_debug@@QAEXPAVAssignment@@@Z 0044b020 f   debuggersd:tracker_debug.obj
 0001:0004a080       ?print_candidates@Tracker_debug@@QAEXXZ 0044b080 f   debuggersd:tracker_debug.obj
 0001:0004a0c0       ?print_candidates@Tracker_debug@@QAEXAAV?$basic_ostream@DU?$char_traits@D@std@@@std@@@Z 0044b0c0 f   debuggersd:tracker_debug.obj
 0001:0004a1b0       ?start_find_candidates@Tracker_debug@@IAEXXZ 0044b1b0 f   debuggersd:tracker_debug.obj
 0001:0004a200       ?num_conflicts@Conflict_db@@QBEIXZ 0044b200 f i debuggersd:tracker_debug.obj
 0001:0004a240       ?end_find_candidates@Tracker_debug@@IAEXXZ 0044b240 f   debuggersd:tracker_debug.obj
 0001:0004a3e0       ?size@Conflict_db@@QBEIXZ  0044b3e0 f i debuggersd:tracker_debug.obj
 0001:0004a420       ?create_checkpoint@Tracker_debug@@QAE_NABVMBA_string@@@Z 0044b420 f   debuggersd:tracker_debug.obj
 0001:0004a660       ?get_max_history_length@T_system@@QBEIXZ 0044b660 f i debuggersd:tracker_debug.obj
 0001:0004a690       ??0ckpt_descriptor@Tracker_debug@@QAE@PAVL2_checkpoint@@IABVMBA_string@@@Z 0044b690 f i debuggersd:tracker_debug.obj
 0001:0004a6f0       ?is_valid@ckpt_descriptor@Tracker_debug@@QBE_NXZ 0044b6f0 f i debuggersd:tracker_debug.obj
 0001:0004a730       ?restore_checkpoint@Tracker_debug@@QAE_NABVMBA_string@@@Z 0044b730 f   debuggersd:tracker_debug.obj
 0001:0004a820       ?delete_checkpoint@Tracker_debug@@QAEXABVMBA_string@@@Z 0044b820 f   debuggersd:tracker_debug.obj
 0001:0004a900       ?list_checkpoints@Tracker_debug@@QAEXXZ 0044b900 f   debuggersd:tracker_debug.obj
 0001:0004aaa0       ?register_ckpt@Tracker_debug@@IAEXUckpt_descriptor@1@@Z 0044baa0 f   debuggersd:tracker_debug.obj
 0001:0004ab60       ?delete_ckpt@Tracker_debug@@IAEXUckpt_descriptor@1@@Z 0044bb60 f   debuggersd:tracker_debug.obj
 0001:0004ac40       ?find_ckpt@Tracker_debug@@IAE?AUckpt_descriptor@1@ABVMBA_string@@_N@Z 0044bc40 f   debuggersd:tracker_debug.obj
 0001:0004af10       ?invalid@ckpt_descriptor@Tracker_debug@@SA?AU12@XZ 0044bf10 f i debuggersd:tracker_debug.obj
 0001:0004afa0       ?briefly_print_ckpt@Tracker_debug@@IAEXUckpt_descriptor@1@@Z 0044bfa0 f   debuggersd:tracker_debug.obj
 0001:0004b080       ?empty@?$Slist@PAVCandidate@@@@QBE_NXZ 0044c080 f i debuggersd:tracker_debug.obj
 0001:0004b0c0       ?begin@?$Slist@PAVCandidate@@@@QAE?AV?$Slist_iterator@PAVCandidate@@@@XZ 0044c0c0 f i debuggersd:tracker_debug.obj
 0001:0004b110       ?end@?$Slist@PAVCandidate@@@@QAE?AV?$Slist_iterator@PAVCandidate@@@@XZ 0044c110 f i debuggersd:tracker_debug.obj
 0001:0004b160       ?size@?$Array@PBVCandidate@@$0A@@@QBEIXZ 0044c160 f i debuggersd:tracker_debug.obj
 0001:0004b190       ??A?$Array@PBVCandidate@@$0A@@@QBEABQBVCandidate@@I@Z 0044c190 f i debuggersd:tracker_debug.obj
 0001:0004b1f0       ?size@?$Array@PAVCandidateEqClass@@$0A@@@QBEIXZ 0044c1f0 f i debuggersd:tracker_debug.obj
 0001:0004b220       ??A?$Array@PAVCandidateEqClass@@$0A@@@QBEABQAVCandidateEqClass@@I@Z 0044c220 f i debuggersd:tracker_debug.obj
 0001:0004b280       ??E?$Slist_iterator@PAVCandidate@@@@QAEAAV0@XZ 0044c280 f i debuggersd:tracker_debug.obj
 0001:0004b2d0       ??D?$Slist_iterator@PAVCandidate@@@@QAEAAPAVCandidate@@XZ 0044c2d0 f i debuggersd:tracker_debug.obj
 0001:0004b320       ??9?$Slist_iterator@PAVCandidate@@@@QBE_NABV0@@Z 0044c320 f i debuggersd:tracker_debug.obj
 0001:0004b360       ??0?$Hash_table@IUckpt_descriptor@Tracker_debug@@@@QAE@P6AIABI@Z@Z 0044c360 f i debuggersd:tracker_debug.obj
 0001:0004b3d0       ??0?$Hash_table@VMBA_string@@Uckpt_descriptor@Tracker_debug@@@@QAE@P6AIABVMBA_string@@@Z@Z 0044c3d0 f i debuggersd:tracker_debug.obj
 0001:0004b440       ??D?$Hash_table_iterator@IUckpt_descriptor@Tracker_debug@@@@QAEABUckpt_descriptor@Tracker_debug@@XZ 0044c440 f i debuggersd:tracker_debug.obj
 0001:0004b480       ??8?$Hash_table_iterator@IUckpt_descriptor@Tracker_debug@@@@QBE_NABV0@@Z 0044c480 f i debuggersd:tracker_debug.obj
 0001:0004b500       ??9?$Hash_table_iterator@IUckpt_descriptor@Tracker_debug@@@@QBE_NABV0@@Z 0044c500 f i debuggersd:tracker_debug.obj
 0001:0004b550       ??0?$Array@PBUckpt_descriptor@Tracker_debug@@$00@@QAE@XZ 0044c550 f i debuggersd:tracker_debug.obj
 0001:0004b5a0       ??1?$Array@PBUckpt_descriptor@Tracker_debug@@$00@@QAE@XZ 0044c5a0 f i debuggersd:tracker_debug.obj
 0001:0004b600       ?size@?$Array@PBUckpt_descriptor@Tracker_debug@@$00@@QBEIXZ 0044c600 f i debuggersd:tracker_debug.obj
 0001:0004b630       ??A?$Array@PBUckpt_descriptor@Tracker_debug@@$00@@QAEAAPBUckpt_descriptor@Tracker_debug@@I@Z 0044c630 f i debuggersd:tracker_debug.obj
 0001:0004b690       ?push@?$Array@PBUckpt_descriptor@Tracker_debug@@$00@@QAEXABQBUckpt_descriptor@Tracker_debug@@@Z 0044c690 f i debuggersd:tracker_debug.obj
 0001:0004b700       ??D?$Hash_table_iterator@VMBA_string@@Uckpt_descriptor@Tracker_debug@@@@QAEABUckpt_descriptor@Tracker_debug@@XZ 0044c700 f i debuggersd:tracker_debug.obj
 0001:0004b740       ??8?$Hash_table_iterator@VMBA_string@@Uckpt_descriptor@Tracker_debug@@@@QBE_NABV0@@Z 0044c740 f i debuggersd:tracker_debug.obj
 0001:0004b7c0       ??0?$Slist_iterator@PAVCandidate@@@@QAE@PAV?$Slist_item@PAVCandidate@@@@@Z 0044c7c0 f i debuggersd:tracker_debug.obj
 0001:0004b800       ??D?$Slist_iterator@U?$MBApair@$$CBI$$CBUckpt_descriptor@Tracker_debug@@@@@@QAEAAU?$MBApair@$$CBI$$CBUckpt_descriptor@Tracker_debug@@@@XZ 0044c800 f i debuggersd:tracker_debug.obj
 0001:0004b850       ??8?$Slist_iterator@U?$MBApair@$$CBI$$CBUckpt_descriptor@Tracker_debug@@@@@@QBE_NABV0@@Z 0044c850 f i debuggersd:tracker_debug.obj
 0001:0004b890       ?erase@?$Array@PBUckpt_descriptor@Tracker_debug@@$00@@QAEXXZ 0044c890 f i debuggersd:tracker_debug.obj
 0001:0004b8f0       ?ensure@?$Array@PBUckpt_descriptor@Tracker_debug@@$00@@AAEXI@Z 0044c8f0 f i debuggersd:tracker_debug.obj
 0001:0004b9c0       ??D?$Slist_iterator@U?$MBApair@$$CBVMBA_string@@$$CBUckpt_descriptor@Tracker_debug@@@@@@QAEAAU?$MBApair@$$CBVMBA_string@@$$CBUckpt_descriptor@Tracker_debug@@@@XZ 0044c9c0 f i debuggersd:tracker_debug.obj
 0001:0004ba10       ??8?$Slist_iterator@U?$MBApair@$$CBVMBA_string@@$$CBUckpt_descriptor@Tracker_debug@@@@@@QBE_NABV0@@Z 0044ca10 f i debuggersd:tracker_debug.obj
 0001:0004ba50       ?do_allocate@?$Array@PBUckpt_descriptor@Tracker_debug@@$00@@AAEPAPBUckpt_descriptor@Tracker_debug@@I@Z 0044ca50 f i debuggersd:tracker_debug.obj
 0001:0004bac0       ?do_free@?$Array@PBUckpt_descriptor@Tracker_debug@@$00@@AAEXPAPBUckpt_descriptor@Tracker_debug@@I@Z 0044cac0 f i debuggersd:tracker_debug.obj
 0001:0004bb20       ?size@?$Slist@PBVConflict@@@@QBEIXZ 0044cb20 f i debuggersd:tracker_debug.obj
 0001:0004bb50       ?size@?$Slist@PAVVariable@@@@QBEIXZ 0044cb50 f i debuggersd:tracker_debug.obj
 0001:0004bb80       ?size@?$Slist@PAVCandidate@@@@QBEIXZ 0044cb80 f i debuggersd:tracker_debug.obj
 0001:0004bbb0       ?erase@?$Hash_table@IUckpt_descriptor@Tracker_debug@@@@QAEJABI@Z 0044cbb0 f i debuggersd:tracker_debug.obj
 0001:0004bc40       ?find@?$Hash_table@IUckpt_descriptor@Tracker_debug@@@@QAE?AV?$Hash_table_iterator@IUckpt_descriptor@Tracker_debug@@@@ABI@Z 0044cc40 f i debuggersd:tracker_debug.obj
 0001:0004bda0       ?insert@?$Hash_table@IUckpt_descriptor@Tracker_debug@@@@QAE?AU?$MBApair@V?$Hash_table_iterator@IUckpt_descriptor@Tracker_debug@@@@_N@@ABIABUckpt_descriptor@Tracker_debug@@@Z 0044cda0 f i debuggersd:tracker_debug.obj
 0001:0004bf60       ?begin@?$Hash_table@IUckpt_descriptor@Tracker_debug@@@@QAE?AV?$Hash_table_iterator@IUckpt_descriptor@Tracker_debug@@@@XZ 0044cf60 f i debuggersd:tracker_debug.obj
 0001:0004c070       ?end@?$Hash_table@IUckpt_descriptor@Tracker_debug@@@@QAE?AV?$Hash_table_iterator@IUckpt_descriptor@Tracker_debug@@@@XZ 0044d070 f i debuggersd:tracker_debug.obj
 0001:0004c100       ?erase@?$Hash_table@VMBA_string@@Uckpt_descriptor@Tracker_debug@@@@QAEJABVMBA_string@@@Z 0044d100 f i debuggersd:tracker_debug.obj
 0001:0004c190       ?find@?$Hash_table@VMBA_string@@Uckpt_descriptor@Tracker_debug@@@@QAE?AV?$Hash_table_iterator@VMBA_string@@Uckpt_descriptor@Tracker_debug@@@@ABVMBA_string@@@Z 0044d190 f i debuggersd:tracker_debug.obj
 0001:0004c2f0       ?insert@?$Hash_table@VMBA_string@@Uckpt_descriptor@Tracker_debug@@@@QAE?AU?$MBApair@V?$Hash_table_iterator@VMBA_string@@Uckpt_descriptor@Tracker_debug@@@@_N@@ABVMBA_string@@ABUckpt_descriptor@Tracker_debug@@@Z 0044d2f0 f i debuggersd:tracker_debug.obj
 0001:0004c4c0       ?end@?$Hash_table@VMBA_string@@Uckpt_descriptor@Tracker_debug@@@@QAE?AV?$Hash_table_iterator@VMBA_string@@Uckpt_descriptor@Tracker_debug@@@@XZ 0044d4c0 f i debuggersd:tracker_debug.obj
 0001:0004c550       ??E?$Hash_table_iterator@IUckpt_descriptor@Tracker_debug@@@@QAEAAV0@XZ 0044d550 f i debuggersd:tracker_debug.obj
 0001:0004c670       ?sort@@YAXAAV?$Array@PBUckpt_descriptor@Tracker_debug@@$00@@P6A_NPBUckpt_descriptor@Tracker_debug@@1@Z@Z 0044d670 f i debuggersd:tracker_debug.obj
 0001:0004c770       ?L2_initialize_array@@YAPAV?$Slist@U?$MBApair@$$CBI$$CBUckpt_descriptor@Tracker_debug@@@@@@PAV1@I@Z 0044d770 f i debuggersd:tracker_debug.obj
 0001:0004c820       ?L2_initialize_array@@YAPAV?$Slist@U?$MBApair@$$CBVMBA_string@@$$CBUckpt_descriptor@Tracker_debug@@@@@@PAV1@I@Z 0044d820 f i debuggersd:tracker_debug.obj
 0001:0004c8d0       ?L2_initialize_array@@YAPAPBUckpt_descriptor@Tracker_debug@@PAPBU12@I@Z 0044d8d0 f i debuggersd:tracker_debug.obj
 0001:0004c930       ?L2_free_array@@YAXPAPBUckpt_descriptor@Tracker_debug@@I@Z 0044d930 f i debuggersd:tracker_debug.obj
 0001:0004c9a0       ?L2_free_array_no_dtor@@YAXPAPBUckpt_descriptor@Tracker_debug@@I@Z 0044d9a0 f i debuggersd:tracker_debug.obj
 0001:0004c9e0       ??0?$Hash_table_iterator@IUckpt_descriptor@Tracker_debug@@@@AAE@AAV?$Hash_table@IUckpt_descriptor@Tracker_debug@@@@IV?$Slist_iterator@U?$MBApair@$$CBI$$CBUckpt_descriptor@Tracker_debug@@@@@@@Z 0044d9e0 f i debuggersd:tracker_debug.obj
 0001:0004ca30       ?erase@?$Hash_table_iterator@IUckpt_descriptor@Tracker_debug@@@@AAEXXZ 0044da30 f i debuggersd:tracker_debug.obj
 0001:0004cab0       ??E?$Slist_iterator@U?$MBApair@$$CBI$$CBUckpt_descriptor@Tracker_debug@@@@@@QAEAAV0@XZ 0044dab0 f i debuggersd:tracker_debug.obj
 0001:0004cb00       ??9?$Slist_iterator@U?$MBApair@$$CBI$$CBUckpt_descriptor@Tracker_debug@@@@@@QBE_NABV0@@Z 0044db00 f i debuggersd:tracker_debug.obj
 0001:0004cb40       ??4?$Slist_iterator@U?$MBApair@$$CBI$$CBUckpt_descriptor@Tracker_debug@@@@@@QAEAAV0@ABV0@@Z 0044db40 f i debuggersd:tracker_debug.obj
 0001:0004cb80       ??0?$MBApair@V?$Hash_table_iterator@VMBA_string@@Uckpt_descriptor@Tracker_debug@@@@_N@@QAE@ABV?$Hash_table_iterator@VMBA_string@@Uckpt_descriptor@Tracker_debug@@@@AB_N@Z 0044db80 f i debuggersd:tracker_debug.obj
 0001:0004cbd0       ??9?$Hash_table_iterator@VMBA_string@@Uckpt_descriptor@Tracker_debug@@@@QBE_NABV0@@Z 0044dbd0 f i debuggersd:tracker_debug.obj
 0001:0004cc20       ??0?$Hash_table_iterator@VMBA_string@@Uckpt_descriptor@Tracker_debug@@@@AAE@AAV?$Hash_table@VMBA_string@@Uckpt_descriptor@Tracker_debug@@@@IV?$Slist_iterator@U?$MBApair@$$CBVMBA_string@@$$CBUckpt_descriptor@Tracker_debug@@@@@@@Z 0044dc20 f i debuggersd:tracker_debug.obj
 0001:0004cc70       ?erase@?$Hash_table_iterator@VMBA_string@@Uckpt_descriptor@Tracker_debug@@@@AAEXXZ 0044dc70 f i debuggersd:tracker_debug.obj
 0001:0004ccf0       ??E?$Slist_iterator@U?$MBApair@$$CBVMBA_string@@$$CBUckpt_descriptor@Tracker_debug@@@@@@QAEAAV0@XZ 0044dcf0 f i debuggersd:tracker_debug.obj
 0001:0004cd40       ??9?$Slist_iterator@U?$MBApair@$$CBVMBA_string@@$$CBUckpt_descriptor@Tracker_debug@@@@@@QBE_NABV0@@Z 0044dd40 f i debuggersd:tracker_debug.obj
 0001:0004cd80       ??0?$MBApair@V?$Hash_table_iterator@IUckpt_descriptor@Tracker_debug@@@@_N@@QAE@ABV?$Hash_table_iterator@IUckpt_descriptor@Tracker_debug@@@@AB_N@Z 0044dd80 f i debuggersd:tracker_debug.obj
 0001:0004cdd0       ??0?$Slist@U?$MBApair@$$CBI$$CBUckpt_descriptor@Tracker_debug@@@@@@QAE@XZ 0044ddd0 f i debuggersd:tracker_debug.obj
 0001:0004ce10       ?empty@?$Slist@U?$MBApair@$$CBI$$CBUckpt_descriptor@Tracker_debug@@@@@@QBE_NXZ 0044de10 f i debuggersd:tracker_debug.obj
 0001:0004ce50       ?push_front@?$Slist@U?$MBApair@$$CBI$$CBUckpt_descriptor@Tracker_debug@@@@@@QAEXABU?$MBApair@$$CBI$$CBUckpt_descriptor@Tracker_debug@@@@@Z 0044de50 f i debuggersd:tracker_debug.obj
 0001:0004ced0       ?begin@?$Slist@U?$MBApair@$$CBI$$CBUckpt_descriptor@Tracker_debug@@@@@@QAE?AV?$Slist_iterator@U?$MBApair@$$CBI$$CBUckpt_descriptor@Tracker_debug@@@@@@XZ 0044ded0 f i debuggersd:tracker_debug.obj
 0001:0004cf20       ?end@?$Slist@U?$MBApair@$$CBI$$CBUckpt_descriptor@Tracker_debug@@@@@@QAE?AV?$Slist_iterator@U?$MBApair@$$CBI$$CBUckpt_descriptor@Tracker_debug@@@@@@XZ 0044df20 f i debuggersd:tracker_debug.obj
 0001:0004cf70       ??0?$Slist@U?$MBApair@$$CBVMBA_string@@$$CBUckpt_descriptor@Tracker_debug@@@@@@QAE@XZ 0044df70 f i debuggersd:tracker_debug.obj
 0001:0004cfb0       ?push_front@?$Slist@U?$MBApair@$$CBVMBA_string@@$$CBUckpt_descriptor@Tracker_debug@@@@@@QAEXABU?$MBApair@$$CBVMBA_string@@$$CBUckpt_descriptor@Tracker_debug@@@@@Z 0044dfb0 f i debuggersd:tracker_debug.obj
 0001:0004d030       ?begin@?$Slist@U?$MBApair@$$CBVMBA_string@@$$CBUckpt_descriptor@Tracker_debug@@@@@@QAE?AV?$Slist_iterator@U?$MBApair@$$CBVMBA_string@@$$CBUckpt_descriptor@Tracker_debug@@@@@@XZ 0044e030 f i debuggersd:tracker_debug.obj
 0001:0004d080       ?end@?$Slist@U?$MBApair@$$CBVMBA_string@@$$CBUckpt_descriptor@Tracker_debug@@@@@@QAE?AV?$Slist_iterator@U?$MBApair@$$CBVMBA_string@@$$CBUckpt_descriptor@Tracker_debug@@@@@@XZ 0044e080 f i debuggersd:tracker_debug.obj
 0001:0004d0d0       ??0?$MBApair@$$CBI$$CBUckpt_descriptor@Tracker_debug@@@@QAE@ABIABUckpt_descriptor@Tracker_debug@@@Z 0044e0d0 f i debuggersd:tracker_debug.obj
 0001:0004d120       ??0?$MBApair@$$CBVMBA_string@@$$CBUckpt_descriptor@Tracker_debug@@@@QAE@ABVMBA_string@@ABUckpt_descriptor@Tracker_debug@@@Z 0044e120 f i debuggersd:tracker_debug.obj
 0001:0004d1a0       ??0?$Slist@PBUckpt_descriptor@Tracker_debug@@@@QAE@XZ 0044e1a0 f i debuggersd:tracker_debug.obj
 0001:0004d1e0       ??1?$Slist@PBUckpt_descriptor@Tracker_debug@@@@QAE@XZ 0044e1e0 f i debuggersd:tracker_debug.obj
 0001:0004d220       ?begin@?$Slist@PBUckpt_descriptor@Tracker_debug@@@@QAE?AV?$Slist_iterator@PBUckpt_descriptor@Tracker_debug@@@@XZ 0044e220 f i debuggersd:tracker_debug.obj
 0001:0004d270       ??E?$Slist_iterator@PBUckpt_descriptor@Tracker_debug@@@@QAEAAV0@XZ 0044e270 f i debuggersd:tracker_debug.obj
 0001:0004d2c0       ??D?$Slist_iterator@PBUckpt_descriptor@Tracker_debug@@@@QAEAAPBUckpt_descriptor@Tracker_debug@@XZ 0044e2c0 f i debuggersd:tracker_debug.obj
 0001:0004d310       ??0?$Slist_iterator@U?$MBApair@$$CBI$$CBUckpt_descriptor@Tracker_debug@@@@@@QAE@PAV?$Slist_item@U?$MBApair@$$CBI$$CBUckpt_descriptor@Tracker_debug@@@@@@@Z 0044e310 f i debuggersd:tracker_debug.obj
 0001:0004d350       ??0?$Slist_iterator@U?$MBApair@$$CBVMBA_string@@$$CBUckpt_descriptor@Tracker_debug@@@@@@QAE@PAV?$Slist_item@U?$MBApair@$$CBVMBA_string@@$$CBUckpt_descriptor@Tracker_debug@@@@@@@Z 0044e350 f i debuggersd:tracker_debug.obj
 0001:0004d390       ??0?$Slist_item@U?$MBApair@$$CBI$$CBUckpt_descriptor@Tracker_debug@@@@@@QAE@ABU?$MBApair@$$CBI$$CBUckpt_descriptor@Tracker_debug@@@@PAV0@@Z 0044e390 f i debuggersd:tracker_debug.obj
 0001:0004d410       ??0?$Slist_item@U?$MBApair@$$CBVMBA_string@@$$CBUckpt_descriptor@Tracker_debug@@@@@@QAE@ABU?$MBApair@$$CBVMBA_string@@$$CBUckpt_descriptor@Tracker_debug@@@@PAV0@@Z 0044e410 f i debuggersd:tracker_debug.obj
 0001:0004d490       ?erase@?$Slist@PBUckpt_descriptor@Tracker_debug@@@@QAEXXZ 0044e490 f i debuggersd:tracker_debug.obj
 0001:0004d4f0       ??0?$Slist_iterator@PBUckpt_descriptor@Tracker_debug@@@@QAE@PAV?$Slist_item@PBUckpt_descriptor@Tracker_debug@@@@@Z 0044e4f0 f i debuggersd:tracker_debug.obj
 0001:0004d530       ?delete_list@?$Slist_item@PBUckpt_descriptor@Tracker_debug@@@@QAEXXZ 0044e530 f i debuggersd:tracker_debug.obj
 0001:0004d5b0       ??_G?$Slist_item@PBUckpt_descriptor@Tracker_debug@@@@QAEPAXI@Z 0044e5b0 f i debuggersd:tracker_debug.obj
 0001:0004d610       ??1?$Slist_item@PBUckpt_descriptor@Tracker_debug@@@@QAE@XZ 0044e610 f i debuggersd:tracker_debug.obj
 0001:0004d650       ?erase@?$Slist@U?$MBApair@$$CBI$$CBUckpt_descriptor@Tracker_debug@@@@@@QAEXAAV?$Slist_iterator@U?$MBApair@$$CBI$$CBUckpt_descriptor@Tracker_debug@@@@@@@Z 0044e650 f i debuggersd:tracker_debug.obj
 0001:0004d700       ??E?$Hash_table_iterator@VMBA_string@@Uckpt_descriptor@Tracker_debug@@@@QAEAAV0@XZ 0044e700 f i debuggersd:tracker_debug.obj
 0001:0004d820       ?erase@?$Slist@U?$MBApair@$$CBVMBA_string@@$$CBUckpt_descriptor@Tracker_debug@@@@@@QAEXAAV?$Slist_iterator@U?$MBApair@$$CBVMBA_string@@$$CBUckpt_descriptor@Tracker_debug@@@@@@@Z 0044e820 f i debuggersd:tracker_debug.obj
 0001:0004d8d0       ?insert_sorted@@YAXAAV?$Slist@PBUckpt_descriptor@Tracker_debug@@@@ABQBUckpt_descriptor@Tracker_debug@@P6A_NPBU23@2@Z@Z 0044e8d0 f i debuggersd:tracker_debug.obj
 0001:0004daa0       ??4?$Slist_iterator@U?$MBApair@$$CBVMBA_string@@$$CBUckpt_descriptor@Tracker_debug@@@@@@QAEAAV0@ABV0@@Z 0044eaa0 f i debuggersd:tracker_debug.obj
 0001:0004dae0       ?empty@?$Slist@U?$MBApair@$$CBVMBA_string@@$$CBUckpt_descriptor@Tracker_debug@@@@@@QBE_NXZ 0044eae0 f i debuggersd:tracker_debug.obj
 0001:0004db20       ?insert_before@?$Slist@PBUckpt_descriptor@Tracker_debug@@@@QAE?AV?$Slist_iterator@PBUckpt_descriptor@Tracker_debug@@@@AAV2@ABQBUckpt_descriptor@Tracker_debug@@@Z 0044eb20 f i debuggersd:tracker_debug.obj
 0001:0004dc80       ?end@?$Slist@PBUckpt_descriptor@Tracker_debug@@@@QAE?AV?$Slist_iterator@PBUckpt_descriptor@Tracker_debug@@@@XZ 0044ec80 f i debuggersd:tracker_debug.obj
 0001:0004dcd0       ??9?$Slist_iterator@PBUckpt_descriptor@Tracker_debug@@@@QBE_NABV0@@Z 0044ecd0 f i debuggersd:tracker_debug.obj
 0001:0004dd10       ?push_front@?$Slist@PBUckpt_descriptor@Tracker_debug@@@@QAEXABQBUckpt_descriptor@Tracker_debug@@@Z 0044ed10 f i debuggersd:tracker_debug.obj
 0001:0004dd90       ??8?$Slist_iterator@PBUckpt_descriptor@Tracker_debug@@@@QBE_NABV0@@Z 0044ed90 f i debuggersd:tracker_debug.obj
 0001:0004ddd0       ??0?$Slist_item@PBUckpt_descriptor@Tracker_debug@@@@QAE@ABQBUckpt_descriptor@Tracker_debug@@PAV0@@Z 0044edd0 f i debuggersd:tracker_debug.obj
 0001:0004de20       ?push_back@?$Slist@PBUckpt_descriptor@Tracker_debug@@@@QAEXABQBUckpt_descriptor@Tracker_debug@@@Z 0044ee20 f i debuggersd:tracker_debug.obj
 0001:0004dee0       ??0?$Slist_item@PBUckpt_descriptor@Tracker_debug@@@@QAE@ABQBUckpt_descriptor@Tracker_debug@@@Z 0044eee0 f i debuggersd:tracker_debug.obj
 0001:0004df30       ?last@?$Slist@PBUckpt_descriptor@Tracker_debug@@@@ABEPAV?$Slist_item@PBUckpt_descriptor@Tracker_debug@@@@XZ 0044ef30 f i debuggersd:tracker_debug.obj
 0001:0004e180       ??0Conflict_db_debug@@QAE@AAVConflict_db@@AAVL2_string_map@@AAV?$basic_ostream@DU?$char_traits@D@std@@@std@@@Z 0044f180 f   debuggersd:conflict_db_debug.obj
 0001:0004e1f0       ?get_variable_value@Conflict_db_debug@@QAE?AVMBA_string@@ABVVariable@@@Z 0044f1f0 f   debuggersd:conflict_db_debug.obj
 0001:0004e250       ?get_variable_value@Conflict_db_debug@@QAE?AVMBA_string@@ABVVariable@@H@Z 0044f250 f   debuggersd:conflict_db_debug.obj
 0001:0004e330       ?assign@Conflict_db_debug@@QAEXAAVAssignable@@ABVMBA_string@@@Z 0044f330 f   debuggersd:conflict_db_debug.obj
 0001:0004e390       ?set_exogenously_assigned@Assignable@@QAEX_N@Z 0044f390 f i debuggersd:conflict_db_debug.obj
 0001:0004e3c0       ?assign@Conflict_db_debug@@QAEXPBD@Z 0044f3c0 f   debuggersd:conflict_db_debug.obj
 0001:0004ea60       ?unassign@Conflict_db_debug@@QAEXABVMBA_string@@@Z 0044fa60 f   debuggersd:conflict_db_debug.obj
 0001:0004ead0       ?print_domain_members@Conflict_db_debug@@QAEXPBVDomain@@@Z 0044fad0 f   debuggersd:conflict_db_debug.obj
 0001:0004eb80       ?begin@Domain@@QBEPBVMBA_string@@XZ 0044fb80 f i debuggersd:conflict_db_debug.obj
 0001:0004ebb0       ?end@Domain@@QBEPBVMBA_string@@XZ 0044fbb0 f i debuggersd:conflict_db_debug.obj
 0001:0004ebf0       ?cdomains@Conflict_db_debug@@QAEXABVMBA_string@@@Z 0044fbf0 f   debuggersd:conflict_db_debug.obj
 0001:0004ecd0       ?find@MBA_string@@QBEHABV1@@Z 0044fcd0 f i debuggersd:conflict_db_debug.obj
 0001:0004ed40       ?get_name@Domain@@QBEABVMBA_string@@XZ 0044fd40 f i debuggersd:conflict_db_debug.obj
 0001:0004ed70       ?print_domains@Conflict_db_debug@@QAEXXZ 0044fd70 f   debuggersd:conflict_db_debug.obj
 0001:0004edf0       ?print_assumptions@Conflict_db_debug@@QAEXXZ 0044fdf0 f   debuggersd:conflict_db_debug.obj
 0001:0004ee80       ?begin_assumptions@Conflict_db@@QAE?AV?$Slist_iterator@PAVAssumption@@@@XZ 0044fe80 f i debuggersd:conflict_db_debug.obj
 0001:0004eed0       ?end_assumptions@Conflict_db@@QAE?AV?$Slist_iterator@PAVAssumption@@@@XZ 0044fed0 f i debuggersd:conflict_db_debug.obj
 0001:0004ef20       ?print_assignables@Conflict_db_debug@@QAEXXZ 0044ff20 f   debuggersd:conflict_db_debug.obj
 0001:0004efb0       ?begin_assignables@Conflict_db@@QAE?AV?$Slist_iterator@PAVAssignable@@@@XZ 0044ffb0 f i debuggersd:conflict_db_debug.obj
 0001:0004f010       ?end_assignables@Conflict_db@@QAE?AV?$Slist_iterator@PAVAssignable@@@@XZ 00450010 f i debuggersd:conflict_db_debug.obj
 0001:0004f070       ?print_all_variable_values@Conflict_db_debug@@QAEXXZ 00450070 f   debuggersd:conflict_db_debug.obj
 0001:0004f100       ?print_all_variable_values@Conflict_db_debug@@QAEXAAV?$basic_ostream@DU?$char_traits@D@std@@@std@@@Z 00450100 f   debuggersd:conflict_db_debug.obj
 0001:0004f1a0       ?print_conflicts@Conflict_db_debug@@QAEXXZ 004501a0 f   debuggersd:conflict_db_debug.obj
 0001:0004f230       ?begin_conflicts@Conflict_db@@QAE?AV?$Slist_iterator@PBVConflict@@@@XZ 00450230 f i debuggersd:conflict_db_debug.obj
 0001:0004f280       ?end_conflicts@Conflict_db@@QAE?AV?$Slist_iterator@PBVConflict@@@@XZ 00450280 f i debuggersd:conflict_db_debug.obj
 0001:0004f2d0       ?print_conflict@Conflict_db_debug@@QAEXABVConflict@@@Z 004502d0 f i debuggersd:conflict_db_debug.obj
 0001:0004f320       ?print_conflict@Conflict_db_debug@@QAEXXZ 00450320 f   debuggersd:conflict_db_debug.obj
 0001:0004f3f0       ?get_conflicts@Conflict_db@@QAEPAV?$Slist@PBVConflict@@@@XZ 004503f0 f i debuggersd:conflict_db_debug.obj
 0001:0004f420       ?parse_cmd@Conflict_db_debug@@UAE_NPBD0@Z 00450420 f   debuggersd:conflict_db_debug.obj
 0001:0004f710       ?listener_usage@Conflict_db_debug@@UBEXXZ 00450710 f   debuggersd:conflict_db_debug.obj
 0001:0004f800       ?print_constraints@Conflict_db_debug@@QAEXPBD@Z 00450800 f   debuggersd:conflict_db_debug.obj
 0001:0004f980       ?begin_positive@Clause@@QBEPAPAVProposition@@XZ 00450980 f i debuggersd:conflict_db_debug.obj
 0001:0004f9b0       ?end_positive@Clause@@QBEPAPAVProposition@@XZ 004509b0 f i debuggersd:conflict_db_debug.obj
 0001:0004f9f0       ?begin_negative@Clause@@QBEPAPAVProposition@@XZ 004509f0 f i debuggersd:conflict_db_debug.obj
 0001:0004fa30       ?end_negative@Clause@@QBEPAPAVProposition@@XZ 00450a30 f i debuggersd:conflict_db_debug.obj
 0001:0004fa70       ?begin_clauses@Ptheory@@QBEPAPAVClause@@XZ 00450a70 f i debuggersd:conflict_db_debug.obj
 0001:0004fab0       ?end_clauses@Ptheory@@QBEPAPAVClause@@XZ 00450ab0 f i debuggersd:conflict_db_debug.obj
 0001:0004faf0       ?print_stats@Conflict_db_debug@@QAEXXZ 00450af0 f   debuggersd:conflict_db_debug.obj
 0001:0004fb80       ?print_variable_and_value@Conflict_db_debug@@QAEXABVVariable@@@Z 00450b80 f   debuggersd:conflict_db_debug.obj
 0001:0004fcb0       ?get_current@Assignable@@QBEPBVAssignment@@XZ 00450cb0 f i debuggersd:conflict_db_debug.obj
 0001:0004fce0       ?print_variable_and_value@Conflict_db_debug@@QAEXABVVariable@@AAV?$basic_ostream@DU?$char_traits@D@std@@@std@@@Z 00450ce0 f   debuggersd:conflict_db_debug.obj
 0001:0004fe00       ?get_var_name@Conflict_db_debug@@QAE?AVMBA_string@@ABVVariable@@@Z 00450e00 f   debuggersd:conflict_db_debug.obj
 0001:0004fe60       ?find_variable@Conflict_db_debug@@QAEPAVVariable@@ABVMBA_string@@_N@Z 00450e60 f   debuggersd:conflict_db_debug.obj
 0001:0004ff60       ?find_prop_index@Conflict_db_debug@@QAEHABVVariable@@ABVMBA_string@@_N@Z 00450f60 f   debuggersd:conflict_db_debug.obj
 0001:00050120       ?find_assignable@Conflict_db_debug@@QAEPAVAssignable@@ABVMBA_string@@_N@Z 00451120 f   debuggersd:conflict_db_debug.obj
 0001:00050240       ?split_assignment@Conflict_db_debug@@QAEXABVMBA_string@@AAV2@1@Z 00451240 f   debuggersd:conflict_db_debug.obj
 0001:00050500       ?find_assignment@Conflict_db_debug@@QAEPAVAssignment@@ABVMBA_string@@_N@Z 00451500 f   debuggersd:conflict_db_debug.obj
 0001:000505c0       ?find_assignment@Conflict_db_debug@@QAEPAVAssignment@@ABVMBA_string@@0_N@Z 004515c0 f   debuggersd:conflict_db_debug.obj
 0001:00050630       ?find_assignment@Conflict_db_debug@@QAEPAVAssignment@@AAVAssignable@@ABVMBA_string@@_N@Z 00451630 f   debuggersd:conflict_db_debug.obj
 0001:000506a0       ?print_assignment@Conflict_db_debug@@UAEIAAV?$basic_ostream@DU?$char_traits@D@std@@@std@@ABVAssignment@@I@Z 004516a0 f   debuggersd:conflict_db_debug.obj
 0001:000507f0       ?get_weight@Assignment@@QBEIXZ 004517f0 f i debuggersd:conflict_db_debug.obj
 0001:00050820       ?print_candidate@Conflict_db_debug@@QAEXAAV?$basic_ostream@DU?$char_traits@D@std@@@std@@ABVCandidate@@I@Z 00451820 f   debuggersd:conflict_db_debug.obj
 0001:00050940       ?print_conflict@Conflict_db_debug@@QAEXAAV?$basic_ostream@DU?$char_traits@D@std@@@std@@ABVConflict@@@Z 00451940 f   debuggersd:conflict_db_debug.obj
 0001:00050a30       ?begin@Conflict@@QBE?BV?$Slist_iterator@QAVAssignment@@@@XZ 00451a30 f i debuggersd:conflict_db_debug.obj
 0001:00050a80       ?end@Conflict@@QBE?BV?$Slist_iterator@QAVAssignment@@@@XZ 00451a80 f i debuggersd:conflict_db_debug.obj
 0001:00050ad0       ?begin@?$Slist@PBVConflict@@@@QAE?AV?$Slist_iterator@PBVConflict@@@@XZ 00451ad0 f i debuggersd:conflict_db_debug.obj
 0001:00050b20       ?end@?$Slist@PBVConflict@@@@QAE?AV?$Slist_iterator@PBVConflict@@@@XZ 00451b20 f i debuggersd:conflict_db_debug.obj
 0001:00050b70       ?begin@?$Array@PAVClause@@$0A@@@QBEPAPAVClause@@XZ 00451b70 f i debuggersd:conflict_db_debug.obj
 0001:00050ba0       ?end@?$Array@PAVClause@@$0A@@@QBEPAPAVClause@@XZ 00451ba0 f i debuggersd:conflict_db_debug.obj
 0001:00050be0       ?size@?$Array@PAVClause@@$0A@@@QBEIXZ 00451be0 f i debuggersd:conflict_db_debug.obj
 0001:00050c10       ?begin@?$Slist@PAVAssignment@@@@QBE?AV?$Slist_iterator@QAVAssignment@@@@XZ 00451c10 f i debuggersd:conflict_db_debug.obj
 0001:00050c60       ?end@?$Slist@PAVAssignment@@@@QBE?AV?$Slist_iterator@QAVAssignment@@@@XZ 00451c60 f i debuggersd:conflict_db_debug.obj
 0001:00050cb0       ??E?$Slist_iterator@QAVAssignment@@@@QAEAAV0@XZ 00451cb0 f i debuggersd:conflict_db_debug.obj
 0001:00050d00       ??D?$Slist_iterator@QAVAssignment@@@@QAEABQAVAssignment@@XZ 00451d00 f i debuggersd:conflict_db_debug.obj
 0001:00050d50       ??9?$Slist_iterator@QAVAssignment@@@@QBE_NABV0@@Z 00451d50 f i debuggersd:conflict_db_debug.obj
 0001:00050d90       ?begin@?$Slist@PAVAssignable@@@@QAE?AV?$Slist_iterator@PAVAssignable@@@@XZ 00451d90 f i debuggersd:conflict_db_debug.obj
 0001:00050de0       ?end@?$Slist@PAVAssignable@@@@QAE?AV?$Slist_iterator@PAVAssignable@@@@XZ 00451de0 f i debuggersd:conflict_db_debug.obj
 0001:00050e30       ?begin@?$Slist@PAVAssumption@@@@QAE?AV?$Slist_iterator@PAVAssumption@@@@XZ 00451e30 f i debuggersd:conflict_db_debug.obj
 0001:00050e80       ?end@?$Slist@PAVAssumption@@@@QAE?AV?$Slist_iterator@PAVAssumption@@@@XZ 00451e80 f i debuggersd:conflict_db_debug.obj
 0001:00050ed0       ??E?$Slist_iterator@PAVAssignable@@@@QAEAAV0@XZ 00451ed0 f i debuggersd:conflict_db_debug.obj
 0001:00050f20       ??D?$Slist_iterator@PAVAssignable@@@@QAEAAPAVAssignable@@XZ 00451f20 f i debuggersd:conflict_db_debug.obj
 0001:00050f70       ??9?$Slist_iterator@PAVAssignable@@@@QBE_NABV0@@Z 00451f70 f i debuggersd:conflict_db_debug.obj
 0001:00050fb0       ??E?$Slist_iterator@PAVAssumption@@@@QAEAAV0@XZ 00451fb0 f i debuggersd:conflict_db_debug.obj
 0001:00051000       ??D?$Slist_iterator@PAVAssumption@@@@QAEAAPAVAssumption@@XZ 00452000 f i debuggersd:conflict_db_debug.obj
 0001:00051050       ??9?$Slist_iterator@PAVAssumption@@@@QBE_NABV0@@Z 00452050 f i debuggersd:conflict_db_debug.obj
 0001:00051090       ??E?$Slist_iterator@PBVConflict@@@@QAEAAV0@XZ 00452090 f i debuggersd:conflict_db_debug.obj
 0001:000510e0       ??D?$Slist_iterator@PBVConflict@@@@QAEAAPBVConflict@@XZ 004520e0 f i debuggersd:conflict_db_debug.obj
 0001:00051130       ??9?$Slist_iterator@PBVConflict@@@@QBE_NABV0@@Z 00452130 f i debuggersd:conflict_db_debug.obj
 0001:00051170       ??0?$Slist_iterator@QAVAssignment@@@@QAE@PAV?$Slist_item@QAVAssignment@@@@@Z 00452170 f i debuggersd:conflict_db_debug.obj
 0001:000511b0       ??0?$Slist_iterator@PAVAssignable@@@@QAE@PAV?$Slist_item@PAVAssignable@@@@@Z 004521b0 f i debuggersd:conflict_db_debug.obj
 0001:000511f0       ??0?$Slist_iterator@PAVAssumption@@@@QAE@PAV?$Slist_item@PAVAssumption@@@@@Z 004521f0 f i debuggersd:conflict_db_debug.obj
 0001:00051230       ??0?$Slist_iterator@PBVConflict@@@@QAE@PAV?$Slist_item@PBVConflict@@@@@Z 00452230 f i debuggersd:conflict_db_debug.obj
 0001:00051580       ??0LTMS_debug@@QAE@AAVLTMS@@AAVL2_string_map@@AAV?$basic_ostream@DU?$char_traits@D@std@@@std@@@Z 00452580 f   debuggersd:ltms_debug.obj
 0001:00051600       ?get_indent_string@LTMS_debug@@SA?AVMBA_string@@I@Z 00452600 f   debuggersd:ltms_debug.obj
 0001:000516e0       ?begin_timing@LTMS_debug@@IAEXXZ 004526e0 f   debuggersd:ltms_debug.obj
 0001:00051720       ?end_timing@LTMS_debug@@IAEXXZ 00452720 f   debuggersd:ltms_debug.obj
 0001:000517b0       ?listener_usage@LTMS_debug@@UBEXXZ 004527b0 f   debuggersd:ltms_debug.obj
 0001:000518b0       ?show_proposition_support@LTMS_debug@@AAEXAAVProposition@@@Z 004528b0 f   debuggersd:ltms_debug.obj
 0001:000519c0       ?get_proposition_support@LTMS@@QAEXAAVProposition@@AAV?$Slist@PAVClause@@@@P6A_NABVClause@@@Z@Z 004529c0 f i debuggersd:ltms_debug.obj
 0001:00051a30       ?get_supported_by@Proposition@@QAEPAVClause@@XZ 00452a30 f i debuggersd:ltms_debug.obj
 0001:00051a90       ?show_proposition_support@LTMS_debug@@AAEXAAVMBA_string@@@Z 00452a90 f   debuggersd:ltms_debug.obj
 0001:00051b10       ?doAdd@LTMS_debug@@AAEXPBD@Z 00452b10 f   debuggersd:ltms_debug.obj
 0001:00051be0       ?doRemove@LTMS_debug@@AAEXPBD@Z 00452be0 f   debuggersd:ltms_debug.obj
 0001:00051cb0       ?doPartialPropagate@LTMS_debug@@AAEXPBD@Z 00452cb0 f   debuggersd:ltms_debug.obj
 0001:00051dd0       ?doPropagate@LTMS_debug@@AAEXPBD@Z 00452dd0 f   debuggersd:ltms_debug.obj
 0001:00051e70       ?doUnsatisfied@LTMS_debug@@AAEXPBD@Z 00452e70 f   debuggersd:ltms_debug.obj
 0001:00051ef0       ?begin_unsatisfied@LTMS@@QBEPAPAVClause@@XZ 00452ef0 f i debuggersd:ltms_debug.obj
 0001:00051f30       ?end_unsatisfied@LTMS@@QBEPAPAVClause@@XZ 00452f30 f i debuggersd:ltms_debug.obj
 0001:00051f70       ?doStatus@LTMS_debug@@AAEXPBD@Z 00452f70 f   debuggersd:ltms_debug.obj
 0001:00052020       ?parse_cmd@LTMS_debug@@UAE_NPBD0@Z 00453020 f   debuggersd:ltms_debug.obj
 0001:00052300       ?toggle_timing@LTMS_debug@@QAEXXZ 00453300 f i debuggersd:ltms_debug.obj
 0001:00052340       ?listener@LTMS_debug@@QAEXXZ 00453340 f   debuggersd:ltms_debug.obj
 0001:00052440       ?prop_contains_string@LTMS_debug@@QBE_NPAVProposition@@PBD@Z 00453440 f   debuggersd:ltms_debug.obj
 0001:00052500       ?cprops@LTMS_debug@@QAEXPBD_N@Z 00453500 f   debuggersd:ltms_debug.obj
 0001:000525d0       ?isTrue@Proposition@@QBE_NXZ 004535d0 f i debuggersd:ltms_debug.obj
 0001:00052610       ?begin_propositions@Ptheory@@QBEPAPAVProposition@@XZ 00453610 f i debuggersd:ltms_debug.obj
 0001:00052650       ?end_propositions@Ptheory@@QBEPAPAVProposition@@XZ 00453650 f i debuggersd:ltms_debug.obj
 0001:00052690       ?pretty_print_clause_no_negative@LTMS_debug@@AAEXABVClause@@@Z 00453690 f   debuggersd:ltms_debug.obj
 0001:00052770       ?number_of_positive_literals@Clause@@QBECXZ 00453770 f i debuggersd:ltms_debug.obj
 0001:000527a0       ?pretty_print_clause_no_positive@LTMS_debug@@AAEXABVClause@@@Z 004537a0 f   debuggersd:ltms_debug.obj
 0001:00052860       ?number_of_negative_literals@Clause@@QBECXZ 00453860 f i debuggersd:ltms_debug.obj
 0001:000528a0       ?pretty_print_clause_positive_and_negative@LTMS_debug@@AAEXABVClause@@@Z 004538a0 f   debuggersd:ltms_debug.obj
 0001:000529f0       ?pretty_print_clause@LTMS_debug@@QAEXABVClause@@@Z 004539f0 f   debuggersd:ltms_debug.obj
 0001:00052a70       ?print_clause@LTMS_debug@@QAEXABVClause@@@Z 00453a70 f   debuggersd:ltms_debug.obj
 0001:00052ba0       ?is_in_fringe@Clause@@QBE_NXZ 00453ba0 f i debuggersd:ltms_debug.obj
 0001:00052be0       ?explain_clause@LTMS_debug@@AAEXAAVClause@@I@Z 00453be0 f   debuggersd:ltms_debug.obj
 0001:00052dd0       ?get_satisfying_prop@Clause@@QBEPBVProposition@@XZ 00453dd0 f i debuggersd:ltms_debug.obj
 0001:00052e00       ?explain_proposition@LTMS_debug@@QAEXAAVMBA_string@@I@Z 00453e00 f   debuggersd:ltms_debug.obj
 0001:00052e90       ?explain_proposition@LTMS_debug@@AAEXAAVProposition@@I@Z 00453e90 f   debuggersd:ltms_debug.obj
 0001:00052f00       ?find_literal_clause@LTMS_debug@@AAEPAVClause@@AAVMBA_string@@@Z 00453f00 f   debuggersd:ltms_debug.obj
 0001:00052fc0       ?begin_positive@Proposition@@QBEPAPAVClause@@XZ 00453fc0 f i debuggersd:ltms_debug.obj
 0001:00053000       ?end_positive@Proposition@@QBEPAPAVClause@@XZ 00454000 f i debuggersd:ltms_debug.obj
 0001:00053040       ?number_of_literals@Clause@@QBECXZ 00454040 f i debuggersd:ltms_debug.obj
 0001:00053070       ?print_trace_indent@LTMS_debug@@AAEXI@Z 00454070 f   debuggersd:ltms_debug.obj
 0001:000530f0       ?print_proposition@LTMS_debug@@AAEXPAVProposition@@_N@Z 004540f0 f   debuggersd:ltms_debug.obj
 0001:00053200       ?isFalse@Proposition@@QBE_NXZ 00454200 f i debuggersd:ltms_debug.obj
 0001:00053230       ?print_propositions@LTMS_debug@@QAEXXZ 00454230 f   debuggersd:ltms_debug.obj
 0001:000532a0       ?print_stats@LTMS_debug@@AAEXXZ 004542a0 f   debuggersd:ltms_debug.obj
 0001:00053330       ?num_clauses@Ptheory@@QBEIXZ 00454330 f i debuggersd:ltms_debug.obj
 0001:00053370       ?num_propositions@Ptheory@@QBEIXZ 00454370 f i debuggersd:ltms_debug.obj
 0001:000533b0       ?clause_iterator@LTMS_debug@@QAEXAAVClauseCallbackObject@1@@Z 004543b0 f   debuggersd:ltms_debug.obj
 0001:00053430       ??RClauseStringChecker@LTMS_debug@@UAEXAAVClause@@@Z 00454430 f   debuggersd:ltms_debug.obj
 0001:00053560       ?cclauses@LTMS_debug@@QAEXPBD_N@Z 00454560 f   debuggersd:ltms_debug.obj
 0001:000535c0       ??0ClauseStringChecker@LTMS_debug@@QAE@PAV1@AAV?$basic_ostream@DU?$char_traits@D@std@@@std@@PBD_N@Z 004545c0 f i debuggersd:ltms_debug.obj
 0001:00053630       ??0ClauseCallbackObject@LTMS_debug@@QAE@XZ 00454630 f i debuggersd:ltms_debug.obj
 0001:00053660       ??0ClauseStringChecker@LTMS_debug@@QAE@ABV01@@Z 00454660 f i debuggersd:ltms_debug.obj
 0001:000536e0       ??0ClauseCallbackObject@LTMS_debug@@QAE@ABV01@@Z 004546e0 f i debuggersd:ltms_debug.obj
 0001:00053720       ?find_proposition@LTMS_debug@@QBEPAVProposition@@AAVMBA_string@@@Z 00454720 f   debuggersd:ltms_debug.obj
 0001:00053760       ?get_prop_name@LTMS_debug@@QBE?AVMBA_string@@AAVProposition@@@Z 00454760 f   debuggersd:ltms_debug.obj
 0001:000537c0       ??6?$basic_ostream@DU?$char_traits@D@std@@@std@@QAEAAV01@M@Z 004547c0 f i debuggersd:ltms_debug.obj
 0001:00053980       ?begin@?$Array@PAVProposition@@$0A@@@QBEPAPAVProposition@@XZ 00454980 f i debuggersd:ltms_debug.obj
 0001:000539b0       ?end@?$Array@PAVProposition@@$0A@@@QBEPAPAVProposition@@XZ 004549b0 f i debuggersd:ltms_debug.obj
 0001:000539f0       ?put@?$num_put@DV?$ostreambuf_iterator@DU?$char_traits@D@std@@@std@@@std@@QBE?AV?$ostreambuf_iterator@DU?$char_traits@D@std@@@2@V32@AAVios_base@2@DN@Z 004549f0 f i debuggersd:ltms_debug.obj
 0001:00053a60       ??5std@@YAAAV?$basic_istream@DU?$char_traits@D@std@@@0@AAV10@PAD@Z 00454a60 f i debuggersd:ltms_debug.obj
 0001:00053fe0       ??0L2_string_map_listener@@QAE@AAVL2_string_map@@AAVL2_file@@AAVto_t_system@@AAVTracker@@@Z 00454fe0 f   debuggersd:L2_string_map_listener.obj
 0001:000542c0       ?add_listener@Ptheory@@QAEXPAVPtheory_listener@@@Z 004552c0 f i debuggersd:L2_string_map_listener.obj
 0001:00054310       ?add_listener@Conflict_db@@QAEXPAVConflict_db_listener@@@Z 00455310 f i debuggersd:L2_string_map_listener.obj
 0001:00054360       ?add_listener@T_system@@QAEXPAVT_system_listener@@@Z 00455360 f i debuggersd:L2_string_map_listener.obj
 0001:000543b0       ?add_listener@to_t_system@@QAEXPAVto_t_system_listener@@@Z 004553b0 f i debuggersd:L2_string_map_listener.obj
 0001:000543f0       ?add_listener@Tracker@@QAEXPAVTracker_listener@@@Z 004553f0 f i debuggersd:L2_string_map_listener.obj
 0001:00054430       ??_EL2_string_map_listener@@UAEPAXI@Z 00455430 f i debuggersd:L2_string_map_listener.obj
 0001:00054430       ??_GL2_string_map_listener@@UAEPAXI@Z 00455430 f i debuggersd:L2_string_map_listener.obj
 0001:00054490       ??0to_t_system_listener@@QAE@XZ 00455490 f i debuggersd:L2_string_map_listener.obj
 0001:000544c0       ??0Tracker_listener@@QAE@XZ 004554c0 f i debuggersd:L2_string_map_listener.obj
 0001:000544f0       ??0T_system_listener@@QAE@XZ 004554f0 f i debuggersd:L2_string_map_listener.obj
 0001:00054520       ??0Conflict_db_listener@@QAE@XZ 00455520 f i debuggersd:L2_string_map_listener.obj
 0001:00054550       ??0Ptheory_listener@@QAE@XZ 00455550 f i debuggersd:L2_string_map_listener.obj
 0001:00054580       ??1L2_string_map_listener@@UAE@XZ 00455580 f   debuggersd:L2_string_map_listener.obj
 0001:00054790       ?remove_listener@Ptheory@@QAEXPAVPtheory_listener@@@Z 00455790 f i debuggersd:L2_string_map_listener.obj
 0001:000547e0       ?remove_listener@Conflict_db@@QAEXPAVConflict_db_listener@@@Z 004557e0 f i debuggersd:L2_string_map_listener.obj
 0001:00054830       ?remove_listener@T_system@@QAEXPAVT_system_listener@@@Z 00455830 f i debuggersd:L2_string_map_listener.obj
 0001:00054880       ?created_variable@L2_string_map_listener@@EAEXPBVL2rVariable@@AAVVariable@@@Z 00455880 f   debuggersd:L2_string_map_listener.obj
 0001:000548d0       ?created_clause@L2_string_map_listener@@EAEXPBVL2rClause@@AAVClause@@@Z 004558d0 f   debuggersd:L2_string_map_listener.obj
 0001:00054900       ?created_clause@L2_string_map_listener@@EAEXPBVL2rVariable@@AAVClause@@@Z 00455900 f   debuggersd:L2_string_map_listener.obj
 0001:00054930       ?destroying_container@L2_string_map_listener@@EAEXAAVto_t_system@@@Z 00455930 f   debuggersd:L2_string_map_listener.obj
 0001:00054960       ?destroying_container@L2_string_map_listener@@EAEXAAVTracker@@@Z 00455960 f   debuggersd:L2_string_map_listener.obj
 0001:000549f0       ?progressed_variable@L2_string_map_listener@@EAEXAAVVariable@@0@Z 004559f0 f   debuggersd:L2_string_map_listener.obj
 0001:00054a30       ?created_state_variable@L2_string_map_listener@@EAEXAAVAssignable@@@Z 00455a30 f   debuggersd:L2_string_map_listener.obj
 0001:00054a90       ?created_mode_transition@L2_string_map_listener@@EAEXAAVDependent@@AAVAssumption@@@Z 00455a90 f   debuggersd:L2_string_map_listener.obj
 0001:00054ad0       ?destroying_container@L2_string_map_listener@@EAEXAAVT_system@@@Z 00455ad0 f   debuggersd:L2_string_map_listener.obj
 0001:00054b60       ?created_variable@L2_string_map_listener@@EAEXAAVVariable@@@Z 00455b60 f   debuggersd:L2_string_map_listener.obj
 0001:00054b90       ?destroying_variable@L2_string_map_listener@@EAEXAAVVariable@@@Z 00455b90 f   debuggersd:L2_string_map_listener.obj
 0001:00054bd0       ?destroying_container@L2_string_map_listener@@EAEXAAVConflict_db@@@Z 00455bd0 f   debuggersd:L2_string_map_listener.obj
 0001:00054c60       ?created_proposition@L2_string_map_listener@@EAEXAAVProposition@@@Z 00455c60 f   debuggersd:L2_string_map_listener.obj
 0001:00054c90       ?created_clause@L2_string_map_listener@@EAEXAAVClause@@@Z 00455c90 f   debuggersd:L2_string_map_listener.obj
 0001:00054cc0       ?destroying_proposition@L2_string_map_listener@@EAEXAAVProposition@@@Z 00455cc0 f   debuggersd:L2_string_map_listener.obj
 0001:00054d00       ?destroying_clause@L2_string_map_listener@@EAEXAAVClause@@@Z 00455d00 f   debuggersd:L2_string_map_listener.obj
 0001:00054d30       ?destroying_container@L2_string_map_listener@@EAEXAAVPtheory@@@Z 00455d30 f   debuggersd:L2_string_map_listener.obj
 0001:00054dc0       ?push_front@?$Slist@PAVPtheory_listener@@@@QAEXABQAVPtheory_listener@@@Z 00455dc0 f i debuggersd:L2_string_map_listener.obj
 0001:00054e40       ?push_front@?$Slist@PAVConflict_db_listener@@@@QAEXABQAVConflict_db_listener@@@Z 00455e40 f i debuggersd:L2_string_map_listener.obj
 0001:00054ec0       ?push_front@?$Slist@PAVT_system_listener@@@@QAEXABQAVT_system_listener@@@Z 00455ec0 f i debuggersd:L2_string_map_listener.obj
 0001:00054f40       ?push_front@?$Slist@PAVto_t_system_listener@@@@QAEXABQAVto_t_system_listener@@@Z 00455f40 f i debuggersd:L2_string_map_listener.obj
 0001:00054fc0       ?push_front@?$Slist@PAVTracker_listener@@@@QAEXABQAVTracker_listener@@@Z 00455fc0 f i debuggersd:L2_string_map_listener.obj
 0001:00055040       ??0?$Slist_item@PAVPtheory_listener@@@@QAE@ABQAVPtheory_listener@@PAV0@@Z 00456040 f i debuggersd:L2_string_map_listener.obj
 0001:00055090       ??0?$Slist_item@PAVConflict_db_listener@@@@QAE@ABQAVConflict_db_listener@@PAV0@@Z 00456090 f i debuggersd:L2_string_map_listener.obj
 0001:000550e0       ??0?$Slist_item@PAVT_system_listener@@@@QAE@ABQAVT_system_listener@@PAV0@@Z 004560e0 f i debuggersd:L2_string_map_listener.obj
 0001:00055130       ??0?$Slist_item@PAVto_t_system_listener@@@@QAE@ABQAVto_t_system_listener@@PAV0@@Z 00456130 f i debuggersd:L2_string_map_listener.obj
 0001:00055180       ??0?$Slist_item@PAVTracker_listener@@@@QAE@ABQAVTracker_listener@@PAV0@@Z 00456180 f i debuggersd:L2_string_map_listener.obj
 0001:000551d0       ?remove_first@?$Slist@PAVPtheory_listener@@@@QAEXABQAVPtheory_listener@@@Z 004561d0 f i debuggersd:L2_string_map_listener.obj
 0001:000552d0       ??_G?$Slist_item@PAVPtheory_listener@@@@QAEPAXI@Z 004562d0 f i debuggersd:L2_string_map_listener.obj
 0001:00055330       ??1?$Slist_item@PAVPtheory_listener@@@@QAE@XZ 00456330 f i debuggersd:L2_string_map_listener.obj
 0001:00055370       ?remove_first@?$Slist@PAVConflict_db_listener@@@@QAEXABQAVConflict_db_listener@@@Z 00456370 f i debuggersd:L2_string_map_listener.obj
 0001:00055470       ??_G?$Slist_item@PAVConflict_db_listener@@@@QAEPAXI@Z 00456470 f i debuggersd:L2_string_map_listener.obj
 0001:000554d0       ??1?$Slist_item@PAVConflict_db_listener@@@@QAE@XZ 004564d0 f i debuggersd:L2_string_map_listener.obj
 0001:00055510       ?remove_first@?$Slist@PAVT_system_listener@@@@QAEXABQAVT_system_listener@@@Z 00456510 f i debuggersd:L2_string_map_listener.obj
 0001:00055720       ?created_variable@L2_string_map_listener@@$0PPPPPPPM@A@AEXPBVL2rVariable@@AAVVariable@@@Z 00456720 f i debuggersd:L2_string_map_listener.obj
 0001:00055730       ?created_clause@L2_string_map_listener@@$0PPPPPPPM@A@AEXPBVL2rVariable@@AAVClause@@@Z 00456730 f i debuggersd:L2_string_map_listener.obj
 0001:00055740       ?created_clause@L2_string_map_listener@@$0PPPPPPPM@A@AEXPBVL2rClause@@AAVClause@@@Z 00456740 f i debuggersd:L2_string_map_listener.obj
 0001:00055750       ?destroying_container@L2_string_map_listener@@$0PPPPPPPM@A@AEXAAVto_t_system@@@Z 00456750 f i debuggersd:L2_string_map_listener.obj
 0001:00055760       ?destroying_container@L2_string_map_listener@@$0PPPPPPPM@A@AEXAAVTracker@@@Z 00456760 f i debuggersd:L2_string_map_listener.obj
 0001:00055770       ?progressed_variable@L2_string_map_listener@@$0PPPPPPPM@A@AEXAAVVariable@@0@Z 00456770 f i debuggersd:L2_string_map_listener.obj
 0001:00055780       ?created_state_variable@L2_string_map_listener@@$0PPPPPPPM@A@AEXAAVAssignable@@@Z 00456780 f i debuggersd:L2_string_map_listener.obj
 0001:00055790       ?created_mode_transition@L2_string_map_listener@@$0PPPPPPPM@A@AEXAAVDependent@@AAVAssumption@@@Z 00456790 f i debuggersd:L2_string_map_listener.obj
 0001:000557a0       ?destroying_container@L2_string_map_listener@@$0PPPPPPPM@A@AEXAAVT_system@@@Z 004567a0 f i debuggersd:L2_string_map_listener.obj
 0001:000557b0       ?created_variable@L2_string_map_listener@@$0PPPPPPPM@A@AEXAAVVariable@@@Z 004567b0 f i debuggersd:L2_string_map_listener.obj
 0001:000557c0       ?destroying_variable@L2_string_map_listener@@$0PPPPPPPM@A@AEXAAVVariable@@@Z 004567c0 f i debuggersd:L2_string_map_listener.obj
 0001:000557d0       ?destroying_container@L2_string_map_listener@@$0PPPPPPPM@A@AEXAAVConflict_db@@@Z 004567d0 f i debuggersd:L2_string_map_listener.obj
 0001:000557e0       ?created_proposition@L2_string_map_listener@@$0PPPPPPPM@A@AEXAAVProposition@@@Z 004567e0 f i debuggersd:L2_string_map_listener.obj
 0001:000557f0       ?created_clause@L2_string_map_listener@@$0PPPPPPPM@A@AEXAAVClause@@@Z 004567f0 f i debuggersd:L2_string_map_listener.obj
 0001:00055800       ?destroying_proposition@L2_string_map_listener@@$0PPPPPPPM@A@AEXAAVProposition@@@Z 00456800 f i debuggersd:L2_string_map_listener.obj
 0001:00055810       ?destroying_clause@L2_string_map_listener@@$0PPPPPPPM@A@AEXAAVClause@@@Z 00456810 f i debuggersd:L2_string_map_listener.obj
 0001:00055820       ?destroying_container@L2_string_map_listener@@$0PPPPPPPM@A@AEXAAVPtheory@@@Z 00456820 f i debuggersd:L2_string_map_listener.obj
 0001:00055a30       ??0Domain@@QAE@ABVMBA_string@@I@Z 00456a30 f   debuggersd:domain.obj
 0001:00055b80       ??_GDomain@@UAEPAXI@Z      00456b80 f i debuggersd:domain.obj
 0001:00055b80       ??_EDomain@@UAEPAXI@Z      00456b80 f i debuggersd:domain.obj
 0001:00055be0       ??0Domain@@QAE@PBVL2rEnumeration@@@Z 00456be0 f   debuggersd:domain.obj
 0001:00055e80       ??0Domain@@QAE@PBVL2rMode@@@Z 00456e80 f   debuggersd:domain.obj
 0001:00056240       ??_D?$basic_ostringstream@DU?$char_traits@D@std@@V?$allocator@D@2@@std@@QAEXXZ 00457240 f i debuggersd:domain.obj
 0001:00056290       ??0Domain@@QAE@ABVMBA_string@@PBV1@I@Z 00457290 f   debuggersd:domain.obj
 0001:000563d0       ??1Domain@@UAE@XZ          004573d0 f   debuggersd:domain.obj
 0001:00056490       ?value@Domain@@QBEHABVMBA_string@@@Z 00457490 f   debuggersd:domain.obj
 0001:00056510       ??0?$basic_ostringstream@DU?$char_traits@D@std@@V?$allocator@D@2@@std@@QAE@H@Z 00457510 f i debuggersd:domain.obj
 0001:000565e0       ??1?$basic_ostringstream@DU?$char_traits@D@std@@V?$allocator@D@2@@std@@UAE@XZ 004575e0 f i debuggersd:domain.obj
 0001:00056670       ?str@?$basic_ostringstream@DU?$char_traits@D@std@@V?$allocator@D@2@@std@@QBE?AV?$basic_string@DU?$char_traits@D@std@@V?$allocator@D@2@@2@XZ 00457670 f i debuggersd:domain.obj
 0001:000566d0       ??1?$basic_stringbuf@DU?$char_traits@D@std@@V?$allocator@D@2@@std@@UAE@XZ 004576d0 f i debuggersd:domain.obj
 0001:00056750       ?overflow@?$basic_stringbuf@DU?$char_traits@D@std@@V?$allocator@D@2@@std@@MAEHH@Z 00457750 f i debuggersd:domain.obj
 0001:000569d0       ?pbackfail@?$basic_stringbuf@DU?$char_traits@D@std@@V?$allocator@D@2@@std@@MAEHH@Z 004579d0 f i debuggersd:domain.obj
 0001:00056ae0       ?eq@?$char_traits@D@std@@SA_NABD0@Z 00457ae0 f i debuggersd:domain.obj
 0001:00056b20       ?underflow@?$basic_stringbuf@DU?$char_traits@D@std@@V?$allocator@D@2@@std@@MAEHXZ 00457b20 f i debuggersd:domain.obj
 0001:00056c30       ?seekoff@?$basic_stringbuf@DU?$char_traits@D@std@@V?$allocator@D@2@@std@@MAE?AV?$fpos@H@2@JW4seekdir@ios_base@2@H@Z 00457c30 f i debuggersd:domain.obj
 0001:00056e60       ?seekpos@?$basic_stringbuf@DU?$char_traits@D@std@@V?$allocator@D@2@@std@@MAE?AV?$fpos@H@2@V32@H@Z 00457e60 f i debuggersd:domain.obj
 0001:00056ff0       ??_E?$basic_ostringstream@DU?$char_traits@D@std@@V?$allocator@D@2@@std@@UAEPAXI@Z 00457ff0 f i debuggersd:domain.obj
 0001:00056ff0       ??_G?$basic_ostringstream@DU?$char_traits@D@std@@V?$allocator@D@2@@std@@UAEPAXI@Z 00457ff0 f i debuggersd:domain.obj
 0001:00057050       ??_E?$basic_stringbuf@DU?$char_traits@D@std@@V?$allocator@D@2@@std@@UAEPAXI@Z 00458050 f i debuggersd:domain.obj
 0001:00057050       ??_G?$basic_stringbuf@DU?$char_traits@D@std@@V?$allocator@D@2@@std@@UAEPAXI@Z 00458050 f i debuggersd:domain.obj
 0001:000570b0       ?pbase@?$basic_streambuf@DU?$char_traits@D@std@@@std@@IBEPADXZ 004580b0 f i debuggersd:domain.obj
 0001:000570e0       ?setp@?$basic_streambuf@DU?$char_traits@D@std@@@std@@IAEXPAD00@Z 004580e0 f i debuggersd:domain.obj
 0001:00057130       ??0?$basic_stringbuf@DU?$char_traits@D@std@@V?$allocator@D@2@@std@@QAE@H@Z 00458130 f i debuggersd:domain.obj
 0001:000571c0       ?str@?$basic_stringbuf@DU?$char_traits@D@std@@V?$allocator@D@2@@std@@QBE?AV?$basic_string@DU?$char_traits@D@std@@V?$allocator@D@2@@2@XZ 004581c0 f i debuggersd:domain.obj
 0001:00057360       ??0?$basic_string@DU?$char_traits@D@std@@V?$allocator@D@2@@std@@QAE@ABV01@@Z 00458360 f i debuggersd:domain.obj
 0001:000573c0       ?_Tidy@?$basic_stringbuf@DU?$char_traits@D@std@@V?$allocator@D@2@@std@@IAEXXZ 004583c0 f i debuggersd:domain.obj
 0001:00057460       ??0?$basic_string@DU?$char_traits@D@std@@V?$allocator@D@2@@std@@QAE@PBDIABV?$allocator@D@1@@Z 00458460 f i debuggersd:domain.obj
 0001:000574c0       ?_Init@?$basic_stringbuf@DU?$char_traits@D@std@@V?$allocator@D@2@@std@@IAEXPBDIH@Z 004584c0 f i debuggersd:domain.obj
 0001:00057600       ?_Mode@?$basic_stringbuf@DU?$char_traits@D@std@@V?$allocator@D@2@@std@@AAEHH@Z 00458600 f i debuggersd:domain.obj
 0001:00057970       ??0Parts@Trajectory@@QAE@PBVAssignment@@@Z 00458970 f   debuggersd:trajectory.obj
 0001:00057cb0       ??1T_system@@UAE@XZ        00458cb0 f   transitiond:T_system.obj
 0001:00057ec0       ??_GProto_constraint@T_system@@QAEPAXI@Z 00458ec0 f i transitiond:T_system.obj
 0001:00057f20       ??1Proto_constraint@T_system@@QAE@XZ 00458f20 f i transitiond:T_system.obj
 0001:00057fa0       ?progress@T_system@@QAEXPAVAssignment@@@Z 00458fa0 f   transitiond:T_system.obj
 0001:00058000       ?minimal_progress@T_system@@QAEXPAVAssignment@@@Z 00459000 f   transitiond:T_system.obj
 0001:00058120       ?assign@Assignable@@QAEXI@Z 00459120 f i transitiond:T_system.obj
 0001:000581f0       ?next_timestep@T_system@@QAEIXZ 004591f0 f i transitiond:T_system.obj
 0001:00058240       ?has_indexed_transitions@Transitioned@@QAE_NABVAssignment@@@Z 00459240 f i transitiond:T_system.obj
 0001:00058290       ?full_progress_copy_variables@T_system@@AAEXPBVAssignment@@@Z 00459290 f   transitiond:T_system.obj
 0001:00058430       ?full_progress_create_constraints@T_system@@AAEXXZ 00459430 f   transitiond:T_system.obj
 0001:000584d0       ?instantiate_in_past@Proto_constraint@T_system@@QBEXAAV2@@Z 004594d0 f i transitiond:T_system.obj
 0001:00058520       ?full_progress_make_assignments@T_system@@AAEXPBVAssignment@@@Z 00459520 f   transitiond:T_system.obj
 0001:00058690       ?assign@Assignable@@QAEXABV1@@Z 00459690 f i transitiond:T_system.obj
 0001:00058700       ?full_progress@T_system@@QAEXPBVAssignment@@@Z 00459700 f   transitiond:T_system.obj
 0001:00058770       ?splice@T_system@@IAEXAAVTransitioned@@AAVDependent@@@Z 00459770 f   transitiond:T_system.obj
 0001:000588a0       ?copy_in_past@T_system@@AAEPAVDependent@@AAV2@@Z 004598a0 f   transitiond:T_system.obj
 0001:00058980       ?create_dependent@Conflict_db@@QAEPAVDependent@@III@Z 00459980 f i transitiond:T_system.obj
 0001:000589f0       ??0Dependent@@QAE@AAVConflict_db@@III@Z 004599f0 f i transitiond:T_system.obj
 0001:00058a50       ?save@Variable@@UAEXXZ     00459a50 f i transitiond:T_system.obj
 0001:00058a80       ?restore@Variable@@UAEXXZ  00459a80 f i transitiond:T_system.obj
 0001:00058ab0       ?unassign@Variable@@UAEXXZ 00459ab0 f i transitiond:T_system.obj
 0001:00058ae0       ?is_assignable@Dependent@@UBE_NXZ 00459ae0 f i transitiond:T_system.obj
 0001:00058b10       ?is_assumption@Dependent@@UBE_NXZ 00459b10 f i transitiond:T_system.obj
 0001:00058b40       ?is_command@Dependent@@UBE_NXZ 00459b40 f i transitiond:T_system.obj
 0001:00058b70       ?is_dependent@Dependent@@UBE_NXZ 00459b70 f i transitiond:T_system.obj
 0001:00058ba0       ?is_observable@Dependent@@UBE_NXZ 00459ba0 f i transitiond:T_system.obj
 0001:00058bd0       ?is_state_variable@Dependent@@UBE_NXZ 00459bd0 f i transitiond:T_system.obj
 0001:00058c00       ?is_transition@Dependent@@UBE_NXZ 00459c00 f i transitiond:T_system.obj
 0001:00058c30       ?is_transitioned@Dependent@@UBE_NXZ 00459c30 f i transitiond:T_system.obj
 0001:00058c60       ??_EDependent@@UAEPAXI@Z   00459c60 f i transitiond:T_system.obj
 0001:00058c60       ??_GDependent@@UAEPAXI@Z   00459c60 f i transitiond:T_system.obj
 0001:00058cc0       ??1Dependent@@UAE@XZ       00459cc0 f i transitiond:T_system.obj
 0001:00058d00       ?copy_in_past@T_system@@AAEPAVAssignable@@AAV2@@Z 00459d00 f   transitiond:T_system.obj
 0001:00058de0       ?create_assignable@Conflict_db@@QAEPAVAssignable@@III@Z 00459de0 f i transitiond:T_system.obj
 0001:00058e60       ?registerAssignable@Conflict_db@@QAEXPAVAssignable@@@Z 00459e60 f i transitiond:T_system.obj
 0001:00058eb0       ?copy_in_past@T_system@@AAEPAVCommand@@AAV2@@Z 00459eb0 f   transitiond:T_system.obj
 0001:00058f90       ?create_command@Conflict_db@@QAEPAVCommand@@III@Z 00459f90 f i transitiond:T_system.obj
 0001:00059010       ??0Command@@QAE@AAVConflict_db@@III@Z 0045a010 f i transitiond:T_system.obj
 0001:00059070       ?is_default@Assignable@@UBE_NABVAssignment@@@Z 0045a070 f i transitiond:T_system.obj
 0001:000590a0       ?is_assignable@Assignable@@UBE_NXZ 0045a0a0 f i transitiond:T_system.obj
 0001:000590d0       ?is_assumption@Assignable@@UBE_NXZ 0045a0d0 f i transitiond:T_system.obj
 0001:00059100       ?is_dependent@Assignable@@UBE_NXZ 0045a100 f i transitiond:T_system.obj
 0001:00059130       ?is_state_variable@Assignable@@UBE_NXZ 0045a130 f i transitiond:T_system.obj
 0001:00059160       ?is_transition@Assignable@@UBE_NXZ 0045a160 f i transitiond:T_system.obj
 0001:00059190       ?is_transitioned@Assignable@@UBE_NXZ 0045a190 f i transitiond:T_system.obj
 0001:000591c0       ?save@Assignable@@UAEXXZ   0045a1c0 f i transitiond:T_system.obj
 0001:000591f0       ?restore@Assignable@@UAEXXZ 0045a1f0 f i transitiond:T_system.obj
 0001:00059230       ?is_command@Command@@UBE_NXZ 0045a230 f i transitiond:T_system.obj
 0001:00059260       ?is_observable@Command@@UBE_NXZ 0045a260 f i transitiond:T_system.obj
 0001:00059290       ??_GCommand@@UAEPAXI@Z     0045a290 f i transitiond:T_system.obj
 0001:00059290       ??_ECommand@@UAEPAXI@Z     0045a290 f i transitiond:T_system.obj
 0001:000592f0       ??1Command@@UAE@XZ         0045a2f0 f i transitiond:T_system.obj
 0001:00059330       ?copy_in_past@T_system@@AAEPAVObservable@@AAV2@@Z 0045a330 f   transitiond:T_system.obj
 0001:00059410       ?create_observable@Conflict_db@@QAEPAVObservable@@III@Z 0045a410 f i transitiond:T_system.obj
 0001:00059490       ??0Observable@@QAE@AAVConflict_db@@III@Z 0045a490 f i transitiond:T_system.obj
 0001:000594f0       ?is_command@Observable@@UBE_NXZ 0045a4f0 f i transitiond:T_system.obj
 0001:00059520       ?is_observable@Observable@@UBE_NXZ 0045a520 f i transitiond:T_system.obj
 0001:00059550       ??_EObservable@@UAEPAXI@Z  0045a550 f i transitiond:T_system.obj
 0001:00059550       ??_GObservable@@UAEPAXI@Z  0045a550 f i transitiond:T_system.obj
 0001:000595b0       ??1Observable@@UAE@XZ      0045a5b0 f i transitiond:T_system.obj
 0001:000595f0       ?remove_old_variables@T_system@@QAEXI@Z 0045a5f0 f   transitiond:T_system.obj
 0001:000598d0       ??0Old_variable_acceptor@T_system@@QAE@I@Z 0045a8d0 f i transitiond:T_system.obj
 0001:00059920       ?accept@Old_variable_acceptor@T_system@@UBE_NABVVariable@@@Z 0045a920 f i transitiond:T_system.obj
 0001:00059970       ??0Variable_acceptor@Conflict_db@@QAE@XZ 0045a970 f i transitiond:T_system.obj
 0001:000599a0       ?create_state_var@T_system@@QAEPAVState_variable@@II@Z 0045a9a0 f   transitiond:T_system.obj
 0001:00059bf0       ?set_new_variable_iterator@Conflict_db@@QAEXV?$Slist_iterator@PAVVariable@@@@@Z 0045abf0 f i transitiond:T_system.obj
 0001:00059c70       ?truncate@T_system@@QAEXI@Z 0045ac70 f   transitiond:T_system.obj
 0001:00059f90       ??_GCandidate@@QAEPAXI@Z   0045af90 f i transitiond:T_system.obj
 0001:00059ff0       ??1Candidate@@QAE@XZ       0045aff0 f i transitiond:T_system.obj
 0001:0005a060       ?map_over_observations@T_system@@QAEXW4map_command@1@@Z 0045b060 f   transitiond:T_system.obj
 0001:0005a160       ?summarize_variables@T_system@@QAEXII@Z 0045b160 f   transitiond:T_system.obj
 0001:0005a220       ?install_new_state@T_system@@IAEXXZ 0045b220 f   transitiond:T_system.obj
 0001:0005a4b0       ?assignments_begin@Assignable@@QAE?AV?$Slist_iterator@PAVAssignment@@@@XZ 0045b4b0 f i transitiond:T_system.obj
 0001:0005a500       ?assignments_end@Assignable@@QAE?AV?$Slist_iterator@PAVAssignment@@@@XZ 0045b500 f i transitiond:T_system.obj
 0001:0005a550       ?register_new_variable@T_system@@IAEXPAVVariable@@@Z 0045b550 f   transitiond:T_system.obj
 0001:0005a750       ?create_past_command@T_system@@AAEPAVPast_command@@IABV?$Slist@I@@II@Z 0045b750 f   transitiond:T_system.obj
 0001:0005a7d0       ?registerAssumption@Conflict_db@@QAEXPAVAssumption@@@Z 0045b7d0 f i transitiond:T_system.obj
 0001:0005a820       ??0Past_command@@QAE@AAVConflict_db@@IABV?$Slist@I@@II@Z 0045b820 f i transitiond:T_system.obj
 0001:0005a880       ?is_assumption@Assumption@@UBE_NXZ 0045b880 f i transitiond:T_system.obj
 0001:0005a8b0       ?is_command@Assumption@@UBE_NXZ 0045b8b0 f i transitiond:T_system.obj
 0001:0005a8e0       ?is_observable@Assumption@@UBE_NXZ 0045b8e0 f i transitiond:T_system.obj
 0001:0005a910       ?is_default@Assumption@@UBE_NABVAssignment@@@Z 0045b910 f i transitiond:T_system.obj
 0001:0005a950       ??_EPast_command@@UAEPAXI@Z 0045b950 f i transitiond:T_system.obj
 0001:0005a950       ??_GPast_command@@UAEPAXI@Z 0045b950 f i transitiond:T_system.obj
 0001:0005a9b0       ??1Past_command@@UAE@XZ    0045b9b0 f i transitiond:T_system.obj
 0001:0005a9f0       ??1Assumption@@UAE@XZ      0045b9f0 f i transitiond:T_system.obj
 0001:0005aa30       ??_EAssumption@@UAEPAXI@Z  0045ba30 f i transitiond:T_system.obj
 0001:0005aa30       ??_GAssumption@@UAEPAXI@Z  0045ba30 f i transitiond:T_system.obj
 0001:0005aa90       ?create_mode_transition@T_system@@QAEPAVTransition@@AAVDependent@@IABV?$Slist@I@@I@Z 0045ba90 f   transitiond:T_system.obj
 0001:0005ab70       ?restore_default@Assumption@@QAEXXZ 0045bb70 f i transitiond:T_system.obj
 0001:0005abb0       ?create_state_variable@T_system@@AAEPAVState_variable@@IABV?$Slist@I@@II@Z 0045bbb0 f   transitiond:T_system.obj
 0001:0005ac30       ??0State_variable@@QAE@AAVConflict_db@@IABV?$Slist@I@@II@Z 0045bc30 f i transitiond:T_system.obj
 0001:0005ac90       ?is_state_variable@State_variable@@UBE_NXZ 0045bc90 f i transitiond:T_system.obj
 0001:0005acc0       ??_GState_variable@@UAEPAXI@Z 0045bcc0 f i transitiond:T_system.obj
 0001:0005acc0       ??_EState_variable@@UAEPAXI@Z 0045bcc0 f i transitiond:T_system.obj
 0001:0005ad20       ??1State_variable@@UAE@XZ  0045bd20 f i transitiond:T_system.obj
 0001:0005ad60       ?create_transition@T_system@@AAEPAVTransition@@IABV?$Slist@I@@II@Z 0045bd60 f   transitiond:T_system.obj
 0001:0005ade0       ??0Transition@@QAE@AAVConflict_db@@IABV?$Slist@I@@II@Z 0045bde0 f i transitiond:T_system.obj
 0001:0005ae40       ?is_transition@Transition@@UBE_NXZ 0045be40 f i transitiond:T_system.obj
 0001:0005ae70       ??_ETransition@@UAEPAXI@Z  0045be70 f i transitiond:T_system.obj
 0001:0005ae70       ??_GTransition@@UAEPAXI@Z  0045be70 f i transitiond:T_system.obj
 0001:0005aed0       ??1Transition@@UAE@XZ      0045bed0 f i transitiond:T_system.obj
 0001:0005af10       ?create_constraint@T_system@@QAEPAVClause@@ABV?$Array@U?$MBApair@PAVVariable@@I@@$0A@@@0_N11@Z 0045bf10 f   transitiond:T_system.obj
 0001:0005afb0       ??0Proto_constraint@T_system@@QAE@ABV?$Array@U?$MBApair@PAVVariable@@I@@$0A@@@0@Z 0045bfb0 f i transitiond:T_system.obj
 0001:0005b0c0       ?do_create_constraint@T_system@@AAEPAVClause@@ABV?$Array@U?$MBApair@PAVVariable@@I@@$0A@@@0_N11@Z 0045c0c0 f   transitiond:T_system.obj
 0001:0005b240       ?create_clause@Conflict_db@@QAEPAVClause@@AAV?$Slist@PAVProposition@@@@0_N1@Z 0045c240 f i transitiond:T_system.obj
 0001:0005b2a0       ?get_command@T_system@@QBEPAVCommand@@I@Z 0045c2a0 f   transitiond:T_system.obj
 0001:0005b3d0       ?get_observable@T_system@@QBEPAVObservable@@I@Z 0045c3d0 f   transitiond:T_system.obj
 0001:0005b500       ?get_transitioned@T_system@@QBEPAVTransitioned@@I@Z 0045c500 f   transitiond:T_system.obj
 0001:0005b630       ?get_transition@T_system@@QBEPAVTransition@@I@Z 0045c630 f   transitiond:T_system.obj
 0001:0005b690       ?get_trajectory@T_system@@QBEABVTrajectory@@I@Z 0045c690 f   transitiond:T_system.obj
 0001:0005b750       ?start_new_trajectories_map@T_system@@QAEXI@Z 0045c750 f   transitiond:T_system.obj
 0001:0005b800       ?set_trajectory@T_system@@QAEXIIAAV?$Slist@PBVAssignment@@@@@Z 0045c800 f   transitiond:T_system.obj
 0001:0005b9d0       ?insert@Trajectory@@QAEXABVParts@1@@Z 0045c9d0 f i transitiond:T_system.obj
 0001:0005ba10       ?prepend@Trajectory@@QAEXABV1@@Z 0045ca10 f i transitiond:T_system.obj
 0001:0005baa0       ?put_candidate_in_trajectory@T_system@@QAEXIIABVCandidate@@@Z 0045caa0 f   transitiond:T_system.obj
 0001:0005bbe0       ?deleteNewestConflicts@T_system@@QAEXXZ 0045cbe0 f   transitiond:T_system.obj
 0001:0005bc90       ?getTag@Conflict@@QBEIXZ   0045cc90 f i transitiond:T_system.obj
 0001:0005bcc0       ?getConflicts@Conflict_db@@IAEAAV?$Slist@PBVConflict@@@@XZ 0045ccc0 f i transitiond:T_system.obj
 0001:0005bcf0       ?prune_inconsistent_candidates@T_system@@QAEXXZ 0045ccf0 f   transitiond:T_system.obj
 0001:0005bde0       ??4?$Slist_iterator@PAVAssignment@@@@QAEAAV0@ABV0@@Z 0045cde0 f i transitiond:T_system.obj
 0001:0005be20       ??1?$Array@PBVAssignment@@$0A@@@QAE@XZ 0045ce20 f i transitiond:T_system.obj
 0001:0005be80       ?push_front@?$Slist@PAVAssignable@@@@QAEXABQAVAssignable@@@Z 0045ce80 f i transitiond:T_system.obj
 0001:0005bf00       ?push_front@?$Slist@PAVAssumption@@@@QAEXABQAVAssumption@@@Z 0045cf00 f i transitiond:T_system.obj
 0001:0005bf80       ??4?$Slist_iterator@PAVVariable@@@@QAEAAV0@ABV0@@Z 0045cf80 f i transitiond:T_system.obj
 0001:0005bfc0       ?push_front@?$Slist@PAVProto_constraint@T_system@@@@QAEXABQAVProto_constraint@T_system@@@Z 0045cfc0 f i transitiond:T_system.obj
 0001:0005c040       ?begin@?$Slist@PAVProto_constraint@T_system@@@@QAE?AV?$Slist_iterator@PAVProto_constraint@T_system@@@@XZ 0045d040 f i transitiond:T_system.obj
 0001:0005c090       ?end@?$Slist@PAVProto_constraint@T_system@@@@QAE?AV?$Slist_iterator@PAVProto_constraint@T_system@@@@XZ 0045d090 f i transitiond:T_system.obj
 0001:0005c0e0       ?push_front@?$Slist@PAVClause@@@@QAEXABQAVClause@@@Z 0045d0e0 f i transitiond:T_system.obj
 0001:0005c160       ?begin@?$Array@V?$Slist@PAVAssignment@@@@$00@@QBEPAV?$Slist@PAVAssignment@@@@XZ 0045d160 f i transitiond:T_system.obj
 0001:0005c190       ?end@?$Array@V?$Slist@PAVAssignment@@@@$00@@QBEPAV?$Slist@PAVAssignment@@@@XZ 0045d190 f i transitiond:T_system.obj
 0001:0005c1d0       ?begin@?$Slist@PAVT_system_listener@@@@QAE?AV?$Slist_iterator@PAVT_system_listener@@@@XZ 0045d1d0 f i transitiond:T_system.obj
 0001:0005c220       ?end@?$Slist@PAVT_system_listener@@@@QAE?AV?$Slist_iterator@PAVT_system_listener@@@@XZ 0045d220 f i transitiond:T_system.obj
 0001:0005c270       ??0?$Slist@I@@QAE@XZ       0045d270 f i transitiond:T_system.obj
 0001:0005c2b0       ??1?$Slist@I@@QAE@XZ       0045d2b0 f i transitiond:T_system.obj
 0001:0005c2f0       ?push_front@?$Slist@I@@QAEXABI@Z 0045d2f0 f i transitiond:T_system.obj
 0001:0005c370       ??0?$Array@U?$MBApair@PAVVariable@@I@@$0A@@@QAE@I@Z 0045d370 f i transitiond:T_system.obj
 0001:0005c3d0       ??1?$Array@U?$MBApair@PAVVariable@@I@@$0A@@@QAE@XZ 0045d3d0 f i transitiond:T_system.obj
 0001:0005c430       ?size@?$Array@U?$MBApair@PAVVariable@@I@@$0A@@@QBEIXZ 0045d430 f i transitiond:T_system.obj
 0001:0005c460       ??A?$Array@U?$MBApair@PAVVariable@@I@@$0A@@@QBEABU?$MBApair@PAVVariable@@I@@I@Z 0045d460 f i transitiond:T_system.obj
 0001:0005c4c0       ?begin@?$Array@U?$MBApair@PAVVariable@@I@@$0A@@@QBEPAU?$MBApair@PAVVariable@@I@@XZ 0045d4c0 f i transitiond:T_system.obj
 0001:0005c4f0       ?end@?$Array@U?$MBApair@PAVVariable@@I@@$0A@@@QBEPAU?$MBApair@PAVVariable@@I@@XZ 0045d4f0 f i transitiond:T_system.obj
 0001:0005c530       ?push@?$Array@U?$MBApair@PAVVariable@@I@@$0A@@@QAEXABU?$MBApair@PAVVariable@@I@@@Z 0045d530 f i transitiond:T_system.obj
 0001:0005c5a0       ??E?$Slist_iterator@PAVT_system_listener@@@@QAEAAV0@XZ 0045d5a0 f i transitiond:T_system.obj
 0001:0005c5f0       ??D?$Slist_iterator@PAVT_system_listener@@@@QAEAAPAVT_system_listener@@XZ 0045d5f0 f i transitiond:T_system.obj
 0001:0005c640       ??9?$Slist_iterator@PAVT_system_listener@@@@QBE_NABV0@@Z 0045d640 f i transitiond:T_system.obj
 0001:0005c680       ??E?$Slist_iterator@PAVProto_constraint@T_system@@@@QAEAAV0@XZ 0045d680 f i transitiond:T_system.obj
 0001:0005c6d0       ??D?$Slist_iterator@PAVProto_constraint@T_system@@@@QAEAAPAVProto_constraint@T_system@@XZ 0045d6d0 f i transitiond:T_system.obj
 0001:0005c720       ??9?$Slist_iterator@PAVProto_constraint@T_system@@@@QBE_NABV0@@Z 0045d720 f i transitiond:T_system.obj
 0001:0005c760       ??0?$Slist@PAVProposition@@@@QAE@XZ 0045d760 f i transitiond:T_system.obj
 0001:0005c7a0       ??1?$Slist@PAVProposition@@@@QAE@XZ 0045d7a0 f i transitiond:T_system.obj
 0001:0005c7e0       ?push_front@?$Slist@PAVProposition@@@@QAEXABQAVProposition@@@Z 0045d7e0 f i transitiond:T_system.obj
 0001:0005c860       ??0?$Slist@PBVAssignment@@@@QAE@XZ 0045d860 f i transitiond:T_system.obj
 0001:0005c8a0       ??1?$Slist@PBVAssignment@@@@QAE@XZ 0045d8a0 f i transitiond:T_system.obj
 0001:0005c8e0       ?push_front@?$Slist@PBVAssignment@@@@QAEXABQBVAssignment@@@Z 0045d8e0 f i transitiond:T_system.obj
 0001:0005c960       ?begin@?$Slist@PBVAssignment@@@@QAE?AV?$Slist_iterator@PBVAssignment@@@@XZ 0045d960 f i transitiond:T_system.obj
 0001:0005c9b0       ?end@?$Slist@PBVAssignment@@@@QAE?AV?$Slist_iterator@PBVAssignment@@@@XZ 0045d9b0 f i transitiond:T_system.obj
 0001:0005ca00       ??E?$Slist_iterator@PBVAssignment@@@@QAEAAV0@XZ 0045da00 f i transitiond:T_system.obj
 0001:0005ca50       ??D?$Slist_iterator@PBVAssignment@@@@QAEAAPBVAssignment@@XZ 0045da50 f i transitiond:T_system.obj
 0001:0005caa0       ??9?$Slist_iterator@PBVAssignment@@@@QBE_NABV0@@Z 0045daa0 f i transitiond:T_system.obj
 0001:0005cae0       ?erase@?$Array@PBVAssignment@@$0A@@@QAEXXZ 0045dae0 f i transitiond:T_system.obj
 0001:0005cb40       ?size@?$Array@V?$Slist@PAVAssignment@@@@$00@@QBEIXZ 0045db40 f i transitiond:T_system.obj
 0001:0005cb70       ?erase@?$Slist@I@@QAEXXZ   0045db70 f i transitiond:T_system.obj
 0001:0005cbd0       ?erase@?$Array@U?$MBApair@PAVVariable@@I@@$0A@@@QAEXXZ 0045dbd0 f i transitiond:T_system.obj
 0001:0005cc30       ?ensure@?$Array@U?$MBApair@PAVVariable@@I@@$0A@@@AAEXI@Z 0045dc30 f i transitiond:T_system.obj
 0001:0005cd10       ?do_allocate@?$Array@U?$MBApair@PAVVariable@@I@@$0A@@@AAEPAU?$MBApair@PAVVariable@@I@@I@Z 0045dd10 f i transitiond:T_system.obj
 0001:0005cd80       ??0?$Slist_iterator@PAVT_system_listener@@@@QAE@PAV?$Slist_item@PAVT_system_listener@@@@@Z 0045dd80 f i transitiond:T_system.obj
 0001:0005cdc0       ??0?$Slist_iterator@PAVProto_constraint@T_system@@@@QAE@PAV?$Slist_item@PAVProto_constraint@T_system@@@@@Z 0045ddc0 f i transitiond:T_system.obj
 0001:0005ce00       ?erase@?$Slist@PAVProposition@@@@QAEXXZ 0045de00 f i transitiond:T_system.obj
 0001:0005ce60       ?erase@?$Slist@PBVAssignment@@@@QAEXXZ 0045de60 f i transitiond:T_system.obj
 0001:0005cec0       ??0?$Slist_iterator@PBVAssignment@@@@QAE@PAV?$Slist_item@PBVAssignment@@@@@Z 0045dec0 f i transitiond:T_system.obj
 0001:0005cf00       ??0?$Slist_item@PAVAssignable@@@@QAE@ABQAVAssignable@@PAV0@@Z 0045df00 f i transitiond:T_system.obj
 0001:0005cf50       ??0?$Slist_item@PAVAssumption@@@@QAE@ABQAVAssumption@@PAV0@@Z 0045df50 f i transitiond:T_system.obj
 0001:0005cfa0       ??0?$Slist_item@PAVProto_constraint@T_system@@@@QAE@ABQAVProto_constraint@T_system@@PAV0@@Z 0045dfa0 f i transitiond:T_system.obj
 0001:0005cff0       ??0?$Slist_item@PAVClause@@@@QAE@ABQAVClause@@PAV0@@Z 0045dff0 f i transitiond:T_system.obj
 0001:0005d040       ??0?$Slist_item@I@@QAE@ABIPAV0@@Z 0045e040 f i transitiond:T_system.obj
 0001:0005d090       ??0?$Slist_item@PAVProposition@@@@QAE@ABQAVProposition@@PAV0@@Z 0045e090 f i transitiond:T_system.obj
 0001:0005d0e0       ??0?$Slist_item@PBVAssignment@@@@QAE@ABQBVAssignment@@PAV0@@Z 0045e0e0 f i transitiond:T_system.obj
 0001:0005d130       ?do_free@?$Array@PBVAssignment@@$0A@@@AAEXPAPBVAssignment@@I@Z 0045e130 f i transitiond:T_system.obj
 0001:0005d190       ?do_free@?$Array@U?$MBApair@PAVVariable@@I@@$0A@@@AAEXPAU?$MBApair@PAVVariable@@I@@I@Z 0045e190 f i transitiond:T_system.obj
 0001:0005d1f0       ?delete_list@?$Slist_item@I@@QAEXXZ 0045e1f0 f i transitiond:T_system.obj
 0001:0005d270       ?delete_list@?$Slist_item@PAVProposition@@@@QAEXXZ 0045e270 f i transitiond:T_system.obj
 0001:0005d2f0       ?delete_list@?$Slist_item@PBVAssignment@@@@QAEXXZ 0045e2f0 f i transitiond:T_system.obj
 0001:0005d370       ??_G?$Slist_item@I@@QAEPAXI@Z 0045e370 f i transitiond:T_system.obj
 0001:0005d3d0       ??_G?$Slist_item@PAVProposition@@@@QAEPAXI@Z 0045e3d0 f i transitiond:T_system.obj
 0001:0005d430       ??_G?$Slist_item@PBVAssignment@@@@QAEPAXI@Z 0045e430 f i transitiond:T_system.obj
 0001:0005d490       ??1?$Slist_item@I@@QAE@XZ  0045e490 f i transitiond:T_system.obj
 0001:0005d4d0       ??1?$Slist_item@PAVProposition@@@@QAE@XZ 0045e4d0 f i transitiond:T_system.obj
 0001:0005d510       ??1?$Slist_item@PBVAssignment@@@@QAE@XZ 0045e510 f i transitiond:T_system.obj
 0001:0005d550       ?erase@?$Slist@PBVConflict@@@@QAEXAAV?$Slist_iterator@PBVConflict@@@@@Z 0045e550 f i transitiond:T_system.obj
 0001:0005d600       ?size@?$Slist@PAVAssignment@@@@QBEIXZ 0045e600 f i transitiond:T_system.obj
 0001:0005d630       ??4?$Slist@PAVAssignment@@@@QAEAAV0@ABV0@@Z 0045e630 f i transitiond:T_system.obj
 0001:0005d790       ?erase@?$Slist@PAVAssignment@@@@QAEXAAV?$Slist_iterator@PAVAssignment@@@@@Z 0045e790 f i transitiond:T_system.obj
 0001:0005d840       ?erase@?$Slist@PAVCandidate@@@@QAEXAAV?$Slist_iterator@PAVCandidate@@@@@Z 0045e840 f i transitiond:T_system.obj
 0001:0005d8f0       ??0?$Slist@PAVClause@@@@QAE@ABV0@@Z 0045e8f0 f i transitiond:T_system.obj
 0001:0005d9f0       ?L2_free_array@@YAXPAVTrajectory@@I@Z 0045e9f0 f i transitiond:T_system.obj
 0001:0005daa0       ?L2_initialize_array@@YAPAVTrajectory@@PAV1@I@Z 0045eaa0 f i transitiond:T_system.obj
 0001:0005db50       ??0Trajectory@@QAE@XZ      0045eb50 f i transitiond:T_system.obj
 0001:0005dbc0       ??0?$Slist@VParts@Trajectory@@@@QAE@XZ 0045ebc0 f i transitiond:T_system.obj
 0001:0005dc00       ?L2_initialize_array@@YAPAU?$MBApair@PAVVariable@@I@@PAU1@I@Z 0045ec00 f i transitiond:T_system.obj
 0001:0005dcb0       ?L2_free_array@@YAXPAPBVAssignment@@I@Z 0045ecb0 f i transitiond:T_system.obj
 0001:0005dd20       ?L2_free_array_no_dtor@@YAXPAPBVAssignment@@I@Z 0045ed20 f i transitiond:T_system.obj
 0001:0005dd60       ?L2_free_array@@YAXPAU?$MBApair@PAVVariable@@I@@I@Z 0045ed60 f i transitiond:T_system.obj
 0001:0005ddd0       ?L2_free_array_no_dtor@@YAXPAU?$MBApair@PAVVariable@@I@@I@Z 0045edd0 f i transitiond:T_system.obj
 0001:0005de10       ??0Trajectory@@QAE@ABV0@@Z 0045ee10 f i transitiond:T_system.obj
 0001:0005de90       ??1Trajectory@@QAE@XZ      0045ee90 f i transitiond:T_system.obj
 0001:0005df00       ??1?$Slist@VParts@Trajectory@@@@QAE@XZ 0045ef00 f i transitiond:T_system.obj
 0001:0005df40       ?erase@?$Slist@VParts@Trajectory@@@@QAEXXZ 0045ef40 f i transitiond:T_system.obj
 0001:0005dfa0       ?delete_list@?$Slist_item@VParts@Trajectory@@@@QAEXXZ 0045efa0 f i transitiond:T_system.obj
 0001:0005e020       ??_G?$Slist_item@VParts@Trajectory@@@@QAEPAXI@Z 0045f020 f i transitiond:T_system.obj
 0001:0005e080       ??1?$Slist_item@VParts@Trajectory@@@@QAE@XZ 0045f080 f i transitiond:T_system.obj
 0001:0005e0f0       ??_GTrajectory@@QAEPAXI@Z  0045f0f0 f i transitiond:T_system.obj
 0001:0005e150       ??0?$MBApair@PAVVariable@@I@@QAE@XZ 0045f150 f i transitiond:T_system.obj
 0001:0005e180       ??0?$Slist_item@PAVClause@@@@QAE@ABQAVClause@@@Z 0045f180 f i transitiond:T_system.obj
 0001:0005e1d0       ??0?$Slist@VParts@Trajectory@@@@QAE@ABV0@@Z 0045f1d0 f i transitiond:T_system.obj
 0001:0005e2d0       ?L2_free_array_no_dtor@@YAXPAVTrajectory@@I@Z 0045f2d0 f i transitiond:T_system.obj
 0001:0005e390       ??0?$Slist_item@VParts@Trajectory@@@@QAE@ABVParts@Trajectory@@@Z 0045f390 f i transitiond:T_system.obj
 0001:0005e600       ??1Conflict_db@@UAE@XZ     0045f600 f   transitiond:Conflict_db.obj
 0001:0005e840       ??0accept_all@Conflict_db@@QAE@XZ 0045f840 f i transitiond:Conflict_db.obj
 0001:0005e890       ?accept@accept_all@Conflict_db@@UBE_NABVVariable@@@Z 0045f890 f i transitiond:Conflict_db.obj
 0001:0005e8c0       ??_GConflict@@QAEPAXI@Z    0045f8c0 f i transitiond:Conflict_db.obj
 0001:0005e920       ??1Conflict@@QAE@XZ        0045f920 f i transitiond:Conflict_db.obj
 0001:0005e990       ?insert_variable@Conflict_db@@AAEXPAVVariable@@@Z 0045f990 f   transitiond:Conflict_db.obj
 0001:0005ea60       ?destroy_variables@Conflict_db@@UAEXPAUVariable_acceptor@1@V?$Slist_iterator@PAVVariable@@@@1_N@Z 0045fa60 f   transitiond:Conflict_db.obj
 0001:0005ed20       ?restore@Conflict_db@@QAEXXZ 0045fd20 f   transitiond:Conflict_db.obj
 0001:0005edb0       ?save@Conflict_db@@QAEXXZ  0045fdb0 f   transitiond:Conflict_db.obj
 0001:0005ee40       ?is_assumption@Conflict_db@@KA_NABVClause@@@Z 0045fe40 f   transitiond:Conflict_db.obj
 0001:0005eeb0       ?is_command@Conflict_db@@SA_NABVClause@@@Z 0045feb0 f   transitiond:Conflict_db.obj
 0001:0005ef20       ?is_observable@Conflict_db@@SA_NABVClause@@@Z 0045ff20 f   transitiond:Conflict_db.obj
 0001:0005ef90       ?add_conflict@Conflict_db@@QAEPBVConflict@@ABV?$Slist@PAVAssignment@@@@I@Z 0045ff90 f   transitiond:Conflict_db.obj
 0001:0005f080       ?size@Conflict@@QBEIXZ     00460080 f i transitiond:Conflict_db.obj
 0001:0005f0c0       ?find_subsuming_conflict@Conflict_db@@QBEPBVConflict@@ABV?$Slist@PAVAssignment@@@@@Z 004600c0 f   transitiond:Conflict_db.obj
 0001:0005f160       ?destroy_conflict@Conflict_db@@QAEXAAV?$Slist_iterator@PBVConflict@@@@@Z 00460160 f   transitiond:Conflict_db.obj
 0001:0005f230       ?conflict@Conflict_db@@QAEPBVConflict@@I@Z 00460230 f   transitiond:Conflict_db.obj
 0001:0005f3b0       ?restore_assumption_defaults@Conflict_db@@QAEXXZ 004603b0 f   transitiond:Conflict_db.obj
 0001:0005f440       ?getCandidate@Conflict_db@@QAEPAVCandidate@@I@Z 00460440 f   transitiond:Conflict_db.obj
 0001:0005f540       ?getCandidate@Conflict_db@@QBEPBVCandidate@@I@Z 00460540 f   transitiond:Conflict_db.obj
 0001:0005f630       ?getIndex@Conflict_db@@QBEIABVCandidate@@@Z 00460630 f   transitiond:Conflict_db.obj
 0001:0005f6e0       ?eraseCandidates@Conflict_db@@QAEXXZ 004606e0 f   transitiond:Conflict_db.obj
 0001:0005f7a0       ?install@Conflict_db@@QAEXABVCandidate@@_N@Z 004607a0 f   transitiond:Conflict_db.obj
 0001:0005f810       ?addCandidate@Conflict_db@@QAEXPAVCandidate@@@Z 00460810 f   transitiond:Conflict_db.obj
 0001:0005f8e0       ?get_weight@Candidate@@QBEIXZ 004608e0 f i transitiond:Conflict_db.obj
 0001:0005f920       ?addAssumption@Conflict_db@@QAEXPBVAssignment@@@Z 00460920 f   transitiond:Conflict_db.obj
 0001:0005f9b0       ?begin@?$Slist@PBVConflict@@@@QBE?AV?$Slist_iterator@QBVConflict@@@@XZ 004609b0 f i transitiond:Conflict_db.obj
 0001:0005fa00       ?end@?$Slist@PBVConflict@@@@QBE?AV?$Slist_iterator@QBVConflict@@@@XZ 00460a00 f i transitiond:Conflict_db.obj
 0001:0005fa50       ?insert_before@?$Slist@PAVVariable@@@@QAE?AV?$Slist_iterator@PAVVariable@@@@AAV2@ABQAVVariable@@@Z 00460a50 f i transitiond:Conflict_db.obj
 0001:0005fbb0       ??8?$Slist_iterator@PAVVariable@@@@QBE_NABV0@@Z 00460bb0 f i transitiond:Conflict_db.obj
 0001:0005fbf0       ?insert_before@?$Slist@PAVCandidate@@@@QAE?AV?$Slist_iterator@PAVCandidate@@@@AAV2@ABQAVCandidate@@@Z 00460bf0 f i transitiond:Conflict_db.obj
 0001:0005fd50       ?begin@?$Slist@PAVCandidate@@@@QBE?AV?$Slist_iterator@QAVCandidate@@@@XZ 00460d50 f i transitiond:Conflict_db.obj
 0001:0005fda0       ?end@?$Slist@PAVCandidate@@@@QBE?AV?$Slist_iterator@QAVCandidate@@@@XZ 00460da0 f i transitiond:Conflict_db.obj
 0001:0005fdf0       ??1?$Slist@PAVConflict_db_listener@@@@QAE@XZ 00460df0 f i transitiond:Conflict_db.obj
 0001:0005fe30       ?begin@?$Slist@PAVConflict_db_listener@@@@QAE?AV?$Slist_iterator@PAVConflict_db_listener@@@@XZ 00460e30 f i transitiond:Conflict_db.obj
 0001:0005fe80       ?end@?$Slist@PAVConflict_db_listener@@@@QAE?AV?$Slist_iterator@PAVConflict_db_listener@@@@XZ 00460e80 f i transitiond:Conflict_db.obj
 0001:0005fed0       ??E?$Slist_iterator@PAVConflict_db_listener@@@@QAEAAV0@XZ 00460ed0 f i transitiond:Conflict_db.obj
 0001:0005ff20       ??D?$Slist_iterator@PAVConflict_db_listener@@@@QAEAAPAVConflict_db_listener@@XZ 00460f20 f i transitiond:Conflict_db.obj
 0001:0005ff70       ??9?$Slist_iterator@PAVConflict_db_listener@@@@QBE_NABV0@@Z 00460f70 f i transitiond:Conflict_db.obj
 0001:0005ffb0       ??E?$Slist_iterator@QBVConflict@@@@QAEAAV0@XZ 00460fb0 f i transitiond:Conflict_db.obj
 0001:00060000       ??D?$Slist_iterator@QBVConflict@@@@QAEABQBVConflict@@XZ 00461000 f i transitiond:Conflict_db.obj
 0001:00060050       ??9?$Slist_iterator@QBVConflict@@@@QBE_NABV0@@Z 00461050 f i transitiond:Conflict_db.obj
 0001:00060090       ??E?$Slist_iterator@QAVCandidate@@@@QAEAAV0@XZ 00461090 f i transitiond:Conflict_db.obj
 0001:000600e0       ??D?$Slist_iterator@QAVCandidate@@@@QAEABQAVCandidate@@XZ 004610e0 f i transitiond:Conflict_db.obj
 0001:00060130       ??9?$Slist_iterator@QAVCandidate@@@@QBE_NABV0@@Z 00461130 f i transitiond:Conflict_db.obj
 0001:00060170       ?push_front@?$Slist@PAVVariable@@@@QAEXABQAVVariable@@@Z 00461170 f i transitiond:Conflict_db.obj
 0001:000601f0       ?push_front@?$Slist@PAVCandidate@@@@QAEXABQAVCandidate@@@Z 004611f0 f i transitiond:Conflict_db.obj
 0001:00060270       ?erase@?$Slist@PAVConflict_db_listener@@@@QAEXXZ 00461270 f i transitiond:Conflict_db.obj
 0001:000602d0       ??0?$Slist_iterator@PAVConflict_db_listener@@@@QAE@PAV?$Slist_item@PAVConflict_db_listener@@@@@Z 004612d0 f i transitiond:Conflict_db.obj
 0001:00060310       ??0?$Slist_iterator@QBVConflict@@@@QAE@PAV?$Slist_item@QBVConflict@@@@@Z 00461310 f i transitiond:Conflict_db.obj
 0001:00060350       ??8?$Slist_iterator@PAVCandidate@@@@QBE_NABV0@@Z 00461350 f i transitiond:Conflict_db.obj
 0001:00060390       ??0?$Slist_iterator@QAVCandidate@@@@QAE@PAV?$Slist_item@QAVCandidate@@@@@Z 00461390 f i transitiond:Conflict_db.obj
 0001:000603d0       ??0?$Slist_item@PAVVariable@@@@QAE@ABQAVVariable@@PAV0@@Z 004613d0 f i transitiond:Conflict_db.obj
 0001:00060420       ??0?$Slist_item@PAVCandidate@@@@QAE@ABQAVCandidate@@PAV0@@Z 00461420 f i transitiond:Conflict_db.obj
 0001:00060470       ?delete_list@?$Slist_item@PAVConflict_db_listener@@@@QAEXXZ 00461470 f i transitiond:Conflict_db.obj
 0001:000604f0       ?erase@?$Slist@PAVVariable@@@@QAEXAAV?$Slist_iterator@PAVVariable@@@@@Z 004614f0 f i transitiond:Conflict_db.obj
 0001:000605a0       ?erase@?$Slist@PAVAssignable@@@@QAEXAAV?$Slist_iterator@PAVAssignable@@@@@Z 004615a0 f i transitiond:Conflict_db.obj
 0001:00060650       ?erase@?$Slist@PAVAssumption@@@@QAEXAAV?$Slist_iterator@PAVAssumption@@@@@Z 00461650 f i transitiond:Conflict_db.obj
 0001:00060700       ?push_back@?$Slist@PAVCandidate@@@@QAEXABQAVCandidate@@@Z 00461700 f i transitiond:Conflict_db.obj
 0001:000607c0       ?insert_sorted@@YAXAAV?$Slist@PBVConflict@@@@ABQBVConflict@@P6A_NPBV2@2@Z@Z 004617c0 f i transitiond:Conflict_db.obj
 0001:00060880       ?insert_before@?$Slist@PBVConflict@@@@QAE?AV?$Slist_iterator@PBVConflict@@@@AAV2@ABQBVConflict@@@Z 00461880 f i transitiond:Conflict_db.obj
 0001:000609e0       ??0?$Slist_item@PAVCandidate@@@@QAE@ABQAVCandidate@@@Z 004619e0 f i transitiond:Conflict_db.obj
 0001:00060a30       ?push_front@?$Slist@PBVConflict@@@@QAEXABQBVConflict@@@Z 00461a30 f i transitiond:Conflict_db.obj
 0001:00060ab0       ??8?$Slist_iterator@PBVConflict@@@@QBE_NABV0@@Z 00461ab0 f i transitiond:Conflict_db.obj
 0001:00060af0       ??0?$Slist_item@PBVConflict@@@@QAE@ABQBVConflict@@PAV0@@Z 00461af0 f i transitiond:Conflict_db.obj
 0001:00060b40       ?push_back@?$Slist@PBVConflict@@@@QAEXABQBVConflict@@@Z 00461b40 f i transitiond:Conflict_db.obj
 0001:00060c00       ?last@?$Slist@PAVCandidate@@@@ABEPAV?$Slist_item@PAVCandidate@@@@XZ 00461c00 f i transitiond:Conflict_db.obj
 0001:00060cd0       ??0?$Slist_item@PBVConflict@@@@QAE@ABQBVConflict@@@Z 00461cd0 f i transitiond:Conflict_db.obj
 0001:00060d20       ?last@?$Slist@PBVConflict@@@@ABEPAV?$Slist_item@PBVConflict@@@@XZ 00461d20 f i transitiond:Conflict_db.obj
 0001:00060f70       ??0Variable@@IAE@AAVConflict_db@@III@Z 00461f70 f   transitiond:Variable.obj
 0001:00061210       ??_EVariable@@UAEPAXI@Z    00462210 f i transitiond:Variable.obj
 0001:00061210       ??_GVariable@@UAEPAXI@Z    00462210 f i transitiond:Variable.obj
 0001:00061270       ??1Variable@@UAE@XZ        00462270 f   transitiond:Variable.obj
 0001:00061390       ?insert_previous@Variable@@QAEXPAV1@@Z 00462390 f   transitiond:Variable.obj
 0001:00061480       ?get_prop@Variable@@QBEPAVProposition@@I@Z 00462480 f   transitiond:Variable.obj
 0001:00061540       ?get_value@Variable@@QAEPAVProposition@@XZ 00462540 f   transitiond:Variable.obj
 0001:000615d0       ?get_value_index@Variable@@QBEHXZ 004625d0 f   transitiond:Variable.obj
 0001:00061650       ??A?$Array@PAVProposition@@$0A@@@QBEABQAVProposition@@I@Z 00462650 f i transitiond:Variable.obj
 0001:000616b0       ??A?$Array@PAVProposition@@$0A@@@QAEAAPAVProposition@@I@Z 004626b0 f i transitiond:Variable.obj
 0001:00061710       ?grow_and_set@?$Array@PAVProposition@@$0A@@@QAEXIPAVProposition@@@Z 00462710 f i transitiond:Variable.obj
 0001:00061780       ?pop_front@?$Slist@PAVProposition@@@@QAEXXZ 00462780 f i transitiond:Variable.obj
 0001:00061810       ?ensure@?$Array@PAVProposition@@$0A@@@AAEXI@Z 00462810 f i transitiond:Variable.obj
 0001:000618e0       ?do_allocate@?$Array@PAVProposition@@$0A@@@AAEPAPAVProposition@@I@Z 004628e0 f i transitiond:Variable.obj
 0001:00061950       ?L2_initialize_array@@YAPAPAVProposition@@PAPAV1@I@Z 00462950 f i transitiond:Variable.obj
 0001:00061c30       ??0Transitioned@@QAE@AAVT_system@@IIII@Z 00462c30 f   transitiond:Transitioned.obj
 0001:00061db0       ?is_transitioned@Transitioned@@UBE_NXZ 00462db0 f i transitiond:Transitioned.obj
 0001:00061de0       ??_ETransitioned@@UAEPAXI@Z 00462de0 f i transitiond:Transitioned.obj
 0001:00061de0       ??_GTransitioned@@UAEPAXI@Z 00462de0 f i transitiond:Transitioned.obj
 0001:00061e40       ??1Transitioned@@UAE@XZ    00462e40 f   transitiond:Transitioned.obj
 0001:00062140       ??_GProto_transition@Transitioned@@QAEPAXI@Z 00463140 f i transitiond:Transitioned.obj
 0001:000621a0       ??1Proto_transition@Transitioned@@QAE@XZ 004631a0 f i transitiond:Transitioned.obj
 0001:00062220       ?create_transition_variable@Transitioned@@AAEXI@Z 00463220 f   transitiond:Transitioned.obj
 0001:000622e0       ?get_previous_dependent@Dependent@@QBEPAV1@XZ 004632e0 f i transitiond:Transitioned.obj
 0001:00062320       ?isPlanning@T_system@@QBE_NXZ 00463320 f i transitiond:Transitioned.obj
 0001:00062350       ?idle@Transitioned@@QAEPBVTransition@@I@Z 00463350 f   transitiond:Transitioned.obj
 0001:000623b0       ?remove_transition_clauses@Transitioned@@IAEXPAVLTMS@@@Z 004633b0 f   transitiond:Transitioned.obj
 0001:00062450       ?remove_all_transition_clauses@Transitioned@@QAEXPAVLTMS@@@Z 00463450 f   transitiond:Transitioned.obj
 0001:000624f0       ?set_mode@Transitioned@@QAEXPAVLTMS@@I@Z 004634f0 f   transitiond:Transitioned.obj
 0001:00062630       ?transition@Transitioned@@QAEPBVTransition@@ABVAssignment@@I@Z 00463630 f   transitiond:Transitioned.obj
 0001:00062690       ?instantiate_clauses@Transitioned@@IAEXABVAssignment@@I@Z 00463690 f   transitiond:Transitioned.obj
 0001:00062700       ?add_commanded_transitions@Transitioned@@QAEXIIII@Z 00463700 f   transitiond:Transitioned.obj
 0001:000627a0       ?add_failure_prototype@Transitioned@@QAEXII@Z 004637a0 f   transitiond:Transitioned.obj
 0001:00062820       ??0Proto_transition@Transitioned@@QAE@IAAV1@I@Z 00463820 f i transitiond:Transitioned.obj
 0001:000628e0       ?add_commanded_prototype@Transitioned@@QAEXIHIABV?$Slist@U?$MBApair@PAVVariable@@I@@@@0@Z 004638e0 f   transitiond:Transitioned.obj
 0001:000629a0       ?get_command_assignment@Proto_transition@Transitioned@@QBEPBVAssignment@@XZ 004639a0 f i transitiond:Transitioned.obj
 0001:000629d0       ?add_transition_prototype_to_table@Transitioned@@AAEXABVAssignment@@PAVProto_transition@1@@Z 004639d0 f   transitiond:Transitioned.obj
 0001:00062ad0       ??1?$MBApair@PBVAssignment@@V?$Slist@PAVProto_transition@Transitioned@@@@@@QAE@XZ 00463ad0 f i transitiond:Transitioned.obj
 0001:00062b10       ?set_initial_mode@Transitioned@@QAEPAVClause@@IHI_N@Z 00463b10 f   transitiond:Transitioned.obj
 0001:00062d00       ?add_transition_clause@Transitioned@@QAEXPAVClause@@@Z 00463d00 f i transitiond:Transitioned.obj
 0001:00062d60       ?set_transition@Clause@@QAEX_N@Z 00463d60 f i transitiond:Transitioned.obj
 0001:00062db0       ?instantiate_indexed_clauses@Transitioned@@AAEXABVAssignment@@II@Z 00463db0 f   transitiond:Transitioned.obj
 0001:00062e70       ?instantiate_autonomous_clauses@Transitioned@@AAEXI@Z 00463e70 f   transitiond:Transitioned.obj
 0001:00062f40       ?instantiate_unindexed_clauses@Transitioned@@AAEXII@Z 00463f40 f   transitiond:Transitioned.obj
 0001:00062ff0       ?add_idle_transitions@Transitioned@@IAEXXZ 00463ff0 f   transitiond:Transitioned.obj
 0001:00063170       ?add_idle_transitions@Transitioned@@QAEXIABVTransition@@@Z 00464170 f   transitiond:Transitioned.obj
 0001:00063340       ?get_next@Variable@@QBEPAV1@XZ 00464340 f i transitiond:Transitioned.obj
 0001:00063370       ??0Proto_transition@Transitioned@@QAE@IAAV1@IABV?$Slist@U?$MBApair@PAVVariable@@I@@@@1H@Z 00464370 f   transitiond:Transitioned.obj
 0001:00063470       ?findCommandAssignment@Proto_transition@Transitioned@@AAEPAVAssignment@@XZ 00464470 f   transitiond:Transitioned.obj
 0001:000635c0       ?begin_positive@Proto_transition@Transitioned@@QAE?AV?$Slist_iterator@U?$MBApair@PAVVariable@@I@@@@XZ 004645c0 f i transitiond:Transitioned.obj
 0001:00063610       ?end_positive@Proto_transition@Transitioned@@QAE?AV?$Slist_iterator@U?$MBApair@PAVVariable@@I@@@@XZ 00464610 f i transitiond:Transitioned.obj
 0001:00063660       ?begin_negative@Proto_transition@Transitioned@@QAE?AV?$Slist_iterator@U?$MBApair@PAVVariable@@I@@@@XZ 00464660 f i transitiond:Transitioned.obj
 0001:000636b0       ?end_negative@Proto_transition@Transitioned@@QAE?AV?$Slist_iterator@U?$MBApair@PAVVariable@@I@@@@XZ 004646b0 f i transitiond:Transitioned.obj
 0001:00063700       ?find_transition_prototypes@Transitioned@@AAEPAV?$Slist@PAVProto_transition@Transitioned@@@@ABVAssignment@@@Z 00464700 f   transitiond:Transitioned.obj
 0001:000637a0       ?prop_closest_before@Proto_transition@Transitioned@@CAPAVProposition@@ABU?$MBApair@PAVVariable@@I@@I@Z 004647a0 f   transitiond:Transitioned.obj
 0001:00063810       ?prop_closest_after@Proto_transition@Transitioned@@CAPAVProposition@@ABU?$MBApair@PAVVariable@@I@@I@Z 00464810 f   transitiond:Transitioned.obj
 0001:00063890       ?set_antecedants@Proto_transition@Transitioned@@AAEXAAV?$Slist@PAVProposition@@@@0I@Z 00464890 f   transitiond:Transitioned.obj
 0001:000639f0       ?instantiate@Proto_transition@Transitioned@@QAEPAVClause@@AAVT_system@@II@Z 004649f0 f   transitiond:Transitioned.obj
 0001:00063b90       ?add_transition_cost@Transitioned@@QAEXI@Z 00464b90 f   transitiond:Transitioned.obj
 0001:00063ca0       ?set_weight@Assignable@@QAEXAAVAssignment@@I@Z 00464ca0 f i transitiond:Transitioned.obj
 0001:00063ce0       ?set_weight@Assignment@@QAEXI@Z 00464ce0 f i transitiond:Transitioned.obj
 0001:00063d10       ?remove_old_modeTransition@Transitioned@@QAEXI@Z 00464d10 f   transitiond:Transitioned.obj
 0001:00063d70       ?remove_destroyed_clauses@Transitioned@@QAEXXZ 00464d70 f   transitiond:Transitioned.obj
 0001:00063e90       ?is_destroying@Clause@@QBE_NXZ 00464e90 f i transitiond:Transitioned.obj
 0001:00063ed0       ??0?$Slist@U?$MBApair@PAVVariable@@I@@@@QAE@XZ 00464ed0 f i transitiond:Transitioned.obj
 0001:00063f10       ??1?$Slist@U?$MBApair@PAVVariable@@I@@@@QAE@XZ 00464f10 f i transitiond:Transitioned.obj
 0001:00063f50       ?push_front@?$Slist@U?$MBApair@PAVVariable@@I@@@@QAEXABU?$MBApair@PAVVariable@@I@@@Z 00464f50 f i transitiond:Transitioned.obj
 0001:00063fd0       ??0?$Slist@U?$MBApair@PBVAssignment@@V?$Slist@PAVProto_transition@Transitioned@@@@@@@@QAE@XZ 00464fd0 f i transitiond:Transitioned.obj
 0001:00064010       ??1?$Slist@U?$MBApair@PBVAssignment@@V?$Slist@PAVProto_transition@Transitioned@@@@@@@@QAE@XZ 00465010 f i transitiond:Transitioned.obj
 0001:00064050       ?push_front@?$Slist@U?$MBApair@PBVAssignment@@V?$Slist@PAVProto_transition@Transitioned@@@@@@@@QAEXABU?$MBApair@PBVAssignment@@V?$Slist@PAVProto_transition@Transitioned@@@@@@@Z 00465050 f i transitiond:Transitioned.obj
 0001:000640d0       ?erase@?$Slist@U?$MBApair@PBVAssignment@@V?$Slist@PAVProto_transition@Transitioned@@@@@@@@QAEXXZ 004650d0 f i transitiond:Transitioned.obj
 0001:00064130       ??0?$Slist@PAVProto_transition@Transitioned@@@@QAE@XZ 00465130 f i transitiond:Transitioned.obj
 0001:00064170       ??1?$Slist@PAVProto_transition@Transitioned@@@@QAE@XZ 00465170 f i transitiond:Transitioned.obj
 0001:000641b0       ?push_front@?$Slist@PAVProto_transition@Transitioned@@@@QAEXABQAVProto_transition@Transitioned@@@Z 004651b0 f i transitiond:Transitioned.obj
 0001:00064230       ?erase@?$Slist@PAVProto_transition@Transitioned@@@@QAEXXZ 00465230 f i transitiond:Transitioned.obj
 0001:00064290       ??0?$MBApair@PBVAssignment@@V?$Slist@PAVProto_transition@Transitioned@@@@@@QAE@XZ 00465290 f i transitiond:Transitioned.obj
 0001:000642d0       ?erase@?$Slist@U?$MBApair@PAVVariable@@I@@@@QAEXXZ 004652d0 f i transitiond:Transitioned.obj
 0001:00064330       ??0?$Slist_item@U?$MBApair@PAVVariable@@I@@@@QAE@ABU?$MBApair@PAVVariable@@I@@PAV0@@Z 00465330 f i transitiond:Transitioned.obj
 0001:00064390       ??0?$Slist_item@U?$MBApair@PBVAssignment@@V?$Slist@PAVProto_transition@Transitioned@@@@@@@@QAE@ABU?$MBApair@PBVAssignment@@V?$Slist@PAVProto_transition@Transitioned@@@@@@PAV0@@Z 00465390 f i transitiond:Transitioned.obj
 0001:00064410       ?delete_list@?$Slist_item@U?$MBApair@PBVAssignment@@V?$Slist@PAVProto_transition@Transitioned@@@@@@@@QAEXXZ 00465410 f i transitiond:Transitioned.obj
 0001:00064490       ??0?$Slist_item@PAVProto_transition@Transitioned@@@@QAE@ABQAVProto_transition@Transitioned@@PAV0@@Z 00465490 f i transitiond:Transitioned.obj
 0001:000644e0       ?delete_list@?$Slist_item@PAVProto_transition@Transitioned@@@@QAEXXZ 004654e0 f i transitiond:Transitioned.obj
 0001:00064560       ??0?$MBApair@PBVAssignment@@V?$Slist@PAVProto_transition@Transitioned@@@@@@QAE@ABU0@@Z 00465560 f i transitiond:Transitioned.obj
 0001:000645b0       ??_G?$Slist_item@U?$MBApair@PBVAssignment@@V?$Slist@PAVProto_transition@Transitioned@@@@@@@@QAEPAXI@Z 004655b0 f i transitiond:Transitioned.obj
 0001:00064610       ??_G?$Slist_item@PAVProto_transition@Transitioned@@@@QAEPAXI@Z 00465610 f i transitiond:Transitioned.obj
 0001:00064670       ??1?$Slist_item@U?$MBApair@PBVAssignment@@V?$Slist@PAVProto_transition@Transitioned@@@@@@@@QAE@XZ 00465670 f i transitiond:Transitioned.obj
 0001:000646e0       ??1?$Slist_item@PAVProto_transition@Transitioned@@@@QAE@XZ 004656e0 f i transitiond:Transitioned.obj
 0001:00064720       ?delete_list@?$Slist_item@U?$MBApair@PAVVariable@@I@@@@QAEXXZ 00465720 f i transitiond:Transitioned.obj
 0001:000647a0       ??_G?$Slist_item@U?$MBApair@PAVVariable@@I@@@@QAEPAXI@Z 004657a0 f i transitiond:Transitioned.obj
 0001:00064800       ??1?$Slist_item@U?$MBApair@PAVVariable@@I@@@@QAE@XZ 00465800 f i transitiond:Transitioned.obj
 0001:00064840       ?push_back@?$Slist@PAVClause@@@@QAEXABQAVClause@@@Z 00465840 f i transitiond:Transitioned.obj
 0001:00064900       ?erase@?$Slist@PAVClause@@@@QAEXAAV?$Slist_iterator@PAVClause@@@@@Z 00465900 f i transitiond:Transitioned.obj
 0001:000649b0       ??0?$Slist@U?$MBApair@PAVVariable@@I@@@@QAE@ABV0@@Z 004659b0 f i transitiond:Transitioned.obj
 0001:00064ab0       ??0?$Slist@PAVProto_transition@Transitioned@@@@QAE@ABV0@@Z 00465ab0 f i transitiond:Transitioned.obj
 0001:00064bb0       ?size@?$Slist@I@@QBEIXZ    00465bb0 f i transitiond:Transitioned.obj
 0001:00064be0       ?push_back@?$Slist@I@@QAEXABI@Z 00465be0 f i transitiond:Transitioned.obj
 0001:00064ca0       ??0?$Slist_item@U?$MBApair@PAVVariable@@I@@@@QAE@ABU?$MBApair@PAVVariable@@I@@@Z 00465ca0 f i transitiond:Transitioned.obj
 0001:00064d00       ??0?$Slist_item@PAVProto_transition@Transitioned@@@@QAE@ABQAVProto_transition@Transitioned@@@Z 00465d00 f i transitiond:Transitioned.obj
 0001:00064d50       ??0?$Slist_item@I@@QAE@ABI@Z 00465d50 f i transitiond:Transitioned.obj
 0001:00064da0       ?last@?$Slist@PAVClause@@@@ABEPAV?$Slist_item@PAVClause@@@@XZ 00465da0 f i transitiond:Transitioned.obj
 0001:00064df0       ?last@?$Slist@I@@ABEPAV?$Slist_item@I@@XZ 00465df0 f i transitiond:Transitioned.obj
 0001:000650c0       ??0Tracker@@QAE@AAVT_system@@@Z 004660c0 f   transitiond:Tracker.obj
 0001:00065280       ??_ETracker@@UAEPAXI@Z     00466280 f i transitiond:Tracker.obj
 0001:00065280       ??_GTracker@@UAEPAXI@Z     00466280 f i transitiond:Tracker.obj
 0001:000652e0       ??1Tracker@@UAE@XZ         004662e0 f i transitiond:Tracker.obj
 0001:00065390       ?eraseCandidatePartition@Tracker@@QAEXXZ 00466390 f   transitiond:Tracker.obj
 0001:00065430       ??_GCandidateEqClass@@QAEPAXI@Z 00466430 f i transitiond:Tracker.obj
 0001:00065490       ??1CandidateEqClass@@QAE@XZ 00466490 f i transitiond:Tracker.obj
 0001:00065510       ?equivalenceClassIndex@Tracker@@QBEIABVCandidate@@@Z 00466510 f   transitiond:Tracker.obj
 0001:000655b0       ?partition@Tracker@@QAEXXZ 004665b0 f   transitiond:Tracker.obj
 0001:000656c0       ??0CandidateEqClass@@QAE@ABVCandidate@@@Z 004666c0 f i transitiond:Tracker.obj
 0001:00065740       ?add@CandidateEqClass@@QAE_NABVCandidate@@@Z 00466740 f i transitiond:Tracker.obj
 0001:000657a0       ?begin@Tracker@@QAE?AV?$Slist_iterator@PAVCandidate@@@@XZ 004667a0 f i transitiond:Tracker.obj
 0001:00065800       ?end@Tracker@@QAE?AV?$Slist_iterator@PAVCandidate@@@@XZ 00466800 f i transitiond:Tracker.obj
 0001:00065860       ??0?$Array@PBVCandidate@@$0A@@@QAE@XZ 00466860 f i transitiond:Tracker.obj
 0001:000658b0       ??1?$Array@PBVCandidate@@$0A@@@QAE@XZ 004668b0 f i transitiond:Tracker.obj
 0001:00065910       ?erase@?$Array@PBVCandidate@@$0A@@@QAEXXZ 00466910 f i transitiond:Tracker.obj
 0001:00065970       ?push@?$Array@PBVCandidate@@$0A@@@QAEXABQBVCandidate@@@Z 00466970 f i transitiond:Tracker.obj
 0001:000659e0       ??0?$Slist@PAVTracker_listener@@@@QAE@XZ 004669e0 f i transitiond:Tracker.obj
 0001:00065a20       ??1?$Slist@PAVTracker_listener@@@@QAE@XZ 00466a20 f i transitiond:Tracker.obj
 0001:00065a60       ??0?$Array@PAVCandidateEqClass@@$0A@@@QAE@XZ 00466a60 f i transitiond:Tracker.obj
 0001:00065ab0       ??1?$Array@PAVCandidateEqClass@@$0A@@@QAE@XZ 00466ab0 f i transitiond:Tracker.obj
 0001:00065b10       ?erase@?$Array@PAVCandidateEqClass@@$0A@@@QAEXXZ 00466b10 f i transitiond:Tracker.obj
 0001:00065b70       ??A?$Array@PAVCandidateEqClass@@$0A@@@QAEAAPAVCandidateEqClass@@I@Z 00466b70 f i transitiond:Tracker.obj
 0001:00065bd0       ?push@?$Array@PAVCandidateEqClass@@$0A@@@QAEXABQAVCandidateEqClass@@@Z 00466bd0 f i transitiond:Tracker.obj
 0001:00065c40       ?ensure@?$Array@PBVCandidate@@$0A@@@AAEXI@Z 00466c40 f i transitiond:Tracker.obj
 0001:00065d10       ?do_free@?$Array@PBVCandidate@@$0A@@@AAEXPAPBVCandidate@@I@Z 00466d10 f i transitiond:Tracker.obj
 0001:00065d70       ?erase@?$Slist@PAVTracker_listener@@@@QAEXXZ 00466d70 f i transitiond:Tracker.obj
 0001:00065dd0       ?ensure@?$Array@PAVCandidateEqClass@@$0A@@@AAEXI@Z 00466dd0 f i transitiond:Tracker.obj
 0001:00065ea0       ?do_free@?$Array@PAVCandidateEqClass@@$0A@@@AAEXPAPAVCandidateEqClass@@I@Z 00466ea0 f i transitiond:Tracker.obj
 0001:00065f00       ?do_allocate@?$Array@PBVCandidate@@$0A@@@AAEPAPBVCandidate@@I@Z 00466f00 f i transitiond:Tracker.obj
 0001:00065f70       ?do_allocate@?$Array@PAVCandidateEqClass@@$0A@@@AAEPAPAVCandidateEqClass@@I@Z 00466f70 f i transitiond:Tracker.obj
 0001:00065fe0       ?delete_list@?$Slist_item@PAVTracker_listener@@@@QAEXXZ 00466fe0 f i transitiond:Tracker.obj
 0001:00066060       ??_G?$Slist_item@PAVTracker_listener@@@@QAEPAXI@Z 00467060 f i transitiond:Tracker.obj
 0001:000660c0       ??1?$Slist_item@PAVTracker_listener@@@@QAE@XZ 004670c0 f i transitiond:Tracker.obj
 0001:00066100       ?L2_free_array@@YAXPAPBVCandidate@@I@Z 00467100 f i transitiond:Tracker.obj
 0001:00066170       ?L2_free_array_no_dtor@@YAXPAPBVCandidate@@I@Z 00467170 f i transitiond:Tracker.obj
 0001:000661b0       ?L2_free_array@@YAXPAPAVCandidateEqClass@@I@Z 004671b0 f i transitiond:Tracker.obj
 0001:00066220       ?L2_free_array_no_dtor@@YAXPAPAVCandidateEqClass@@I@Z 00467220 f i transitiond:Tracker.obj
 0001:00066260       ?L2_initialize_array@@YAPAPBVCandidate@@PAPBV1@I@Z 00467260 f i transitiond:Tracker.obj
 0001:000662c0       ?L2_initialize_array@@YAPAPAVCandidateEqClass@@PAPAV1@I@Z 004672c0 f i transitiond:Tracker.obj
 0001:000665a0       ??0Assignable@@QAE@AAVConflict_db@@III@Z 004675a0 f   transitiond:Assignable.obj
 0001:00066770       ??0Assignment@@QAE@PAVAssignable@@I@Z 00467770 f i transitiond:Assignable.obj
 0001:00066820       ?set_clause@Assignment@@IAEXPAVClause@@@Z 00467820 f i transitiond:Assignable.obj
 0001:00066850       ?is_command@Assignable@@UBE_NXZ 00467850 f i transitiond:Assignable.obj
 0001:00066880       ?is_observable@Assignable@@UBE_NXZ 00467880 f i transitiond:Assignable.obj
 0001:000668f0       ??_EAssignable@@UAEPAXI@Z  004678f0 f i transitiond:Assignable.obj
 0001:000668f0       ??_GAssignable@@UAEPAXI@Z  004678f0 f i transitiond:Assignable.obj
 0001:00066950       ??1Assignable@@UAE@XZ      00467950 f   transitiond:Assignable.obj
 0001:00066a50       ??_GAssignment@@QAEPAXI@Z  00467a50 f i transitiond:Assignable.obj
 0001:00066ab0       ??1Assignment@@QAE@XZ      00467ab0 f i transitiond:Assignable.obj
 0001:00066b30       ?assign@Assignable@@QAEXPBVAssignment@@@Z 00467b30 f   transitiond:Assignable.obj
 0001:00066be0       ?get_clause@Assignment@@QBEPAVClause@@XZ 00467be0 f i transitiond:Assignable.obj
 0001:00066c10       ?unassign@Assignable@@UAEXXZ 00467c10 f   transitiond:Assignable.obj
 0001:00066c80       ?get_assignment@Assignable@@QAEPAVAssignment@@I@Z 00467c80 f   transitiond:Assignable.obj
 0001:00066d20       ?push_back@?$Slist@PAVAssignment@@@@QAEXABQAVAssignment@@@Z 00467d20 f i transitiond:Assignable.obj
 0001:00066de0       ?last@?$Slist@PAVAssignment@@@@ABEPAV?$Slist_item@PAVAssignment@@@@XZ 00467de0 f i transitiond:Assignable.obj
 0001:000670b0       ?assign@Assignment@@QBEXXZ 004680b0 f   transitiond:Assignment.obj
 0001:000670f0       ?add_conflict@Assignment@@QAEXABVConflict@@@Z 004680f0 f   transitiond:Assignment.obj
 0001:000671d0       ?remove_conflict@Assignment@@QAEXABVConflict@@@Z 004681d0 f   transitiond:Assignment.obj
 0001:00067290       ?is_assumption@Assignment@@QBE_NXZ 00468290 f   transitiond:Assignment.obj
 0001:000672e0       ?get_time_step@Assignment@@QBEIXZ 004682e0 f   transitiond:Assignment.obj
 0001:00067320       ?append_other_values@Assignment@@QAEXAAV?$Slist@PAVAssignment@@@@@Z 00468320 f   transitiond:Assignment.obj
 0001:00067410       ?remove@?$Slist@PBVConflict@@@@QAEXABQBVConflict@@@Z 00468410 f i transitiond:Assignment.obj
 0001:00067510       ?contains@?$Slist@PBVConflict@@@@QBE_NABQBVConflict@@@Z 00468510 f i transitiond:Assignment.obj
 0001:00067570       ??Y?$Slist@PAVAssignment@@@@QAEAAV0@ABV0@@Z 00468570 f i transitiond:Assignment.obj
 0001:00067930       ??0Candidate@@QAE@ABV0@@Z  00468930 f   transitiond:Candidate.obj
 0001:00067a00       ??4Candidate@@QAEAAV0@ABV0@@Z 00468a00 f   transitiond:Candidate.obj
 0001:00067a90       ?assign@Candidate@@QBEXXZ  00468a90 f   transitiond:Candidate.obj
 0001:00067b00       ?remove@Candidate@@QAE_NPBVAssignment@@@Z 00468b00 f   transitiond:Candidate.obj
 0001:00067b80       ?truncate@Candidate@@QAEXIAAVAssignment@@@Z 00468b80 f   transitiond:Candidate.obj
 0001:00067c90       ?add@Candidate@@QAEXPBVAssignment@@@Z 00468c90 f i transitiond:Candidate.obj
 0001:00067cd0       ?smallest_unresolved_conflict@Candidate@@QBEPBVConflict@@XZ 00468cd0 f   transitiond:Candidate.obj
 0001:00067db0       ?get_conflicts@Assignment@@QBEABV?$Slist@PBVConflict@@@@XZ 00468db0 f i transitiond:Candidate.obj
 0001:00067de0       ??MConflict@@QBE_NABV0@@Z  00468de0 f i transitiond:Candidate.obj
 0001:00067e30       ?get_conflict_assignments@Candidate@@QBEXABQAVConflict@@AAV?$Slist@PBVAssignment@@@@@Z 00468e30 f   transitiond:Candidate.obj
 0001:00067f30       ?equivalent@Candidate@@QBE_NABV1@@Z 00468f30 f   transitiond:Candidate.obj
 0001:00067fd0       ?add_consistently@Candidate@@QAEXABQBVAssignment@@@Z 00468fd0 f   transitiond:Candidate.obj
 0001:00068060       ?is_inconsistent@Assignment@@QBE_NABV1@@Z 00469060 f i transitiond:Candidate.obj
 0001:000680b0       ?superset_of@Candidate@@QBE_NQAV1@@Z 004690b0 f   transitiond:Candidate.obj
 0001:00068130       ?conflict_not_resolved@Candidate@@QBE_NPBVConflict@@@Z 00469130 f   transitiond:Candidate.obj
 0001:00068210       ?consistent_assignment@Candidate@@QBE_NABVAssignment@@@Z 00469210 f   transitiond:Candidate.obj
 0001:00068290       ?contains@Candidate@@QBE_NPBVAssignment@@@Z 00469290 f   transitiond:Candidate.obj
 0001:00068300       ?get_weight@Candidate@@QBEIABV?$Array@PBVAssignment@@$0A@@@@Z 00469300 f   transitiond:Candidate.obj
 0001:00068340       ?sum_assignment_weights@Candidate@@QBEIABV?$Array@PBVAssignment@@$0A@@@@Z 00469340 f   transitiond:Candidate.obj
 0001:000683c0       ?empty@?$Slist@PBVConflict@@@@QBE_NXZ 004693c0 f i transitiond:Candidate.obj
 0001:00068400       ?front@?$Slist@PBVConflict@@@@QBEABQBVConflict@@XZ 00469400 f i transitiond:Candidate.obj
 0001:00068460       ??0?$Array@PBVAssignment@@$0A@@@QAE@XZ 00469460 f i transitiond:Candidate.obj
 0001:000684b0       ??0?$Array@PBVAssignment@@$0A@@@QAE@I@Z 004694b0 f i transitiond:Candidate.obj
 0001:00068510       ?begin@?$Array@PBVAssignment@@$0A@@@QBEPAPBVAssignment@@XZ 00469510 f i transitiond:Candidate.obj
 0001:00068540       ?end@?$Array@PBVAssignment@@$0A@@@QBEPAPBVAssignment@@XZ 00469540 f i transitiond:Candidate.obj
 0001:00068580       ?push@?$Array@PBVAssignment@@$0A@@@QAEXABQBVAssignment@@@Z 00469580 f i transitiond:Candidate.obj
 0001:000685f0       ?erase@?$Array@PBVAssignment@@$0A@@@QAEXPAPBVAssignment@@@Z 004695f0 f i transitiond:Candidate.obj
 0001:00068670       ?remove@?$Array@PBVAssignment@@$0A@@@QAEXI@Z 00469670 f i transitiond:Candidate.obj
 0001:00068700       ?ensure@?$Array@PBVAssignment@@$0A@@@AAEXI@Z 00469700 f i transitiond:Candidate.obj
 0001:000687d0       ?do_allocate@?$Array@PBVAssignment@@$0A@@@AAEPAPBVAssignment@@I@Z 004697d0 f i transitiond:Candidate.obj
 0001:00068840       ?insert@?$Slist@PBVAssignment@@@@QAEXAAV?$Slist_iterator@PBVAssignment@@@@ABQBVAssignment@@@Z 00469840 f i transitiond:Candidate.obj
 0001:00068970       ?L2_initialize_array@@YAPAPBVAssignment@@PAPBV1@I@Z 00469970 f i transitiond:Candidate.obj
 0001:000689d0       ??8?$Slist_iterator@PBVAssignment@@@@QBE_NABV0@@Z 004699d0 f i transitiond:Candidate.obj
 0001:00068a10       ?push_back@?$Slist@PBVAssignment@@@@QAEXABQBVAssignment@@@Z 00469a10 f i transitiond:Candidate.obj
 0001:00068b50       ??0?$Slist_item@PBVAssignment@@@@QAE@ABQBVAssignment@@@Z 00469b50 f i transitiond:Candidate.obj
 0001:00068ba0       ?last@?$Slist@PBVAssignment@@@@ABEPAV?$Slist_item@PBVAssignment@@@@XZ 00469ba0 f i transitiond:Candidate.obj
 0001:00068df0       ??0Assumption@@QAE@AAVConflict_db@@IABV?$Slist@I@@II@Z 00469df0 f   transitiond:assumption.obj
 0001:000690a0       ?begin@?$Slist@I@@QBE?AV?$Slist_iterator@$$CBI@@XZ 0046a0a0 f i transitiond:assumption.obj
 0001:000690f0       ??E?$Slist_iterator@$$CBI@@QAEAAV0@XZ 0046a0f0 f i transitiond:assumption.obj
 0001:00069140       ??D?$Slist_iterator@$$CBI@@QAEABIXZ 0046a140 f i transitiond:assumption.obj
 0001:00069190       ??0?$Slist_iterator@$$CBI@@QAE@PAV?$Slist_item@$$CBI@@@Z 0046a190 f i transitiond:assumption.obj
 0001:00069450       ??0Conflict@@QAE@ABV?$Slist@PAVAssignment@@@@I@Z 0046a450 f   transitiond:Conflict.obj
 0001:00069530       ?resolving_assignments@Conflict@@QBEXAAV?$Slist@PAVAssignment@@@@@Z 0046a530 f   transitiond:Conflict.obj
 0001:000695c0       ?subsumes@Conflict@@QBE_NABV?$Slist@PAVAssignment@@@@@Z 0046a5c0 f   transitiond:Conflict.obj
 0001:00069660       ?subsumedBy@Conflict@@QBE_NABV?$Slist@PAVAssignment@@@@@Z 0046a660 f   transitiond:Conflict.obj
 0001:00069700       ?contains@?$Slist@PAVAssignment@@@@QBE_NABQAVAssignment@@@Z 0046a700 f i transitiond:Conflict.obj
 0001:000699e0       ?isEquivalent@CandidateEqClass@@QBE_NABVCandidate@@0@Z 0046a9e0 f   transitiond:CandidateEqClass.obj
 0001:00069b70       ?isEquivalent@CandidateEqClass@@QBE_NABV?$Slist@PBVTriple@CandidateEqClass@@@@0@Z 0046ab70 f   transitiond:CandidateEqClass.obj
 0001:00069cb0       ?createTriples@CandidateEqClass@@ABEXAAV?$Slist@PBVTriple@CandidateEqClass@@@@ABVCandidate@@ABVT_system@@@Z 0046acb0 f   transitiond:CandidateEqClass.obj
 0001:00069e60       ??0Triple@CandidateEqClass@@QAE@III@Z 0046ae60 f i transitiond:CandidateEqClass.obj
 0001:00069ec0       ?deleteTriples@CandidateEqClass@@ABEXAAV?$Slist@PBVTriple@CandidateEqClass@@@@@Z 0046aec0 f   transitiond:CandidateEqClass.obj
 0001:00069f70       ??_GTriple@CandidateEqClass@@QAEPAXI@Z 0046af70 f i transitiond:CandidateEqClass.obj
 0001:00069fd0       ??1Triple@CandidateEqClass@@QAE@XZ 0046afd0 f i transitiond:CandidateEqClass.obj
 0001:0006a010       ?belongs@CandidateEqClass@@QBE_NABVCandidate@@ABVT_system@@@Z 0046b010 f   transitiond:CandidateEqClass.obj
 0001:0006a160       ?contains@CandidateEqClass@@IBE_NABVCandidate@@@Z 0046b160 f   transitiond:CandidateEqClass.obj
 0001:0006a1d0       ??0?$Slist@PBVTriple@CandidateEqClass@@@@QAE@XZ 0046b1d0 f i transitiond:CandidateEqClass.obj
 0001:0006a210       ??1?$Slist@PBVTriple@CandidateEqClass@@@@QAE@XZ 0046b210 f i transitiond:CandidateEqClass.obj
 0001:0006a250       ?begin@?$Slist@PBVTriple@CandidateEqClass@@@@QAE?AV?$Slist_iterator@PBVTriple@CandidateEqClass@@@@XZ 0046b250 f i transitiond:CandidateEqClass.obj
 0001:0006a2a0       ?begin@?$Slist@PBVTriple@CandidateEqClass@@@@QBE?AV?$Slist_iterator@QBVTriple@CandidateEqClass@@@@XZ 0046b2a0 f i transitiond:CandidateEqClass.obj
 0001:0006a2f0       ?end@?$Slist@PBVTriple@CandidateEqClass@@@@QAE?AV?$Slist_iterator@PBVTriple@CandidateEqClass@@@@XZ 0046b2f0 f i transitiond:CandidateEqClass.obj
 0001:0006a340       ?end@?$Slist@PBVTriple@CandidateEqClass@@@@QBE?AV?$Slist_iterator@QBVTriple@CandidateEqClass@@@@XZ 0046b340 f i transitiond:CandidateEqClass.obj
 0001:0006a390       ??E?$Slist_iterator@QBVTriple@CandidateEqClass@@@@QAEAAV0@XZ 0046b390 f i transitiond:CandidateEqClass.obj
 0001:0006a3e0       ??D?$Slist_iterator@QBVTriple@CandidateEqClass@@@@QAEABQBVTriple@CandidateEqClass@@XZ 0046b3e0 f i transitiond:CandidateEqClass.obj
 0001:0006a430       ??9?$Slist_iterator@QBVTriple@CandidateEqClass@@@@QBE_NABV0@@Z 0046b430 f i transitiond:CandidateEqClass.obj
 0001:0006a470       ??E?$Slist_iterator@PBVTriple@CandidateEqClass@@@@QAEAAV0@XZ 0046b470 f i transitiond:CandidateEqClass.obj
 0001:0006a4c0       ??D?$Slist_iterator@PBVTriple@CandidateEqClass@@@@QAEAAPBVTriple@CandidateEqClass@@XZ 0046b4c0 f i transitiond:CandidateEqClass.obj
 0001:0006a510       ??9?$Slist_iterator@PBVTriple@CandidateEqClass@@@@QBE_NABV0@@Z 0046b510 f i transitiond:CandidateEqClass.obj
 0001:0006a550       ?erase@?$Slist@PBVTriple@CandidateEqClass@@@@QAEXXZ 0046b550 f i transitiond:CandidateEqClass.obj
 0001:0006a5b0       ??0?$Slist_iterator@QBVTriple@CandidateEqClass@@@@QAE@PAV?$Slist_item@QBVTriple@CandidateEqClass@@@@@Z 0046b5b0 f i transitiond:CandidateEqClass.obj
 0001:0006a5f0       ??0?$Slist_iterator@PBVTriple@CandidateEqClass@@@@QAE@PAV?$Slist_item@PBVTriple@CandidateEqClass@@@@@Z 0046b5f0 f i transitiond:CandidateEqClass.obj
 0001:0006a630       ?delete_list@?$Slist_item@PBVTriple@CandidateEqClass@@@@QAEXXZ 0046b630 f i transitiond:CandidateEqClass.obj
 0001:0006a6b0       ??_G?$Slist_item@PBVTriple@CandidateEqClass@@@@QAEPAXI@Z 0046b6b0 f i transitiond:CandidateEqClass.obj
 0001:0006a710       ??1?$Slist_item@PBVTriple@CandidateEqClass@@@@QAE@XZ 0046b710 f i transitiond:CandidateEqClass.obj
 0001:0006a750       ?size@?$Slist@PBVTriple@CandidateEqClass@@@@QBEIXZ 0046b750 f i transitiond:CandidateEqClass.obj
 0001:0006a780       ?push_back@?$Slist@PBVTriple@CandidateEqClass@@@@QAEXABQBVTriple@CandidateEqClass@@@Z 0046b780 f i transitiond:CandidateEqClass.obj
 0001:0006a840       ??0?$Slist_item@PBVTriple@CandidateEqClass@@@@QAE@ABQBVTriple@CandidateEqClass@@@Z 0046b840 f i transitiond:CandidateEqClass.obj
 0001:0006a890       ?last@?$Slist@PBVTriple@CandidateEqClass@@@@ABEPAV?$Slist_item@PBVTriple@CandidateEqClass@@@@XZ 0046b890 f i transitiond:CandidateEqClass.obj
 0001:0006ab60       ?parse_cmd@CBFS_tracker_debug@@UAE_NPBD0@Z 0046bb60 f   opsatd:cbfs_tracker_debug.obj
 0001:0006ac60       ?next_consistent_candidate@CBFS_tracker@@QAEPAVCandidate@@XZ 0046bc60 f i opsatd:cbfs_tracker_debug.obj
 0001:0006aca0       ?get_tracker@Tracker_debug@@QAEPAVTracker@@XZ 0046bca0 f i opsatd:cbfs_tracker_debug.obj
 0001:0006acd0       ?get_ostream@Tracker_debug@@IBEAAV?$basic_ostream@DU?$char_traits@D@std@@@std@@XZ 0046bcd0 f i opsatd:cbfs_tracker_debug.obj
 0001:0006ad00       ?get_cbfs_tracker@CBFS_tracker_debug@@QAEPAVCBFS_tracker@@XZ 0046bd00 f i opsatd:cbfs_tracker_debug.obj
 0001:0006ad40       ?listener_usage@CBFS_tracker_debug@@UBEXXZ 0046bd40 f   opsatd:cbfs_tracker_debug.obj
 0001:0006add0       ?search_termination@CBFS_tracker_debug@@UBE?AVMBA_string@@XZ 0046bdd0 f   opsatd:cbfs_tracker_debug.obj
 0001:0006b010       ?getCandidates@Conflict_db@@QBEABV?$Slist@PAVCandidate@@@@XZ 0046c010 f i opsatd:cbfs_tracker_debug.obj
 0001:0006b040       ?get_t_system@Tracker@@QBEABVT_system@@XZ 0046c040 f i opsatd:cbfs_tracker_debug.obj
 0001:0006b070       ?getCandidatePartition@Tracker@@QBEABV?$Array@PAVCandidateEqClass@@$0A@@@XZ 0046c070 f i opsatd:cbfs_tracker_debug.obj
 0001:0006b0a0       ?get_cutoff_weight@CBFS_tracker@@QBEIXZ 0046c0a0 f i opsatd:cbfs_tracker_debug.obj
 0001:0006b0e0       ?get_cutoff_weight@Opsat_CBFS@@QBEIXZ 0046c0e0 f i opsatd:cbfs_tracker_debug.obj
 0001:0006b110       ?get_max_candidates@CBFS_tracker@@QBEIXZ 0046c110 f i opsatd:cbfs_tracker_debug.obj
 0001:0006b150       ?get_max_candidates@Opsat_CBFS@@QBEIXZ 0046c150 f i opsatd:cbfs_tracker_debug.obj
 0001:0006b180       ?get_max_candidate_classes@CBFS_tracker@@QBEIXZ 0046c180 f i opsatd:cbfs_tracker_debug.obj
 0001:0006b1b0       ?get_number_tracked@CBFS_tracker@@QBEIXZ 0046c1b0 f i opsatd:cbfs_tracker_debug.obj
 0001:0006b1e0       ?get_candidates_considered@CBFS_tracker@@QBEIXZ 0046c1e0 f i opsatd:cbfs_tracker_debug.obj
 0001:0006b220       ?get_candidates_considered@Opsat_CBFS@@QBEIXZ 0046c220 f i opsatd:cbfs_tracker_debug.obj
 0001:0006b250       ?get_tracker@Tracker_debug@@QBEPBVTracker@@XZ 0046c250 f i opsatd:cbfs_tracker_debug.obj
 0001:0006b280       ?get_cbfs_tracker@CBFS_tracker_debug@@QBEPBVCBFS_tracker@@XZ 0046c280 f i opsatd:cbfs_tracker_debug.obj
 0001:0006b2c0       ??6?$basic_ostream@DU?$char_traits@D@std@@@std@@QAEAAV01@PBX@Z 0046c2c0 f i opsatd:cbfs_tracker_debug.obj
 0001:0006b470       ?put@?$num_put@DV?$ostreambuf_iterator@DU?$char_traits@D@std@@@std@@@std@@QBE?AV?$ostreambuf_iterator@DU?$char_traits@D@std@@@2@V32@AAVios_base@2@DPBX@Z 0046c470 f i opsatd:cbfs_tracker_debug.obj
 0001:0006b7f0       ??0Opsat_CBFS@@QAE@PAVT_system@@III@Z 0046c7f0 f   opsatd:Opsat.obj
 0001:0006b860       ?initialize_search@Opsat_CBFS@@QAEXABV?$Slist@PAVCandidate@@@@@Z 0046c860 f   opsatd:Opsat.obj
 0001:0006b8a0       ?find_consistent_candidates@Opsat_CBFS@@QAEXAAV?$Slist@PAVCandidate@@@@I@Z 0046c8a0 f   opsatd:Opsat.obj
 0001:0006ba20       ?getTracker@T_system@@QBEPAVTracker@@XZ 0046ca20 f i opsatd:Opsat.obj
 0001:0006ba50       ?next_consistent_candidate@Opsat_CBFS@@QAEPAVCandidate@@XZ 0046ca50 f   opsatd:Opsat.obj
 0001:0006bb50       ??0Candidate@@QAE@XZ       0046cb50 f i opsatd:Opsat.obj
 0001:0006bbe0       ?terminate_search@Opsat_CBFS@@QBE?AW4SearchTermination@@XZ 0046cbe0 f   opsatd:Opsat.obj
 0001:0006bc70       ?empty_agenda@CBFSAgenda@@QBE_NXZ 0046cc70 f i opsatd:Opsat.obj
 0001:0006bcb0       ?top_weight@CBFSAgenda@@QBEIXZ 0046ccb0 f i opsatd:Opsat.obj
 0001:0006bcf0       ?get_weight@CBFSElement@@QBEIXZ 0046ccf0 f i opsatd:Opsat.obj
 0001:0006bd20       ?getStateVariableAssignment@Opsat_CBFS@@ABEPBVAssignment@@ABVCandidate@@@Z 0046cd20 f   opsatd:Opsat.obj
 0001:0006bdb0       ?subsumes@Opsat_CBFS@@ABE_NQBVAssignment@@0@Z 0046cdb0 f   opsatd:Opsat.obj
 0001:0006be40       ?subsumes@Trajectory@@QBE_NABV1@@Z 0046ce40 f i opsatd:Opsat.obj
 0001:0006bee0       ?contains@Trajectory@@QBE_NABVParts@1@@Z 0046cee0 f i opsatd:Opsat.obj
 0001:0006bf80       ??8Parts@Trajectory@@QBE_NABV01@@Z 0046cf80 f i opsatd:Opsat.obj
 0001:0006c010       ?supersetWithState@Opsat_CBFS@@ABE_NABVCandidate@@0@Z 0046d010 f   opsatd:Opsat.obj
 0001:0006c0f0       ?superset_candidate@Opsat_CBFS@@ABE_NABVCandidate@@ABV?$Slist@PAVCandidate@@@@@Z 0046d0f0 f   opsatd:Opsat.obj
 0001:0006c190       ?top@?$BinaryHeap@VCBFSElement@@@@QBEPAVCBFSElement@@XZ 0046d190 f i opsatd:Opsat.obj
 0001:0006c1d0       ?empty@?$BinaryHeap@VCBFSElement@@@@QBE_NXZ 0046d1d0 f i opsatd:Opsat.obj
 0001:0006c210       ?empty@?$Array@PAVCBFSElement@@$0A@@@QBE_NXZ 0046d210 f i opsatd:Opsat.obj
 0001:0006c250       ?size@?$Array@PAVCBFSElement@@$0A@@@QBEIXZ 0046d250 f i opsatd:Opsat.obj
 0001:0006c280       ??A?$Array@PAVCBFSElement@@$0A@@@QBEABQAVCBFSElement@@I@Z 0046d280 f i opsatd:Opsat.obj
 0001:0006c560       ??0CBFSAgenda@@QAE@IW4Ordering@@@Z 0046d560 f   opsatd:cbfs_agenda.obj
 0001:0006c630       ??0CBFSElement@@QAE@XZ     0046d630 f i opsatd:cbfs_agenda.obj
 0001:0006c6d0       ?set_empty_element_weight@CBFSElement@@SAXI@Z 0046d6d0 f i opsatd:cbfs_agenda.obj
 0001:0006c700       ??_ECBFSElement@@UAEPAXI@Z 0046d700 f i opsatd:cbfs_agenda.obj
 0001:0006c700       ??_GCBFSElement@@UAEPAXI@Z 0046d700 f i opsatd:cbfs_agenda.obj
 0001:0006c760       ??1CBFSElement@@UAE@XZ     0046d760 f i opsatd:cbfs_agenda.obj
 0001:0006c800       ?insert@CBFSAgenda@@QAEXPAVCBFSElement@@@Z 0046d800 f i opsatd:cbfs_agenda.obj
 0001:0006c850       ?compute_element_weight@CBFSElement@@QBEIXZ 0046d850 f i opsatd:cbfs_agenda.obj
 0001:0006c8c0       ?set_weight@CBFSElement@@QAEXI@Z 0046d8c0 f i opsatd:cbfs_agenda.obj
 0001:0006c8f0       ??_ECBFSAgenda@@UAEPAXI@Z  0046d8f0 f i opsatd:cbfs_agenda.obj
 0001:0006c8f0       ??_GCBFSAgenda@@UAEPAXI@Z  0046d8f0 f i opsatd:cbfs_agenda.obj
 0001:0006c950       ??1CBFSAgenda@@UAE@XZ      0046d950 f i opsatd:cbfs_agenda.obj
 0001:0006c9e0       ?clean@CBFSAgenda@@QAEXXZ  0046d9e0 f i opsatd:cbfs_agenda.obj
 0001:0006ca60       ??1?$BinaryHeap@VCBFSElement@@@@QAE@XZ 0046da60 f i opsatd:cbfs_agenda.obj
 0001:0006caa0       ?initialize_agenda@CBFSAgenda@@QAEXABV?$Slist@PAVCandidate@@@@@Z 0046daa0 f   opsatd:cbfs_agenda.obj
 0001:0006cbd0       ??0CBFSElement@@QAE@ABVCandidate@@@Z 0046dbd0 f i opsatd:cbfs_agenda.obj
 0001:0006cc70       ?expand_element@CBFSAgenda@@QAEXPBVConflict@@@Z 0046dc70 f   opsatd:cbfs_agenda.obj
 0001:0006ce20       ??0CBFSElement@@QAE@ABVCandidate@@PBVAssignment@@ABV?$Slist@PAVAssignment@@@@@Z 0046de20 f i opsatd:cbfs_agenda.obj
 0001:0006cec0       ?shift_assignment@CBFSElement@@QAEXXZ 0046dec0 f i opsatd:cbfs_agenda.obj
 0001:0006cf10       ?remaining_assignments_empty@CBFSElement@@QBE_NXZ 0046df10 f i opsatd:cbfs_agenda.obj
 0001:0006cf50       ?generate_candidate@CBFSElement@@QBEXAAVCandidate@@@Z 0046df50 f i opsatd:cbfs_agenda.obj
 0001:0006cfb0       ?get_prefix@CBFSElement@@QBEABVCandidate@@XZ 0046dfb0 f i opsatd:cbfs_agenda.obj
 0001:0006cfe0       ?get_remaining_assignments@CBFSElement@@QAEAAV?$Slist@PAVAssignment@@@@XZ 0046dfe0 f i opsatd:cbfs_agenda.obj
 0001:0006d010       ?pop_candidate@CBFSAgenda@@QAEXAAVCandidate@@@Z 0046e010 f   opsatd:cbfs_agenda.obj
 0001:0006d060       ?get_new_assignments@CBFSAgenda@@QBEXAAV?$Slist@PAVAssignment@@@@ABVCandidate@@PBVConflict@@@Z 0046e060 f   opsatd:cbfs_agenda.obj
 0001:0006d1a0       ??1?$BinaryHeap@VAssignment@@@@QAE@XZ 0046e1a0 f i opsatd:cbfs_agenda.obj
 0001:0006d1e0       ?pop_useless_assignments@CBFSAgenda@@QBEXAAV?$Slist@PAVAssignment@@@@ABVCandidate@@@Z 0046e1e0 f   opsatd:cbfs_agenda.obj
 0001:0006d260       ?is_assignment_useful@CBFSElement@@SA_NABVAssignment@@ABVCandidate@@@Z 0046e260 f i opsatd:cbfs_agenda.obj
 0001:0006d300       ?empty@?$Slist@PAVAssignment@@@@QBE_NXZ 0046e300 f i opsatd:cbfs_agenda.obj
 0001:0006d340       ?pop_front@?$Slist@PAVAssignment@@@@QAEXXZ 0046e340 f i opsatd:cbfs_agenda.obj
 0001:0006d3d0       ?front@?$Slist@PAVAssignment@@@@QAEAAPAVAssignment@@XZ 0046e3d0 f i opsatd:cbfs_agenda.obj
 0001:0006d430       ??0?$BinaryHeap@VCBFSElement@@@@QAE@I@Z 0046e430 f i opsatd:cbfs_agenda.obj
 0001:0006d4b0       ??OCBFSElement@@QBE_NABV0@@Z 0046e4b0 f i opsatd:cbfs_agenda.obj
 0001:0006d4f0       ??MCBFSElement@@QBE_NABV0@@Z 0046e4f0 f i opsatd:cbfs_agenda.obj
 0001:0006d530       ?insert@?$BinaryHeap@VCBFSElement@@@@QAEXPAVCBFSElement@@@Z 0046e530 f i opsatd:cbfs_agenda.obj
 0001:0006d620       ?pop@?$BinaryHeap@VCBFSElement@@@@QAEPAVCBFSElement@@XZ 0046e620 f i opsatd:cbfs_agenda.obj
 0001:0006d6f0       ??0L2_bounds_error@@QAE@VMBA_string@@@Z 0046e6f0 f i opsatd:cbfs_agenda.obj
 0001:0006d780       ?get_order@?$BinaryHeap@VCBFSElement@@@@QBE_NXZ 0046e780 f i opsatd:cbfs_agenda.obj
 0001:0006d7c0       ??1?$Array@PAVCBFSElement@@$0A@@@QAE@XZ 0046e7c0 f i opsatd:cbfs_agenda.obj
 0001:0006d820       ?pop_front@?$Slist@PAVCandidate@@@@QAEXXZ 0046e820 f i opsatd:cbfs_agenda.obj
 0001:0006d8b0       ?front@?$Slist@PAVCandidate@@@@QAEAAPAVCandidate@@XZ 0046e8b0 f i opsatd:cbfs_agenda.obj
 0001:0006d910       ??0?$BinaryHeap@VAssignment@@@@QAE@I@Z 0046e910 f i opsatd:cbfs_agenda.obj
 0001:0006d970       ??OAssignment@@QBE_NABV0@@Z 0046e970 f i opsatd:cbfs_agenda.obj
 0001:0006d9c0       ??MAssignment@@QBE_NABV0@@Z 0046e9c0 f i opsatd:cbfs_agenda.obj
 0001:0006da10       ?insert@?$BinaryHeap@VAssignment@@@@QAEXPAVAssignment@@@Z 0046ea10 f i opsatd:cbfs_agenda.obj
 0001:0006daf0       ?pop@?$BinaryHeap@VAssignment@@@@QAEPAVAssignment@@XZ 0046eaf0 f i opsatd:cbfs_agenda.obj
 0001:0006dbc0       ?empty@?$BinaryHeap@VAssignment@@@@QBE_NXZ 0046ebc0 f i opsatd:cbfs_agenda.obj
 0001:0006dc00       ??1?$Array@PAVAssignment@@$0A@@@QAE@XZ 0046ec00 f i opsatd:cbfs_agenda.obj
 0001:0006dc60       ?size@?$BinaryHeap@VCBFSElement@@@@QBEIXZ 0046ec60 f i opsatd:cbfs_agenda.obj
 0001:0006dca0       ?parent@?$BinaryHeap@VCBFSElement@@@@IAEHH@Z 0046eca0 f i opsatd:cbfs_agenda.obj
 0001:0006dcd0       ?heapify@?$BinaryHeap@VCBFSElement@@@@IAEXI@Z 0046ecd0 f i opsatd:cbfs_agenda.obj
 0001:0006de20       ??0?$Array@PAVCBFSElement@@$0A@@@QAE@XZ 0046ee20 f i opsatd:cbfs_agenda.obj
 0001:0006de70       ?erase@?$Array@PAVCBFSElement@@$0A@@@QAEXXZ 0046ee70 f i opsatd:cbfs_agenda.obj
 0001:0006ded0       ??A?$Array@PAVCBFSElement@@$0A@@@QAEAAPAVCBFSElement@@I@Z 0046eed0 f i opsatd:cbfs_agenda.obj
 0001:0006df30       ?push_back@?$Array@PAVCBFSElement@@$0A@@@QAEXABQAVCBFSElement@@@Z 0046ef30 f i opsatd:cbfs_agenda.obj
 0001:0006df70       ?remove@?$Array@PAVCBFSElement@@$0A@@@QAEXI@Z 0046ef70 f i opsatd:cbfs_agenda.obj
 0001:0006e000       ?top@?$BinaryHeap@VAssignment@@@@QBEPAVAssignment@@XZ 0046f000 f i opsatd:cbfs_agenda.obj
 0001:0006e040       ?size@?$BinaryHeap@VAssignment@@@@QBEIXZ 0046f040 f i opsatd:cbfs_agenda.obj
 0001:0006e080       ?parent@?$BinaryHeap@VAssignment@@@@IAEHH@Z 0046f080 f i opsatd:cbfs_agenda.obj
 0001:0006e0b0       ?heapify@?$BinaryHeap@VAssignment@@@@IAEXI@Z 0046f0b0 f i opsatd:cbfs_agenda.obj
 0001:0006e1e0       ??0?$Array@PAVAssignment@@$0A@@@QAE@XZ 0046f1e0 f i opsatd:cbfs_agenda.obj
 0001:0006e230       ?erase@?$Array@PAVAssignment@@$0A@@@QAEXXZ 0046f230 f i opsatd:cbfs_agenda.obj
 0001:0006e290       ?size@?$Array@PAVAssignment@@$0A@@@QBEIXZ 0046f290 f i opsatd:cbfs_agenda.obj
 0001:0006e2c0       ?empty@?$Array@PAVAssignment@@$0A@@@QBE_NXZ 0046f2c0 f i opsatd:cbfs_agenda.obj
 0001:0006e300       ??A?$Array@PAVAssignment@@$0A@@@QAEAAPAVAssignment@@I@Z 0046f300 f i opsatd:cbfs_agenda.obj
 0001:0006e360       ?push_back@?$Array@PAVAssignment@@$0A@@@QAEXABQAVAssignment@@@Z 0046f360 f i opsatd:cbfs_agenda.obj
 0001:0006e3a0       ?remove@?$Array@PAVAssignment@@$0A@@@QAEXI@Z 0046f3a0 f i opsatd:cbfs_agenda.obj
 0001:0006e430       ?last_index@?$BinaryHeap@VCBFSElement@@@@QBEIXZ 0046f430 f i opsatd:cbfs_agenda.obj
 0001:0006e470       ?left@?$BinaryHeap@VCBFSElement@@@@IAEHH@Z 0046f470 f i opsatd:cbfs_agenda.obj
 0001:0006e4a0       ?right@?$BinaryHeap@VCBFSElement@@@@IAEHH@Z 0046f4a0 f i opsatd:cbfs_agenda.obj
 0001:0006e4d0       ?exchange@?$BinaryHeap@VCBFSElement@@@@IAEXHH@Z 0046f4d0 f i opsatd:cbfs_agenda.obj
 0001:0006e550       ?push@?$Array@PAVCBFSElement@@$0A@@@QAEXABQAVCBFSElement@@@Z 0046f550 f i opsatd:cbfs_agenda.obj
 0001:0006e5c0       ?do_free@?$Array@PAVCBFSElement@@$0A@@@AAEXPAPAVCBFSElement@@I@Z 0046f5c0 f i opsatd:cbfs_agenda.obj
 0001:0006e620       ?last_index@?$BinaryHeap@VAssignment@@@@QBEIXZ 0046f620 f i opsatd:cbfs_agenda.obj
 0001:0006e660       ?left@?$BinaryHeap@VAssignment@@@@IAEHH@Z 0046f660 f i opsatd:cbfs_agenda.obj
 0001:0006e690       ?right@?$BinaryHeap@VAssignment@@@@IAEHH@Z 0046f690 f i opsatd:cbfs_agenda.obj
 0001:0006e6c0       ?exchange@?$BinaryHeap@VAssignment@@@@IAEXHH@Z 0046f6c0 f i opsatd:cbfs_agenda.obj
 0001:0006e740       ??A?$Array@PAVAssignment@@$0A@@@QBEABQAVAssignment@@I@Z 0046f740 f i opsatd:cbfs_agenda.obj
 0001:0006e7a0       ?push@?$Array@PAVAssignment@@$0A@@@QAEXABQAVAssignment@@@Z 0046f7a0 f i opsatd:cbfs_agenda.obj
 0001:0006e810       ?do_free@?$Array@PAVAssignment@@$0A@@@AAEXPAPAVAssignment@@I@Z 0046f810 f i opsatd:cbfs_agenda.obj
 0001:0006e870       ?ensure@?$Array@PAVCBFSElement@@$0A@@@AAEXI@Z 0046f870 f i opsatd:cbfs_agenda.obj
 0001:0006e940       ?ensure@?$Array@PAVAssignment@@$0A@@@AAEXI@Z 0046f940 f i opsatd:cbfs_agenda.obj
 0001:0006ea10       ?do_allocate@?$Array@PAVCBFSElement@@$0A@@@AAEPAPAVCBFSElement@@I@Z 0046fa10 f i opsatd:cbfs_agenda.obj
 0001:0006ea80       ?do_allocate@?$Array@PAVAssignment@@$0A@@@AAEPAPAVAssignment@@I@Z 0046fa80 f i opsatd:cbfs_agenda.obj
 0001:0006eaf0       ??0?$Slist@PAVCandidate@@@@QAE@ABV0@@Z 0046faf0 f i opsatd:cbfs_agenda.obj
 0001:0006ebf0       ?reverse@?$Slist@PAVCandidate@@@@QAEXXZ 0046fbf0 f i opsatd:cbfs_agenda.obj
 0001:0006ec60       ?L2_free_array@@YAXPAPAVCBFSElement@@I@Z 0046fc60 f i opsatd:cbfs_agenda.obj
 0001:0006ecd0       ?L2_free_array_no_dtor@@YAXPAPAVCBFSElement@@I@Z 0046fcd0 f i opsatd:cbfs_agenda.obj
 0001:0006ed10       ?L2_free_array@@YAXPAPAVAssignment@@I@Z 0046fd10 f i opsatd:cbfs_agenda.obj
 0001:0006ed80       ?L2_free_array_no_dtor@@YAXPAPAVAssignment@@I@Z 0046fd80 f i opsatd:cbfs_agenda.obj
 0001:0006edc0       ?L2_initialize_array@@YAPAPAVCBFSElement@@PAPAV1@I@Z 0046fdc0 f i opsatd:cbfs_agenda.obj
 0001:0006ee20       ?L2_initialize_array@@YAPAPAVAssignment@@PAPAV1@I@Z 0046fe20 f i opsatd:cbfs_agenda.obj
 0001:0006f380       ?indent@data@L2_checkpoint@@AAEXAAV?$basic_ostream@DU?$char_traits@D@std@@@std@@@Z 00470380 f   livingstoned:checkpoint.obj
 0001:0006f3b0       ??0L2_checkpoint@@QAE@PAVLivingstone@@@Z 004703b0 f   livingstoned:checkpoint.obj
 0001:0006f470       ??0data@L2_checkpoint@@QAE@PAVTracker@@@Z 00470470 f i livingstoned:checkpoint.obj
 0001:0006f570       ?store_command_history@data@L2_checkpoint@@AAEXXZ 00470570 f i livingstoned:checkpoint.obj
 0001:0006f6a0       ?get_tsys@data@L2_checkpoint@@AAEPAVT_system@@XZ 004706a0 f i livingstoned:checkpoint.obj
 0001:0006f6e0       ?get_tracker@data@L2_checkpoint@@AAEPAVTracker@@XZ 004706e0 f i livingstoned:checkpoint.obj
 0001:0006f710       ?command_at_time_step@data@L2_checkpoint@@AAEPAVCommand@@I@Z 00470710 f i livingstoned:checkpoint.obj
 0001:0006f7e0       ?store_times@data@L2_checkpoint@@AAEXXZ 004707e0 f i livingstoned:checkpoint.obj
 0001:0006f850       ?store_cmds_obs@data@L2_checkpoint@@AAEXXZ 00470850 f i livingstoned:checkpoint.obj
 0001:0006f970       ?is_assigned@Assignable@@QBE_NXZ 00470970 f i livingstoned:checkpoint.obj
 0001:0006f9b0       ?store_state_var@data@L2_checkpoint@@AAEXXZ 004709b0 f i livingstoned:checkpoint.obj
 0001:0006fca0       ?store_candidates@data@L2_checkpoint@@AAEXXZ 00470ca0 f i livingstoned:checkpoint.obj
 0001:0006fea0       ?store_conflicts@data@L2_checkpoint@@AAEXXZ 00470ea0 f i livingstoned:checkpoint.obj
 0001:00070000       ??0CPAssignment@data@L2_checkpoint@@QAE@III@Z 00471000 f i livingstoned:checkpoint.obj
 0001:00070060       ??0InitialModeAssignments@data@L2_checkpoint@@QAE@I@Z 00471060 f i livingstoned:checkpoint.obj
 0001:000700e0       ?add_mode@InitialModeAssignments@data@L2_checkpoint@@QAEXII@Z 004710e0 f i livingstoned:checkpoint.obj
 0001:00070160       ??0InitialValue@data@L2_checkpoint@@QAE@II@Z 00471160 f i livingstoned:checkpoint.obj
 0001:000701b0       ??0CPCandidate@data@L2_checkpoint@@QAE@I@Z 004711b0 f i livingstoned:checkpoint.obj
 0001:00070230       ?add_failure@CPCandidate@data@L2_checkpoint@@QAEXIII@Z 00471230 f i livingstoned:checkpoint.obj
 0001:000702b0       ?add_assign@CPConflict@data@L2_checkpoint@@QAEXIII@Z 004712b0 f i livingstoned:checkpoint.obj
 0001:00070330       ??_Edata@L2_checkpoint@@UAEPAXI@Z 00471330 f i livingstoned:checkpoint.obj
 0001:00070330       ??_Gdata@L2_checkpoint@@UAEPAXI@Z 00471330 f i livingstoned:checkpoint.obj
 0001:00070390       ??1data@L2_checkpoint@@UAE@XZ 00471390 f i livingstoned:checkpoint.obj
 0001:00070460       ??0CPConflict@data@L2_checkpoint@@QAE@XZ 00471460 f i livingstoned:checkpoint.obj
 0001:000704d0       ??_EL2_checkpoint@@UAEPAXI@Z 004714d0 f i livingstoned:checkpoint.obj
 0001:000704d0       ??_GL2_checkpoint@@UAEPAXI@Z 004714d0 f i livingstoned:checkpoint.obj
 0001:00070530       ??0L2_checkpoint@@QAE@PAVTracker@@@Z 00471530 f   livingstoned:checkpoint.obj
 0001:000705e0       ??1L2_checkpoint@@UAE@XZ   004715e0 f   livingstoned:checkpoint.obj
 0001:000706a0       ?restore@L2_checkpoint@@UAE_NXZ 004716a0 f   livingstoned:checkpoint.obj
 0001:000706e0       ?restore@data@L2_checkpoint@@QAE_NXZ 004716e0 f i livingstoned:checkpoint.obj
 0001:000707d0       ?reset_times@data@L2_checkpoint@@AAEXXZ 004717d0 f i livingstoned:checkpoint.obj
 0001:000708b0       ?set_time_step@Variable@@QAEXI@Z 004718b0 f i livingstoned:checkpoint.obj
 0001:000708e0       ?set_oldest_timestep@T_system@@QAEXI@Z 004718e0 f i livingstoned:checkpoint.obj
 0001:00070950       ?delete_outdated_constraints@data@L2_checkpoint@@AAEXXZ 00471950 f i livingstoned:checkpoint.obj
 0001:00070b00       ?is_transition@Clause@@QBE_NXZ 00471b00 f i livingstoned:checkpoint.obj
 0001:00070b40       ?remove_transition_clause@Transitioned@@QAEXPAVClause@@@Z 00471b40 f i livingstoned:checkpoint.obj
 0001:00070b90       ?clauses_begin@Transitioned@@QAE?AV?$Slist_iterator@PAVClause@@@@XZ 00471b90 f i livingstoned:checkpoint.obj
 0001:00070be0       ?clauses_end@Transitioned@@QAE?AV?$Slist_iterator@PAVClause@@@@XZ 00471be0 f i livingstoned:checkpoint.obj
 0001:00070c30       ?containsNegative@data@L2_checkpoint@@ABE_NABVClause@@ABVProposition@@@Z 00471c30 f i livingstoned:checkpoint.obj
 0001:00070cb0       ?restore_command_constraints@data@L2_checkpoint@@AAEXXZ 00471cb0 f i livingstoned:checkpoint.obj
 0001:00070dd0       ?restore_unindexed_clauses@data@L2_checkpoint@@AAEXAAVTransitioned@@I@Z 00471dd0 f i livingstoned:checkpoint.obj
 0001:00070e30       ?getTransition@data@L2_checkpoint@@AAEPAVTransition@@II@Z 00471e30 f i livingstoned:checkpoint.obj
 0001:00070f00       ?restore_indexed_clauses@data@L2_checkpoint@@AAEXAAVTransitioned@@III@Z 00471f00 f i livingstoned:checkpoint.obj
 0001:00070f80       ?restore_cmds_obs@data@L2_checkpoint@@AAEXXZ 00471f80 f i livingstoned:checkpoint.obj
 0001:00071080       ?restore_state_var@data@L2_checkpoint@@AAEXXZ 00472080 f i livingstoned:checkpoint.obj
 0001:000711f0       ??0accept_state_var@data@L2_checkpoint@@QAE@PAVVariable@@@Z 004721f0 f i livingstoned:checkpoint.obj
 0001:00071240       ?accept@accept_state_var@data@L2_checkpoint@@UBE_NABVVariable@@@Z 00472240 f i livingstoned:checkpoint.obj
 0001:00071280       ?restore_candidates@data@L2_checkpoint@@AAEXXZ 00472280 f i livingstoned:checkpoint.obj
 0001:00071310       ?restore_conflicts@data@L2_checkpoint@@AAEXXZ 00472310 f i livingstoned:checkpoint.obj
 0001:00071460       ?erase_conflicts@Assignable@@QAEXXZ 00472460 f i livingstoned:checkpoint.obj
 0001:000714f0       ?erase_conflicts@Assignment@@QAEXXZ 004724f0 f i livingstoned:checkpoint.obj
 0001:00071540       ?assign@CPAssignment@data@L2_checkpoint@@QBEXPAVT_system@@@Z 00472540 f i livingstoned:checkpoint.obj
 0001:000715d0       ?find_assignment@CPAssignment@data@L2_checkpoint@@QBEPAVAssignment@@PAVT_system@@@Z 004725d0 f i livingstoned:checkpoint.obj
 0001:00071660       ?value@CPAssignment@data@L2_checkpoint@@QBEIXZ 00472660 f i livingstoned:checkpoint.obj
 0001:00071690       ?find_variable@CPAssignment@data@L2_checkpoint@@IBEPAVAssignable@@PAVT_system@@@Z 00472690 f i livingstoned:checkpoint.obj
 0001:00071700       ?get_previous_assignable@Assignable@@QBEPAV1@XZ 00472700 f i livingstoned:checkpoint.obj
 0001:00071740       ?time@CPAssignment@data@L2_checkpoint@@QBEIXZ 00472740 f i livingstoned:checkpoint.obj
 0001:00071770       ?find_a_variable@CPAssignment@data@L2_checkpoint@@IBEPAVAssignable@@PAVT_system@@@Z 00472770 f i livingstoned:checkpoint.obj
 0001:00071920       ?varID@CPAssignment@data@L2_checkpoint@@QBEIXZ 00472920 f i livingstoned:checkpoint.obj
 0001:00071950       ?set_initial_values@InitialModeAssignments@data@L2_checkpoint@@QAEXPAVT_system@@II@Z 00472950 f i livingstoned:checkpoint.obj
 0001:00071a00       ?varID@InitialValue@data@L2_checkpoint@@QBEIXZ 00472a00 f i livingstoned:checkpoint.obj
 0001:00071a30       ?value@InitialValue@data@L2_checkpoint@@QBEIXZ 00472a30 f i livingstoned:checkpoint.obj
 0001:00071a60       ?begin_modes@InitialModeAssignments@data@L2_checkpoint@@QBEPAPAVInitialValue@23@XZ 00472a60 f i livingstoned:checkpoint.obj
 0001:00071aa0       ?end_modes@InitialModeAssignments@data@L2_checkpoint@@QBEPAPAVInitialValue@23@XZ 00472aa0 f i livingstoned:checkpoint.obj
 0001:00071ae0       ?weight@InitialModeAssignments@data@L2_checkpoint@@QBEIXZ 00472ae0 f i livingstoned:checkpoint.obj
 0001:00071b10       ?create_in_tracker@CPCandidate@data@L2_checkpoint@@QBEXPAVTracker@@@Z 00472b10 f i livingstoned:checkpoint.obj
 0001:00071bf0       ?begin_failures@CPCandidate@data@L2_checkpoint@@QBEPAPAVCPAssignment@23@XZ 00472bf0 f i livingstoned:checkpoint.obj
 0001:00071c30       ?end_failures@CPCandidate@data@L2_checkpoint@@QBEPAPAVCPAssignment@23@XZ 00472c30 f i livingstoned:checkpoint.obj
 0001:00071c70       ?si@CPCandidate@data@L2_checkpoint@@QBEIXZ 00472c70 f i livingstoned:checkpoint.obj
 0001:00071ca0       ?create_in_db@CPConflict@data@L2_checkpoint@@QBEXPAVT_system@@@Z 00472ca0 f i livingstoned:checkpoint.obj
 0001:00071d60       ?begin_assign@CPConflict@data@L2_checkpoint@@QBEPAPAVCPAssignment@23@XZ 00472d60 f i livingstoned:checkpoint.obj
 0001:00071da0       ?end_assign@CPConflict@data@L2_checkpoint@@QBEPAPAVCPAssignment@23@XZ 00472da0 f i livingstoned:checkpoint.obj
 0001:00071de0       ??4?$Slist_iterator@PBVConflict@@@@QAEAAV0@ABV0@@Z 00472de0 f i livingstoned:checkpoint.obj
 0001:00071e20       ??0?$Array@PAVInitialValue@data@L2_checkpoint@@$0A@@@QAE@XZ 00472e20 f i livingstoned:checkpoint.obj
 0001:00071e70       ?begin@?$Array@PAVInitialValue@data@L2_checkpoint@@$0A@@@QBEPAPAVInitialValue@data@L2_checkpoint@@XZ 00472e70 f i livingstoned:checkpoint.obj
 0001:00071ea0       ?end@?$Array@PAVInitialValue@data@L2_checkpoint@@$0A@@@QBEPAPAVInitialValue@data@L2_checkpoint@@XZ 00472ea0 f i livingstoned:checkpoint.obj
 0001:00071ee0       ?push_back@?$Array@PAVInitialValue@data@L2_checkpoint@@$0A@@@QAEXABQAVInitialValue@data@L2_checkpoint@@@Z 00472ee0 f i livingstoned:checkpoint.obj
 0001:00071f20       ??0?$Array@PAVCPAssignment@data@L2_checkpoint@@$0A@@@QAE@XZ 00472f20 f i livingstoned:checkpoint.obj
 0001:00071f70       ??1?$Array@PAVCPAssignment@data@L2_checkpoint@@$0A@@@QAE@XZ 00472f70 f i livingstoned:checkpoint.obj
 0001:00071fb0       ?begin@?$Array@PAVCPAssignment@data@L2_checkpoint@@$0A@@@QBEPAPAVCPAssignment@data@L2_checkpoint@@XZ 00472fb0 f i livingstoned:checkpoint.obj
 0001:00071fe0       ?end@?$Array@PAVCPAssignment@data@L2_checkpoint@@$0A@@@QBEPAPAVCPAssignment@data@L2_checkpoint@@XZ 00472fe0 f i livingstoned:checkpoint.obj
 0001:00072020       ?push_back@?$Array@PAVCPAssignment@data@L2_checkpoint@@$0A@@@QAEXABQAVCPAssignment@data@L2_checkpoint@@@Z 00473020 f i livingstoned:checkpoint.obj
 0001:00072060       ??0?$Array@PAVInitialModeAssignments@data@L2_checkpoint@@$0A@@@QAE@XZ 00473060 f i livingstoned:checkpoint.obj
 0001:000720b0       ??1?$Array@PAVInitialModeAssignments@data@L2_checkpoint@@$0A@@@QAE@XZ 004730b0 f i livingstoned:checkpoint.obj
 0001:000720f0       ?size@?$Array@PAVInitialModeAssignments@data@L2_checkpoint@@$0A@@@QBEIXZ 004730f0 f i livingstoned:checkpoint.obj
 0001:00072120       ??A?$Array@PAVInitialModeAssignments@data@L2_checkpoint@@$0A@@@QAEAAPAVInitialModeAssignments@data@L2_checkpoint@@I@Z 00473120 f i livingstoned:checkpoint.obj
 0001:00072160       ?push_back@?$Array@PAVInitialModeAssignments@data@L2_checkpoint@@$0A@@@QAEXABQAVInitialModeAssignments@data@L2_checkpoint@@@Z 00473160 f i livingstoned:checkpoint.obj
 0001:000721a0       ??0?$Array@PAVCPCandidate@data@L2_checkpoint@@$0A@@@QAE@XZ 004731a0 f i livingstoned:checkpoint.obj
 0001:000721f0       ??1?$Array@PAVCPCandidate@data@L2_checkpoint@@$0A@@@QAE@XZ 004731f0 f i livingstoned:checkpoint.obj
 0001:00072230       ?size@?$Array@PAVCPCandidate@data@L2_checkpoint@@$0A@@@QBEIXZ 00473230 f i livingstoned:checkpoint.obj
 0001:00072260       ??A?$Array@PAVCPCandidate@data@L2_checkpoint@@$0A@@@QAEAAPAVCPCandidate@data@L2_checkpoint@@I@Z 00473260 f i livingstoned:checkpoint.obj
 0001:000722a0       ?push_back@?$Array@PAVCPCandidate@data@L2_checkpoint@@$0A@@@QAEXABQAVCPCandidate@data@L2_checkpoint@@@Z 004732a0 f i livingstoned:checkpoint.obj
 0001:000722e0       ??0?$Array@PAVCPConflict@data@L2_checkpoint@@$0A@@@QAE@XZ 004732e0 f i livingstoned:checkpoint.obj
 0001:00072330       ??1?$Array@PAVCPConflict@data@L2_checkpoint@@$0A@@@QAE@XZ 00473330 f i livingstoned:checkpoint.obj
 0001:00072370       ?begin@?$Array@PAVCPConflict@data@L2_checkpoint@@$0A@@@QBEPAPAVCPConflict@data@L2_checkpoint@@XZ 00473370 f i livingstoned:checkpoint.obj
 0001:000723a0       ?end@?$Array@PAVCPConflict@data@L2_checkpoint@@$0A@@@QBEPAPAVCPConflict@data@L2_checkpoint@@XZ 004733a0 f i livingstoned:checkpoint.obj
 0001:000723e0       ?push_back@?$Array@PAVCPConflict@data@L2_checkpoint@@$0A@@@QAEXABQAVCPConflict@data@L2_checkpoint@@@Z 004733e0 f i livingstoned:checkpoint.obj
 0001:00072420       ??0?$Array@U?$MBApair@HI@@$00@@QAE@XZ 00473420 f i livingstoned:checkpoint.obj
 0001:00072470       ??1?$Array@U?$MBApair@HI@@$00@@QAE@XZ 00473470 f i livingstoned:checkpoint.obj
 0001:000724b0       ??A?$Array@U?$MBApair@HI@@$00@@QAEAAU?$MBApair@HI@@I@Z 004734b0 f i livingstoned:checkpoint.obj
 0001:000724f0       ?grow_and_set@?$Array@U?$MBApair@HI@@$00@@QAEXIU?$MBApair@HI@@@Z 004734f0 f i livingstoned:checkpoint.obj
 0001:00072560       ??0?$MBApair@HI@@QAE@ABHABI@Z 00473560 f i livingstoned:checkpoint.obj
 0001:000725a0       ??0?$Array@PAVDependent@@$0A@@@QAE@XZ 004735a0 f i livingstoned:checkpoint.obj
 0001:000725f0       ??1?$Array@PAVDependent@@$0A@@@QAE@XZ 004735f0 f i livingstoned:checkpoint.obj
 0001:00072630       ?begin@?$Array@PAVDependent@@$0A@@@QBEPAPAVDependent@@XZ 00473630 f i livingstoned:checkpoint.obj
 0001:00072660       ?end@?$Array@PAVDependent@@$0A@@@QBEPAPAVDependent@@XZ 00473660 f i livingstoned:checkpoint.obj
 0001:000726a0       ?push_back@?$Array@PAVDependent@@$0A@@@QAEXABQAVDependent@@@Z 004736a0 f i livingstoned:checkpoint.obj
 0001:000726e0       ?size@?$Array@PAVInitialValue@data@L2_checkpoint@@$0A@@@QBEIXZ 004736e0 f i livingstoned:checkpoint.obj
 0001:00072710       ?push@?$Array@PAVInitialValue@data@L2_checkpoint@@$0A@@@QAEXABQAVInitialValue@data@L2_checkpoint@@@Z 00473710 f i livingstoned:checkpoint.obj
 0001:00072780       ?erase@?$Array@PAVCPAssignment@data@L2_checkpoint@@$0A@@@QAEXXZ 00473780 f i livingstoned:checkpoint.obj
 0001:000727e0       ?size@?$Array@PAVCPAssignment@data@L2_checkpoint@@$0A@@@QBEIXZ 004737e0 f i livingstoned:checkpoint.obj
 0001:00072810       ?push@?$Array@PAVCPAssignment@data@L2_checkpoint@@$0A@@@QAEXABQAVCPAssignment@data@L2_checkpoint@@@Z 00473810 f i livingstoned:checkpoint.obj
 0001:00072880       ?erase@?$Array@PAVInitialModeAssignments@data@L2_checkpoint@@$0A@@@QAEXXZ 00473880 f i livingstoned:checkpoint.obj
 0001:000728e0       ?push@?$Array@PAVInitialModeAssignments@data@L2_checkpoint@@$0A@@@QAEXABQAVInitialModeAssignments@data@L2_checkpoint@@@Z 004738e0 f i livingstoned:checkpoint.obj
 0001:00072950       ?erase@?$Array@PAVCPCandidate@data@L2_checkpoint@@$0A@@@QAEXXZ 00473950 f i livingstoned:checkpoint.obj
 0001:000729b0       ?push@?$Array@PAVCPCandidate@data@L2_checkpoint@@$0A@@@QAEXABQAVCPCandidate@data@L2_checkpoint@@@Z 004739b0 f i livingstoned:checkpoint.obj
 0001:00072a20       ?erase@?$Array@PAVCPConflict@data@L2_checkpoint@@$0A@@@QAEXXZ 00473a20 f i livingstoned:checkpoint.obj
 0001:00072a80       ?size@?$Array@PAVCPConflict@data@L2_checkpoint@@$0A@@@QBEIXZ 00473a80 f i livingstoned:checkpoint.obj
 0001:00072ab0       ?push@?$Array@PAVCPConflict@data@L2_checkpoint@@$0A@@@QAEXABQAVCPConflict@data@L2_checkpoint@@@Z 00473ab0 f i livingstoned:checkpoint.obj
 0001:00072b20       ?erase@?$Array@U?$MBApair@HI@@$00@@QAEXXZ 00473b20 f i livingstoned:checkpoint.obj
 0001:00072b80       ?size@?$Array@U?$MBApair@HI@@$00@@QBEIXZ 00473b80 f i livingstoned:checkpoint.obj
 0001:00072bb0       ?ensure@?$Array@U?$MBApair@HI@@$00@@AAEXI@Z 00473bb0 f i livingstoned:checkpoint.obj
 0001:00072c90       ?erase@?$Array@PAVDependent@@$0A@@@QAEXXZ 00473c90 f i livingstoned:checkpoint.obj
 0001:00072cf0       ?size@?$Array@PAVDependent@@$0A@@@QBEIXZ 00473cf0 f i livingstoned:checkpoint.obj
 0001:00072d20       ?push@?$Array@PAVDependent@@$0A@@@QAEXABQAVDependent@@@Z 00473d20 f i livingstoned:checkpoint.obj
 0001:00072d90       ?ensure@?$Array@PAVInitialValue@data@L2_checkpoint@@$0A@@@AAEXI@Z 00473d90 f i livingstoned:checkpoint.obj
 0001:00072e60       ?do_free@?$Array@PAVInitialValue@data@L2_checkpoint@@$0A@@@AAEXPAPAVInitialValue@data@L2_checkpoint@@I@Z 00473e60 f i livingstoned:checkpoint.obj
 0001:00072ec0       ?ensure@?$Array@PAVCPAssignment@data@L2_checkpoint@@$0A@@@AAEXI@Z 00473ec0 f i livingstoned:checkpoint.obj
 0001:00072f90       ?do_free@?$Array@PAVCPAssignment@data@L2_checkpoint@@$0A@@@AAEXPAPAVCPAssignment@data@L2_checkpoint@@I@Z 00473f90 f i livingstoned:checkpoint.obj
 0001:00072ff0       ?ensure@?$Array@PAVInitialModeAssignments@data@L2_checkpoint@@$0A@@@AAEXI@Z 00473ff0 f i livingstoned:checkpoint.obj
 0001:000730c0       ?do_free@?$Array@PAVInitialModeAssignments@data@L2_checkpoint@@$0A@@@AAEXPAPAVInitialModeAssignments@data@L2_checkpoint@@I@Z 004740c0 f i livingstoned:checkpoint.obj
 0001:00073120       ?ensure@?$Array@PAVCPCandidate@data@L2_checkpoint@@$0A@@@AAEXI@Z 00474120 f i livingstoned:checkpoint.obj
 0001:000731f0       ?do_free@?$Array@PAVCPCandidate@data@L2_checkpoint@@$0A@@@AAEXPAPAVCPCandidate@data@L2_checkpoint@@I@Z 004741f0 f i livingstoned:checkpoint.obj
 0001:00073250       ?ensure@?$Array@PAVCPConflict@data@L2_checkpoint@@$0A@@@AAEXI@Z 00474250 f i livingstoned:checkpoint.obj
 0001:00073320       ?do_free@?$Array@PAVCPConflict@data@L2_checkpoint@@$0A@@@AAEXPAPAVCPConflict@data@L2_checkpoint@@I@Z 00474320 f i livingstoned:checkpoint.obj
 0001:00073380       ?do_allocate@?$Array@U?$MBApair@HI@@$00@@AAEPAU?$MBApair@HI@@I@Z 00474380 f i livingstoned:checkpoint.obj
 0001:000733f0       ?do_free@?$Array@U?$MBApair@HI@@$00@@AAEXPAU?$MBApair@HI@@I@Z 004743f0 f i livingstoned:checkpoint.obj
 0001:00073450       ?ensure@?$Array@PAVDependent@@$0A@@@AAEXI@Z 00474450 f i livingstoned:checkpoint.obj
 0001:00073520       ?do_free@?$Array@PAVDependent@@$0A@@@AAEXPAPAVDependent@@I@Z 00474520 f i livingstoned:checkpoint.obj
 0001:00073580       ?do_allocate@?$Array@PAVInitialValue@data@L2_checkpoint@@$0A@@@AAEPAPAVInitialValue@data@L2_checkpoint@@I@Z 00474580 f i livingstoned:checkpoint.obj
 0001:000735f0       ?do_allocate@?$Array@PAVCPAssignment@data@L2_checkpoint@@$0A@@@AAEPAPAVCPAssignment@data@L2_checkpoint@@I@Z 004745f0 f i livingstoned:checkpoint.obj
 0001:00073660       ?do_allocate@?$Array@PAVInitialModeAssignments@data@L2_checkpoint@@$0A@@@AAEPAPAVInitialModeAssignments@data@L2_checkpoint@@I@Z 00474660 f i livingstoned:checkpoint.obj
 0001:000736d0       ?do_allocate@?$Array@PAVCPCandidate@data@L2_checkpoint@@$0A@@@AAEPAPAVCPCandidate@data@L2_checkpoint@@I@Z 004746d0 f i livingstoned:checkpoint.obj
 0001:00073740       ?do_allocate@?$Array@PAVCPConflict@data@L2_checkpoint@@$0A@@@AAEPAPAVCPConflict@data@L2_checkpoint@@I@Z 00474740 f i livingstoned:checkpoint.obj
 0001:000737b0       ?do_allocate@?$Array@PAVDependent@@$0A@@@AAEPAPAVDependent@@I@Z 004747b0 f i livingstoned:checkpoint.obj
 0001:00073820       ?remove@?$Slist@PAVClause@@@@QAEXABQAVClause@@@Z 00474820 f i livingstoned:checkpoint.obj
 0001:00073920       ?L2_free_array@@YAXPAPAVInitialValue@data@L2_checkpoint@@I@Z 00474920 f i livingstoned:checkpoint.obj
 0001:00073990       ?L2_free_array_no_dtor@@YAXPAPAVInitialValue@data@L2_checkpoint@@I@Z 00474990 f i livingstoned:checkpoint.obj
 0001:000739d0       ?L2_free_array@@YAXPAPAVCPAssignment@data@L2_checkpoint@@I@Z 004749d0 f i livingstoned:checkpoint.obj
 0001:00073a40       ?L2_free_array_no_dtor@@YAXPAPAVCPAssignment@data@L2_checkpoint@@I@Z 00474a40 f i livingstoned:checkpoint.obj
 0001:00073a80       ?L2_free_array@@YAXPAPAVInitialModeAssignments@data@L2_checkpoint@@I@Z 00474a80 f i livingstoned:checkpoint.obj
 0001:00073af0       ?L2_free_array_no_dtor@@YAXPAPAVInitialModeAssignments@data@L2_checkpoint@@I@Z 00474af0 f i livingstoned:checkpoint.obj
 0001:00073b30       ?L2_free_array@@YAXPAPAVCPCandidate@data@L2_checkpoint@@I@Z 00474b30 f i livingstoned:checkpoint.obj
 0001:00073ba0       ?L2_free_array_no_dtor@@YAXPAPAVCPCandidate@data@L2_checkpoint@@I@Z 00474ba0 f i livingstoned:checkpoint.obj
 0001:00073be0       ?L2_free_array@@YAXPAPAVCPConflict@data@L2_checkpoint@@I@Z 00474be0 f i livingstoned:checkpoint.obj
 0001:00073c50       ?L2_free_array_no_dtor@@YAXPAPAVCPConflict@data@L2_checkpoint@@I@Z 00474c50 f i livingstoned:checkpoint.obj
 0001:00073c90       ?L2_initialize_array@@YAPAU?$MBApair@HI@@PAU1@I@Z 00474c90 f i livingstoned:checkpoint.obj
 0001:00073d40       ?L2_free_array@@YAXPAU?$MBApair@HI@@I@Z 00474d40 f i livingstoned:checkpoint.obj
 0001:00073db0       ?L2_free_array_no_dtor@@YAXPAU?$MBApair@HI@@I@Z 00474db0 f i livingstoned:checkpoint.obj
 0001:00073df0       ?L2_free_array@@YAXPAPAVDependent@@I@Z 00474df0 f i livingstoned:checkpoint.obj
 0001:00073e60       ?L2_free_array_no_dtor@@YAXPAPAVDependent@@I@Z 00474e60 f i livingstoned:checkpoint.obj
 0001:00073ea0       ?L2_initialize_array@@YAPAPAVInitialValue@data@L2_checkpoint@@PAPAV123@I@Z 00474ea0 f i livingstoned:checkpoint.obj
 0001:00073f00       ?L2_initialize_array@@YAPAPAVCPAssignment@data@L2_checkpoint@@PAPAV123@I@Z 00474f00 f i livingstoned:checkpoint.obj
 0001:00073f60       ?L2_initialize_array@@YAPAPAVInitialModeAssignments@data@L2_checkpoint@@PAPAV123@I@Z 00474f60 f i livingstoned:checkpoint.obj
 0001:00073fc0       ?L2_initialize_array@@YAPAPAVCPCandidate@data@L2_checkpoint@@PAPAV123@I@Z 00474fc0 f i livingstoned:checkpoint.obj
 0001:00074020       ?L2_initialize_array@@YAPAPAVCPConflict@data@L2_checkpoint@@PAPAV123@I@Z 00475020 f i livingstoned:checkpoint.obj
 0001:00074080       ?L2_initialize_array@@YAPAPAVDependent@@PAPAV1@I@Z 00475080 f i livingstoned:checkpoint.obj
 0001:000740e0       ??0?$MBApair@HI@@QAE@XZ    004750e0 f i livingstoned:checkpoint.obj
 0001:00074420       ?get_search_style@L2_parameters@@SA?AVMBA_string@@W4Search_style@Tracker@@@Z 00475420 f   apid:parameters.obj
 0001:00074480       ?get_search_style@L2_parameters@@SA?AW4Search_style@Tracker@@ABVMBA_string@@@Z 00475480 f   apid:parameters.obj
 0001:000744d0       ?get_progress_style@L2_parameters@@SA?AVMBA_string@@W4Progress_style@T_system@@@Z 004754d0 f   apid:parameters.obj
 0001:00074530       ?get_progress_style@L2_parameters@@SA?AW4Progress_style@T_system@@ABVMBA_string@@@Z 00475530 f   apid:parameters.obj
 0001:00074580       ?get_find_candidates_style@L2_parameters@@SA?AVMBA_string@@W4FC_style@Tracker@@@Z 00475580 f   apid:parameters.obj
 0001:000745e0       ?get_find_candidates_style@L2_parameters@@SA?AW4FC_style@Tracker@@ABVMBA_string@@@Z 004755e0 f   apid:parameters.obj
 0001:00074630       ??0L2_parameters@@QAE@XZ   00475630 f   apid:parameters.obj
 0001:000746c0       ?read_from_file@L2_parameters@@QAE_NABVMBA_string@@@Z 004756c0 f   apid:parameters.obj
 0001:00074e20       ??0L2_parse_params_error@@QAE@VMBA_string@@@Z 00475e20 f i apid:parameters.obj
 0001:00074eb0       ?set_cbfs_max_rank@L2_parameters@@QAEXI@Z 00475eb0 f i apid:parameters.obj
 0001:00074ee0       ?set_find_candidates_style@L2_parameters@@QAEXW4FC_style@Tracker@@@Z 00475ee0 f i apid:parameters.obj
 0001:00074f10       ??1L2_parse_params_error@@QAE@XZ 00475f10 f i apid:parameters.obj
 0001:00074f50       ??0L2_parse_params_error@@QAE@ABV0@@Z 00475f50 f i apid:parameters.obj
 0001:00074f90       ?print@L2_parameters@@QBEXAAV?$basic_ostream@DU?$char_traits@D@std@@@std@@@Z 00475f90 f   apid:parameters.obj
 0001:00075290       ?get_search_style_str@L2_parameters@@QBE?AVMBA_string@@XZ 00476290 f i apid:parameters.obj
 0001:000752f0       ?get_cbfs_max_candidates@L2_parameters@@QBEIXZ 004762f0 f i apid:parameters.obj
 0001:00075320       ?get_cbfs_max_candidate_classes@L2_parameters@@QBEIXZ 00476320 f i apid:parameters.obj
 0001:00075350       ?get_cbfs_search_space@L2_parameters@@QBEIXZ 00476350 f i apid:parameters.obj
 0001:00075380       ?get_cbfs_max_rank@L2_parameters@@QBEIXZ 00476380 f i apid:parameters.obj
 0001:000753b0       ?get_cover_max_rank@L2_parameters@@QBEIXZ 004763b0 f i apid:parameters.obj
 0001:000753e0       ?get_history@L2_parameters@@QBEIXZ 004763e0 f i apid:parameters.obj
 0001:00075410       ?get_progress_style_str@L2_parameters@@QBE?AVMBA_string@@XZ 00476410 f i apid:parameters.obj
 0001:00075470       ?get_progress_style@L2_parameters@@QBE?AW4Progress_style@T_system@@XZ 00476470 f i apid:parameters.obj
 0001:000754a0       ?get_max_truncated_candidates@L2_parameters@@QBEIXZ 004764a0 f i apid:parameters.obj
 0001:000754d0       ?get_find_candidates_style_str@L2_parameters@@QBE?AVMBA_string@@XZ 004764d0 f i apid:parameters.obj
 0001:00075530       ?get_find_candidates_style@L2_parameters@@QBE?AW4FC_style@Tracker@@XZ 00476530 f i apid:parameters.obj
 0001:00075560       ?search_dict_by_elt@@YAPBDPBU?$String_key_dict_item@W4Search_style@Tracker@@@@W4Search_style@Tracker@@1@Z 00476560 f i apid:parameters.obj
 0001:000755c0       ?search_dict_by_key@@YA?AW4Search_style@Tracker@@PBU?$String_key_dict_item@W4Search_style@Tracker@@@@W412@PBD@Z 004765c0 f i apid:parameters.obj
 0001:00075640       ?search_dict_by_elt@@YAPBDPBU?$String_key_dict_item@W4Progress_style@T_system@@@@W4Progress_style@T_system@@1@Z 00476640 f i apid:parameters.obj
 0001:000756a0       ?search_dict_by_key@@YA?AW4Progress_style@T_system@@PBU?$String_key_dict_item@W4Progress_style@T_system@@@@W412@PBD@Z 004766a0 f i apid:parameters.obj
 0001:00075720       ?search_dict_by_elt@@YAPBDPBU?$String_key_dict_item@W4FC_style@Tracker@@@@W4FC_style@Tracker@@1@Z 00476720 f i apid:parameters.obj
 0001:00075780       ?search_dict_by_key@@YA?AW4FC_style@Tracker@@PBU?$String_key_dict_item@W4FC_style@Tracker@@@@W412@PBD@Z 00476780 f i apid:parameters.obj
 0001:00075b10       ??1Livingstone@@UAE@XZ     00476b10 f   apid:livingstone.obj
 0001:00075bf0       ?read_file@Livingstone@@QAE_NXZ 00476bf0 f   apid:livingstone.obj
 0001:00075d60       ?read_file@Livingstone_reader@@QAE_NXZ 00476d60 f i apid:livingstone.obj
 0001:00075e00       ?create_tracker@Livingstone@@QAEXXZ 00476e00 f   apid:livingstone.obj
 0001:00076060       ?set_max_history_length@T_system@@QAEXI@Z 00477060 f i apid:livingstone.obj
 0001:000760a0       ?set_max_truncated_candidates@T_system@@QAEXI@Z 004770a0 f i apid:livingstone.obj
 0001:000760e0       ?setTracker@T_system@@QAEXPAVTracker@@@Z 004770e0 f i apid:livingstone.obj
 0001:00076120       ?get_cbfs_maxcand@Livingstone@@QBEIXZ 00477120 f i apid:livingstone.obj
 0001:00076160       ?get_cbfs_max_candidate_classes@Livingstone@@QBEIXZ 00477160 f i apid:livingstone.obj
 0001:000761a0       ?get_cbfs_search@Livingstone@@QBEIXZ 004771a0 f i apid:livingstone.obj
 0001:000761e0       ?get_cbfs_max_cutoff_weight@Livingstone@@QBEIXZ 004771e0 f i apid:livingstone.obj
 0001:00076220       ?get_cover_maxrank@Livingstone@@QBEIXZ 00477220 f i apid:livingstone.obj
 0001:00076260       ?get_history@Livingstone@@QBEIXZ 00477260 f i apid:livingstone.obj
 0001:000762a0       ?get_use_full_progress@Livingstone@@QBE_NXZ 004772a0 f i apid:livingstone.obj
 0001:000762f0       ?get_max_truncated_candidates@Livingstone@@QBEIXZ 004772f0 f i apid:livingstone.obj
 0001:00076330       ??0Cover_tracker@@QAE@AAVT_system@@IH@Z 00477330 f i apid:livingstone.obj
 0001:00076420       ?search_termination@Cover_tracker@@UBE?AW4SearchTermination@@XZ 00477420 f i apid:livingstone.obj
 0001:00076450       ??_ECover_tracker@@UAEPAXI@Z 00477450 f i apid:livingstone.obj
 0001:00076450       ??_GCover_tracker@@UAEPAXI@Z 00477450 f i apid:livingstone.obj
 0001:000764b0       ??1Cover_tracker@@UAE@XZ   004774b0 f i apid:livingstone.obj
 0001:000764f0       ?initialize_tracker@Livingstone@@QAE_NXZ 004774f0 f   apid:livingstone.obj
 0001:000766e0       ?observe@Livingstone@@QAE_NIH@Z 004776e0 f   apid:livingstone.obj
 0001:00076780       ?observe@Observable@@QAEXH@Z 00477780 f i apid:livingstone.obj
 0001:000767f0       ?command@Livingstone@@QAE_NII@Z 004777f0 f   apid:livingstone.obj
 0001:000768b0       ?idle@Livingstone@@QAEXXZ  004778b0 f   apid:livingstone.obj
 0001:00076910       ?diagnose@Livingstone@@QAEIXZ 00477910 f   apid:livingstone.obj
 0001:00076a70       ?ncandidates@Livingstone@@QBEIXZ 00477a70 f   apid:livingstone.obj
 0001:00076ab0       ?install@Livingstone@@QAE_NI@Z 00477ab0 f   apid:livingstone.obj
 0001:00076b20       ?get_value@Livingstone@@QBEHIAA_N@Z 00477b20 f   apid:livingstone.obj
 0001:00076b70       ?get_value@Livingstone@@QBEHIIAA_N@Z 00477b70 f   apid:livingstone.obj
 0001:00076c10       ?is_valid@failure@Livingstone@@QBE_NXZ 00477c10 f   apid:livingstone.obj
 0001:00076c50       ?invalid@failure@Livingstone@@SA?AV12@XZ 00477c50 f   apid:livingstone.obj
 0001:00076ca0       ??0failure@Livingstone@@QAE@III@Z 00477ca0 f i apid:livingstone.obj
 0001:00076cf0       ?nfailures@Livingstone@@QBEIABVCandidate@@@Z 00477cf0 f   apid:livingstone.obj
 0001:00076d80       ?get_failure@Livingstone@@QBE?AVfailure@1@ABVCandidate@@I@Z 00477d80 f   apid:livingstone.obj
 0001:00076f40       ?print_search_parameters@Livingstone@@QBEXAAV?$basic_ostream@DU?$char_traits@D@std@@@std@@@Z 00477f40 f   apid:livingstone.obj
 0001:00077020       ?getFiletype@Livingstone_reader@@QBEABVMBA_string@@XZ 00478020 f i apid:livingstone.obj
 0001:00077050       ?get_search_termination_reason@Livingstone@@QBE?AW4SearchTermination@@XZ 00478050 f   apid:livingstone.obj
 0001:000773b0       ??0Fringe@LTMS@@QAE@XZ     004783b0 f   coverd:LTMS.obj
 0001:000773f0       ?remove@Fringe@LTMS@@QAEXPAVClause@@@Z 004783f0 f   coverd:LTMS.obj
 0001:00077470       ?get_fringe_index@Clause@@QBEIXZ 00478470 f i coverd:LTMS.obj
 0001:000774a0       ?set_in_fringe@Clause@@QAEXI@Z 004784a0 f i coverd:LTMS.obj
 0001:000774f0       ?take_from_fringe@Clause@@QAEXXZ 004784f0 f i coverd:LTMS.obj
 0001:00077530       ?pop@Fringe@LTMS@@QAEPAVClause@@XZ 00478530 f i coverd:LTMS.obj
 0001:00077580       ?remove_destroying@Fringe@LTMS@@QAEXXZ 00478580 f   coverd:LTMS.obj
 0001:00077600       ?insert_into_fringe@LTMS@@IAEXAAVClause@@@Z 00478600 f   coverd:LTMS.obj
 0001:00077680       ?is_volatile@Clause@@QBE_NXZ 00478680 f i coverd:LTMS.obj
 0001:000776c0       ?push@Fringe@LTMS@@QAEXPAVClause@@@Z 004786c0 f i coverd:LTMS.obj
 0001:00077710       ?remove_from_fringe@LTMS@@IAEXAAVClause@@@Z 00478710 f   coverd:LTMS.obj
 0001:00077790       ?get_fringe_clause@LTMS@@IAEPAVClause@@XZ 00478790 f   coverd:LTMS.obj
 0001:00077810       ?empty@Fringe@LTMS@@QBE_NXZ 00478810 f i coverd:LTMS.obj
 0001:00077850       ?insert_into_unsat@LTMS@@IAEXAAVClause@@@Z 00478850 f   coverd:LTMS.obj
 0001:000778b0       ?set_unsatisfied@Clause@@AAEX_N@Z 004788b0 f i coverd:LTMS.obj
 0001:000778f0       ?is_unsatisfied@Clause@@QBE_NXZ 004788f0 f i coverd:LTMS.obj
 0001:00077930       ?remove_from_unsat@LTMS@@IAEXAAVClause@@@Z 00478930 f   coverd:LTMS.obj
 0001:00077a30       ?add@LTMS@@UAEXAAVClause@@@Z 00478a30 f   coverd:LTMS.obj
 0001:00077b50       ?get_unassigned_count@Clause@@QBEHXZ 00478b50 f i coverd:LTMS.obj
 0001:00077b80       ?remove@LTMS@@UAEXAAVClause@@@Z 00478b80 f   coverd:LTMS.obj
 0001:00077c40       ?finish_destroying@LTMS@@UAEXXZ 00478c40 f   coverd:LTMS.obj
 0001:00077d30       ?is_destroying@Proposition@@QBE_NXZ 00478d30 f i coverd:LTMS.obj
 0001:00077d70       ?get_flag@Proposition@@ABE_NW4bit_masks@1@@Z 00478d70 f i coverd:LTMS.obj
 0001:00077e30       ?partial_propagate@LTMS@@UAE_NIAA_N@Z 00478e30 f   coverd:LTMS.obj
 0001:00077f00       ?propagate@LTMS@@UAE_NXZ   00478f00 f   coverd:LTMS.obj
 0001:00077fa0       ?get_clause_support@LTMS@@UAEXAAVClause@@AAV?$Slist@PAVClause@@@@P6A_NABV2@@Z@Z 00478fa0 f   coverd:LTMS.obj
 0001:00078170       ?set_time_stamp@Clause@@AAEXG@Z 00479170 f i coverd:LTMS.obj
 0001:000781b0       ?get_time_stamp@Clause@@ABEGXZ 004791b0 f i coverd:LTMS.obj
 0001:000781e0       ?begin@Clause@@QBEPAPAVProposition@@XZ 004791e0 f i coverd:LTMS.obj
 0001:00078210       ?end@Clause@@QBEPAPAVProposition@@XZ 00479210 f i coverd:LTMS.obj
 0001:00078250       ?initialize@LTMS@@MAEXXZ   00479250 f   coverd:LTMS.obj
 0001:00078300       ?erase@Fringe@LTMS@@QAEXXZ 00479300 f i coverd:LTMS.obj
 0001:00078340       ?assignUpdateSameSense@LTMS@@AAEXABVProposition@@_N@Z 00479340 f   coverd:LTMS.obj
 0001:00078430       ?begin_negative@Proposition@@QBEPAPAVClause@@XZ 00479430 f i coverd:LTMS.obj
 0001:00078470       ?end_negative@Proposition@@QBEPAPAVClause@@XZ 00479470 f i coverd:LTMS.obj
 0001:000784b0       ?set_satisfying_prop@Clause@@AAEXPBVProposition@@@Z 004794b0 f i coverd:LTMS.obj
 0001:000784e0       ?assignUpdateOppositeSense@LTMS@@AAEXABVProposition@@_N@Z 004794e0 f   coverd:LTMS.obj
 0001:000785f0       ?assign@LTMS@@MAEXAAVProposition@@_NAAVClause@@@Z 004795f0 f   coverd:LTMS.obj
 0001:00078670       ?set_value@Proposition@@AAEXC@Z 00479670 f i coverd:LTMS.obj
 0001:000786a0       ?set_supported_by@Proposition@@AAEXPAVClause@@@Z 004796a0 f i coverd:LTMS.obj
 0001:000786d0       ?enqueue_for_undo@LTMS@@IAEXPAVProposition@@@Z 004796d0 f   coverd:LTMS.obj
 0001:00078710       ?undo_propagations@LTMS@@IAEXXZ 00479710 f   coverd:LTMS.obj
 0001:00078780       ?unassignUpdateSameSense@LTMS@@AAEXABVProposition@@_N@Z 00479780 f   coverd:LTMS.obj
 0001:00078880       ?unassignUpdateOppositeSense@LTMS@@AAEXABVProposition@@_N@Z 00479880 f   coverd:LTMS.obj
 0001:000789c0       ?unassign@LTMS@@MAEXAAVProposition@@@Z 004799c0 f   coverd:LTMS.obj
 0001:00078ab0       ?initialize@Proposition@@QAEXXZ 00479ab0 f i coverd:LTMS.obj
 0001:00078b00       ?isUnknown@Proposition@@QBE_NXZ 00479b00 f i coverd:LTMS.obj
 0001:00078b40       ?last_conflict@LTMS@@UAEXAAV?$Slist@PAVClause@@@@P6A_NABVClause@@@Z@Z 00479b40 f   coverd:LTMS.obj
 0001:00078be0       ?transfer_clauses@LTMS@@AAEXPAVProposition@@0AAV?$Slist@PAVClause@@@@_N@Z 00479be0 f   coverd:LTMS.obj
 0001:00078d70       ?add_positive@Proposition@@IAEXPAVClause@@@Z 00479d70 f i coverd:LTMS.obj
 0001:00078db0       ?add_negative@Proposition@@IAEXPAVClause@@@Z 00479db0 f i coverd:LTMS.obj
 0001:00078df0       ?remove_positive@Proposition@@IAEXPBVClause@@@Z 00479df0 f i coverd:LTMS.obj
 0001:00078e70       ?remove_negative@Proposition@@IAEXPBVClause@@@Z 00479e70 f i coverd:LTMS.obj
 0001:00078ef0       ?move_support@LTMS@@QAEXPAVProposition@@AAV?$Slist@PAVClause@@@@0@Z 00479ef0 f   coverd:LTMS.obj
 0001:00078fe0       ??0?$Array@PAVClause@@$0A@@@QAE@I@Z 00479fe0 f i coverd:LTMS.obj
 0001:00079040       ?empty@?$Array@PAVClause@@$0A@@@QBE_NXZ 0047a040 f i coverd:LTMS.obj
 0001:00079080       ??A?$Array@PAVClause@@$0A@@@QAEAAPAVClause@@I@Z 0047a080 f i coverd:LTMS.obj
 0001:000790e0       ?push@?$Array@PAVClause@@$0A@@@QAEXABQAVClause@@@Z 0047a0e0 f i coverd:LTMS.obj
 0001:00079150       ?pop@?$Array@PAVClause@@$0A@@@QAEPAVClause@@XZ 0047a150 f i coverd:LTMS.obj
 0001:000791c0       ?remove@?$Array@PAVClause@@$0A@@@QAEXI@Z 0047a1c0 f i coverd:LTMS.obj
 0001:00079250       ?erase@?$Array@PAVClause@@$0A@@@QAEXPAPAVClause@@@Z 0047a250 f i coverd:LTMS.obj
 0001:000792d0       ?empty@?$Array@PAVProposition@@$0A@@@QBE_NXZ 0047a2d0 f i coverd:LTMS.obj
 0001:00079310       ?push@?$Array@PAVProposition@@$0A@@@QAEXABQAVProposition@@@Z 0047a310 f i coverd:LTMS.obj
 0001:00079380       ?pop@?$Array@PAVProposition@@$0A@@@QAEPAVProposition@@XZ 0047a380 f i coverd:LTMS.obj
 0001:000793f0       ?ensure@?$Array@PAVClause@@$0A@@@AAEXI@Z 0047a3f0 f i coverd:LTMS.obj
 0001:000794c0       ?do_allocate@?$Array@PAVClause@@$0A@@@AAEPAPAVClause@@I@Z 0047a4c0 f i coverd:LTMS.obj
 0001:00079530       ?contains@?$Slist@PAVClause@@@@QBE_NABQAVClause@@@Z 0047a530 f i coverd:LTMS.obj
 0001:00079590       ?L2_initialize_array@@YAPAPAVClause@@PAPAV1@I@Z 0047a590 f i coverd:LTMS.obj
 0001:00079870       ??1Ptheory@@UAE@XZ         0047a870 f   coverd:Ptheory.obj
 0001:00079a50       ??_GProposition@@QAEPAXI@Z 0047aa50 f i coverd:Ptheory.obj
 0001:00079ab0       ??1Proposition@@QAE@XZ     0047aab0 f i coverd:Ptheory.obj
 0001:00079b30       ?create_clause@Ptheory@@UAEPAVClause@@PAXAAV?$Slist@PAVProposition@@@@1_N2@Z 0047ab30 f   coverd:Ptheory.obj
 0001:00079c50       ?create_proposition@Ptheory@@UAEPAVProposition@@XZ 0047ac50 f   coverd:Ptheory.obj
 0001:00079d30       ??0Proposition@@AAE@XZ     0047ad30 f i coverd:Ptheory.obj
 0001:00079dd0       ?add@Ptheory@@UAEXAAVClause@@@Z 0047add0 f   coverd:Ptheory.obj
 0001:00079e40       ?set_unassigned_count@Clause@@AAEXC@Z 0047ae40 f i coverd:Ptheory.obj
 0001:00079e70       ?initialize@Ptheory@@UAEXXZ 0047ae70 f   coverd:Ptheory.obj
 0001:00079f20       ?initialize_time_stamps@Ptheory@@IAEXXZ 0047af20 f   coverd:Ptheory.obj
 0001:00079f90       ?finish_destroying@Ptheory@@UAEXXZ 0047af90 f   coverd:Ptheory.obj
 0001:0007a250       ?erase@?$Array@PAVProposition@@$0A@@@QAEXPAPAVProposition@@@Z 0047b250 f i coverd:Ptheory.obj
 0001:0007a2d0       ??1?$Slist@PAVPtheory_listener@@@@QAE@XZ 0047b2d0 f i coverd:Ptheory.obj
 0001:0007a310       ?begin@?$Slist@PAVPtheory_listener@@@@QAE?AV?$Slist_iterator@PAVPtheory_listener@@@@XZ 0047b310 f i coverd:Ptheory.obj
 0001:0007a360       ?end@?$Slist@PAVPtheory_listener@@@@QAE?AV?$Slist_iterator@PAVPtheory_listener@@@@XZ 0047b360 f i coverd:Ptheory.obj
 0001:0007a3b0       ??E?$Slist_iterator@PAVPtheory_listener@@@@QAEAAV0@XZ 0047b3b0 f i coverd:Ptheory.obj
 0001:0007a400       ??D?$Slist_iterator@PAVPtheory_listener@@@@QAEAAPAVPtheory_listener@@XZ 0047b400 f i coverd:Ptheory.obj
 0001:0007a450       ??9?$Slist_iterator@PAVPtheory_listener@@@@QBE_NABV0@@Z 0047b450 f i coverd:Ptheory.obj
 0001:0007a490       ?remove@?$Array@PAVProposition@@$0A@@@QAEXI@Z 0047b490 f i coverd:Ptheory.obj
 0001:0007a520       ?erase@?$Slist@PAVPtheory_listener@@@@QAEXXZ 0047b520 f i coverd:Ptheory.obj
 0001:0007a580       ??0?$Slist_iterator@PAVPtheory_listener@@@@QAE@PAV?$Slist_item@PAVPtheory_listener@@@@@Z 0047b580 f i coverd:Ptheory.obj
 0001:0007a5c0       ?delete_list@?$Slist_item@PAVPtheory_listener@@@@QAEXXZ 0047b5c0 f i coverd:Ptheory.obj
 0001:0007a8c0       ?parse_cmd@Cover_tracker_debug@@UAE_NPAD0@Z 0047b8c0 f   coverd:Cover_tracker_debug.obj
 0001:0007aaa0       ?get_gamma@Cover_tracker@@IAEIXZ 0047baa0 f i coverd:Cover_tracker_debug.obj
 0001:0007aad0       ?listener_usage@Cover_tracker_debug@@UBEXXZ 0047bad0 f   coverd:Cover_tracker_debug.obj
 0001:0007ae60       ?set_destroying@Proposition@@QAEXXZ 0047be60 f   coverd:Proposition.obj
 0001:0007af10       ?set_flag@Proposition@@AAEX_NW4bit_masks@1@@Z 0047bf10 f i coverd:Proposition.obj
 0001:0007af70       ?set_destroying@Clause@@QAEXXZ 0047bf70 f i coverd:Proposition.obj
 0001:0007b230       ?split_filename@@YAXABVMBA_string@@AAV1@11@Z 0047c230 f   coverd:stringops.obj
 0001:0007b500       ?split_equality@@YA_NABVMBA_string@@AAV1@1@Z 0047c500 f   coverd:stringops.obj
 0001:0007b980       ?extend_candidates@Cover_tracker@@MAEXXZ 0047c980 f   coverd:Cover_tracker.obj
 0001:0007ba10       ??0L2_disabled_error@@QAE@VMBA_string@@@Z 0047ca10 f i coverd:Cover_tracker.obj
 0001:0007baa0       ??1L2_disabled_error@@QAE@XZ 0047caa0 f i coverd:Cover_tracker.obj
 0001:0007bae0       ??0L2_disabled_error@@QAE@ABV0@@Z 0047cae0 f i coverd:Cover_tracker.obj
 0001:0007bb20       ?find_fresh_candidates@Cover_tracker@@MAEXXZ 0047cb20 f   coverd:Cover_tracker.obj
 0001:0007bc30       ?find_candidates@Cover_tracker@@UAEXXZ 0047cc30 f   coverd:Cover_tracker.obj
 0001:0007bf20       ??0Clause@@AAE@PAXAAV?$Slist@PAVProposition@@@@1_N@Z 0047cf20 f   coverd:Clause.obj
 0001:0007c140       ??_GClause@@UAEPAXI@Z      0047d140 f i coverd:Clause.obj
 0001:0007c140       ??_EClause@@UAEPAXI@Z      0047d140 f i coverd:Clause.obj
 0001:0007c1a0       ??1Clause@@UAE@XZ          0047d1a0 f   coverd:Clause.obj
 0001:0007c290       ?initialize@Clause@@QAEXXZ 0047d290 f   coverd:Clause.obj
 0001:0007c300       ?set_supports@Clause@@IAEXPAVProposition@@@Z 0047d300 f   coverd:Clause.obj
 0001:0007c3f0       ?get_supports@Clause@@QBEPAVProposition@@XZ 0047d3f0 f   coverd:Clause.obj
 0001:0007c480       ?get_unassigned_literal@Clause@@QBEPAVProposition@@AA_N@Z 0047d480 f   coverd:Clause.obj
 0001:0007c570       ?find_satisfying_prop@Clause@@IBEPBVProposition@@XZ 0047d570 f   coverd:Clause.obj
 0001:0007c610       ?incr_num_unassigned@Clause@@AAECXZ 0047d610 f   coverd:Clause.obj
 0001:0007c7b0       ?decr_num_unassigned@Clause@@AAECXZ 0047d7b0 f   coverd:Clause.obj
 0001:0007c870       ?contains@Clause@@QBE_NABVProposition@@@Z 0047d870 f   coverd:Clause.obj
 0001:0007c8e0       ?count_unassigned@Clause@@QBECXZ 0047d8e0 f   coverd:Clause.obj
 0001:0007c960       ?begin@?$Slist@PAVProposition@@@@QAE?AV?$Slist_iterator@PAVProposition@@@@XZ 0047d960 f i coverd:Clause.obj
 0001:0007c9b0       ?end@?$Slist@PAVProposition@@@@QAE?AV?$Slist_iterator@PAVProposition@@@@XZ 0047d9b0 f i coverd:Clause.obj
 0001:0007ca00       ??E?$Slist_iterator@PAVProposition@@@@QAEAAV0@XZ 0047da00 f i coverd:Clause.obj
 0001:0007ca50       ??D?$Slist_iterator@PAVProposition@@@@QAEAAPAVProposition@@XZ 0047da50 f i coverd:Clause.obj
 0001:0007caa0       ??9?$Slist_iterator@PAVProposition@@@@QBE_NABV0@@Z 0047daa0 f i coverd:Clause.obj
 0001:0007cae0       ??0?$Slist_iterator@PAVProposition@@@@QAE@PAV?$Slist_item@PAVProposition@@@@@Z 0047dae0 f i coverd:Clause.obj
 0001:0007cb20       ?size@?$Slist@PAVProposition@@@@QBEIXZ 0047db20 f i coverd:Clause.obj
 0001:0007cb50       ?remove_duplicates@?$Slist@PAVProposition@@@@QAEIXZ 0047db50 f i coverd:Clause.obj
 0001:0007cc40       ?erase@?$Slist@PAVProposition@@@@QAEXAAV?$Slist_iterator@PAVProposition@@@@@Z 0047dc40 f i coverd:Clause.obj
 0001:0007cf70       ?rho_coverage@@YAXPAVConflict_db@@AAV?$Slist@PAVCandidate@@@@I@Z 0047df70 f   coverd:cover.obj
 0001:0007d140       ??0Mark_table@@QAE@XZ      0047e140 f i coverd:cover.obj
 0001:0007d180       ??1Mark_table@@QAE@XZ      0047e180 f i coverd:cover.obj
 0001:0007d1c0       ?insert@Mark_table@@QAEXPBVAssignable@@@Z 0047e1c0 f i coverd:cover.obj
 0001:0007d210       ??0set@Proto_candidate@@QAE@XZ 0047e210 f i coverd:cover.obj
 0001:0007d250       ?hash@set@Proto_candidate@@CAIABQAV2@@Z 0047e250 f i coverd:cover.obj
 0001:0007d290       ?hash@Proto_candidate@@QBEIXZ 0047e290 f i coverd:cover.obj
 0001:0007d310       ?begin@Proto_candidate@@QBEPAPAVAssignment@@XZ 0047e310 f i coverd:cover.obj
 0001:0007d350       ?end@Proto_candidate@@QBEPAPAVAssignment@@XZ 0047e350 f i coverd:cover.obj
 0001:0007d390       ??1set@Proto_candidate@@QAE@XZ 0047e390 f i coverd:cover.obj
 0001:0007d480       ?make_candidates@set@Proto_candidate@@QBEXAAV?$Slist@PAVCandidate@@@@@Z 0047e480 f i coverd:cover.obj
 0001:0007d530       ?make_candidate@Proto_candidate@@QBEPAVCandidate@@XZ 0047e530 f i coverd:cover.obj
 0001:0007d5d0       ?begin@set@Proto_candidate@@QBE?AV?$Hash_table_iterator@PAVProto_candidate@@PAV1@@@XZ 0047e5d0 f i coverd:cover.obj
 0001:0007d630       ?end@set@Proto_candidate@@QBE?AV?$Hash_table_iterator@PAVProto_candidate@@PAV1@@@XZ 0047e630 f i coverd:cover.obj
 0001:0007d690       ??_GProto_candidate@@QAEPAXI@Z 0047e690 f i coverd:cover.obj
 0001:0007d6f0       ??1Proto_candidate@@QAE@XZ 0047e6f0 f i coverd:cover.obj
 0001:0007da00       ?get_resolved_conflicts@Assignment@@QBEABV?$Slist@PBVConflict@@@@XZ 0047ea00 f i coverd:cover.obj
 0001:0007da30       ?is_in_conflict@Assignment@@QBE_NPBVConflict@@@Z 0047ea30 f i coverd:cover.obj
 0001:0007da70       ?set@Mark_table@@QAEXPBVAssignable@@@Z 0047ea70 f i coverd:cover.obj
 0001:0007dad0       ?unset@Mark_table@@QAEXPBVAssignable@@@Z 0047ead0 f i coverd:cover.obj
 0001:0007db30       ?is_set@Mark_table@@QBE_NPBVAssignable@@@Z 0047eb30 f i coverd:cover.obj
 0001:0007dc90       ??0Proto_candidate@@QAE@XZ 0047ec90 f i coverd:cover.obj
 0001:0007dd00       ?add@Proto_candidate@@QAEXQAVAssignment@@@Z 0047ed00 f i coverd:cover.obj
 0001:0007de20       ?size@Proto_candidate@@QBEIXZ 0047ee20 f i coverd:cover.obj
 0001:0007de60       ?add@set@Proto_candidate@@QAEPBV2@PAV2@@Z 0047ee60 f i coverd:cover.obj
 0001:0007df30       ?map_add@set@Proto_candidate@@QAEXPAVAssignment@@@Z 0047ef30 f i coverd:cover.obj
 0001:0007e060       ?acquire@set@Proto_candidate@@QAEXAAV12@@Z 0047f060 f i coverd:cover.obj
 0001:0007e100       ?compare@Proto_candidate@@CAHPBVAssignment@@0@Z 0047f100 f i coverd:cover.obj
 0001:0007e1d0       ?pop_front@?$Slist@PBVConflict@@@@QAEXXZ 0047f1d0 f i coverd:cover.obj
 0001:0007e260       ?front@?$Slist@PBVConflict@@@@QAEAAPBVConflict@@XZ 0047f260 f i coverd:cover.obj
 0001:0007e2c0       ??0?$Hash_table@PBVAssignable@@_N@@QAE@P6AIABQBVAssignable@@@Z@Z 0047f2c0 f i coverd:cover.obj
 0001:0007e330       ??1?$Hash_table@PBVAssignable@@_N@@QAE@XZ 0047f330 f i coverd:cover.obj
 0001:0007e380       ??D?$Hash_table_iterator@PBVAssignable@@_N@@QAEAB_NXZ 0047f380 f i coverd:cover.obj
 0001:0007e3c0       ??9?$Hash_table_iterator@PBVAssignable@@_N@@QBE_NABV0@@Z 0047f3c0 f i coverd:cover.obj
 0001:0007e410       ??0?$Array@PAVAssignment@@$0A@@@QAE@I@Z 0047f410 f i coverd:cover.obj
 0001:0007e470       ?begin@?$Array@PAVAssignment@@$0A@@@QBEPAPAVAssignment@@XZ 0047f470 f i coverd:cover.obj
 0001:0007e4a0       ?end@?$Array@PAVAssignment@@$0A@@@QBEPAPAVAssignment@@XZ 0047f4a0 f i coverd:cover.obj
 0001:0007e4e0       ??0?$Hash_table@PAVProto_candidate@@PAV1@@@QAE@P6AIABQAVProto_candidate@@@Z@Z 0047f4e0 f i coverd:cover.obj
 0001:0007e550       ??1?$Hash_table@PAVProto_candidate@@PAV1@@@QAE@XZ 0047f550 f i coverd:cover.obj
 0001:0007e5a0       ?erase@?$Hash_table@PAVProto_candidate@@PAV1@@@QAEXXZ 0047f5a0 f i coverd:cover.obj
 0001:0007e600       ??D?$Hash_table_iterator@PAVProto_candidate@@PAV1@@@QAEABQAVProto_candidate@@XZ 0047f600 f i coverd:cover.obj
 0001:0007e640       ??8?$Hash_table_iterator@PAVProto_candidate@@PAV1@@@QBE_NABV0@@Z 0047f640 f i coverd:cover.obj
 0001:0007e6c0       ??9?$Hash_table_iterator@PAVProto_candidate@@PAV1@@@QBE_NABV0@@Z 0047f6c0 f i coverd:cover.obj
 0001:0007e710       ??0?$Array@PAVProto_candidate@@$0A@@@QAE@XZ 0047f710 f i coverd:cover.obj
 0001:0007e760       ??1?$Array@PAVProto_candidate@@$0A@@@QAE@XZ 0047f760 f i coverd:cover.obj
 0001:0007e7c0       ?begin@?$Array@PAVProto_candidate@@$0A@@@QBEPAPAVProto_candidate@@XZ 0047f7c0 f i coverd:cover.obj
 0001:0007e7f0       ?end@?$Array@PAVProto_candidate@@$0A@@@QBEPAPAVProto_candidate@@XZ 0047f7f0 f i coverd:cover.obj
 0001:0007e830       ?push@?$Array@PAVProto_candidate@@$0A@@@QAEXABQAVProto_candidate@@@Z 0047f830 f i coverd:cover.obj
 0001:0007e8a0       ??8?$Hash_table_iterator@PBVAssignable@@_N@@QBE_NABV0@@Z 0047f8a0 f i coverd:cover.obj
 0001:0007e920       ??D?$Slist_iterator@U?$MBApair@QBVAssignable@@$$CB_N@@@@QAEAAU?$MBApair@QBVAssignable@@$$CB_N@@XZ 0047f920 f i coverd:cover.obj
 0001:0007e970       ??D?$Slist_iterator@U?$MBApair@QAVProto_candidate@@QAV1@@@@@QAEAAU?$MBApair@QAVProto_candidate@@QAV1@@@XZ 0047f970 f i coverd:cover.obj
 0001:0007e9c0       ??8?$Slist_iterator@U?$MBApair@QAVProto_candidate@@QAV1@@@@@QBE_NABV0@@Z 0047f9c0 f i coverd:cover.obj
 0001:0007ea00       ?erase@?$Array@PAVProto_candidate@@$0A@@@QAEXXZ 0047fa00 f i coverd:cover.obj
 0001:0007ea60       ?size@?$Array@PAVProto_candidate@@$0A@@@QBEIXZ 0047fa60 f i coverd:cover.obj
 0001:0007ea90       ?ensure@?$Array@PAVProto_candidate@@$0A@@@AAEXI@Z 0047fa90 f i coverd:cover.obj
 0001:0007eb60       ?erase@?$Slist@U?$MBApair@QAVProto_candidate@@QAV1@@@@@QAEXXZ 0047fb60 f i coverd:cover.obj
 0001:0007ebc0       ??8?$Slist_iterator@U?$MBApair@QBVAssignable@@$$CB_N@@@@QBE_NABV0@@Z 0047fbc0 f i coverd:cover.obj
 0001:0007ec00       ?do_allocate@?$Array@PAVProto_candidate@@$0A@@@AAEPAPAVProto_candidate@@I@Z 0047fc00 f i coverd:cover.obj
 0001:0007ec70       ?do_free@?$Array@PAVProto_candidate@@$0A@@@AAEXPAPAVProto_candidate@@I@Z 0047fc70 f i coverd:cover.obj
 0001:0007ecd0       ?delete_list@?$Slist_item@U?$MBApair@QAVProto_candidate@@QAV1@@@@@QAEXXZ 0047fcd0 f i coverd:cover.obj
 0001:0007ed50       ??_G?$Slist_item@U?$MBApair@QAVProto_candidate@@QAV1@@@@@QAEPAXI@Z 0047fd50 f i coverd:cover.obj
 0001:0007edb0       ??1?$Slist_item@U?$MBApair@QAVProto_candidate@@QAV1@@@@@QAE@XZ 0047fdb0 f i coverd:cover.obj
 0001:0007edf0       ??0?$Slist@PBVConflict@@@@QAE@ABV0@@Z 0047fdf0 f i coverd:cover.obj
 0001:0007eef0       ??Z?$Slist@PBVConflict@@@@QAEAAV0@ABV0@@Z 0047fef0 f i coverd:cover.obj
 0001:0007ef60       ?erase@?$Hash_table@PBVAssignable@@_N@@QAEJABQBVAssignable@@@Z 0047ff60 f i coverd:cover.obj
 0001:0007eff0       ?find@?$Hash_table@PBVAssignable@@_N@@QAE?AV?$Hash_table_iterator@PBVAssignable@@_N@@ABQBVAssignable@@@Z 0047fff0 f i coverd:cover.obj
 0001:0007f150       ?insert_duplicate@?$Hash_table@PBVAssignable@@_N@@QAE?AV?$Hash_table_iterator@PBVAssignable@@_N@@ABQBVAssignable@@AB_N@Z 00480150 f i coverd:cover.obj
 0001:0007f210       ?end@?$Hash_table@PBVAssignable@@_N@@QAE?AV?$Hash_table_iterator@PBVAssignable@@_N@@XZ 00480210 f i coverd:cover.obj
 0001:0007f2a0       ?hash_integral_key@@YAIABQBVAssignable@@@Z 004802a0 f i coverd:cover.obj
 0001:0007f2d0       ?erase@?$Hash_table@PAVProto_candidate@@PAV1@@@QAEJAAV?$Hash_table_iterator@PAVProto_candidate@@PAV1@@@@Z 004802d0 f i coverd:cover.obj
 0001:0007f330       ?find@?$Hash_table@PAVProto_candidate@@PAV1@@@QAE?AV?$Hash_table_iterator@PAVProto_candidate@@PAV1@@@ABQAVProto_candidate@@@Z 00480330 f i coverd:cover.obj
 0001:0007f490       ?insert@?$Hash_table@PAVProto_candidate@@PAV1@@@QAE?AU?$MBApair@V?$Hash_table_iterator@PAVProto_candidate@@PAV1@@@_N@@ABQAVProto_candidate@@0@Z 00480490 f i coverd:cover.obj
 0001:0007f600       ?begin@?$Hash_table@PAVProto_candidate@@PAV1@@@QAE?AV?$Hash_table_iterator@PAVProto_candidate@@PAV1@@@XZ 00480600 f i coverd:cover.obj
 0001:0007f710       ?end@?$Hash_table@PAVProto_candidate@@PAV1@@@QAE?AV?$Hash_table_iterator@PAVProto_candidate@@PAV1@@@XZ 00480710 f i coverd:cover.obj
 0001:0007f7a0       ??E?$Hash_table_iterator@PAVProto_candidate@@PAV1@@@QAEAAV0@XZ 004807a0 f i coverd:cover.obj
 0001:0007f8c0       ?L2_initialize_array@@YAPAV?$Slist@U?$MBApair@QBVAssignable@@$$CB_N@@@@PAV1@I@Z 004808c0 f i coverd:cover.obj
 0001:0007f970       ?L2_free_array@@YAXPAV?$Slist@U?$MBApair@QBVAssignable@@$$CB_N@@@@I@Z 00480970 f i coverd:cover.obj
 0001:0007fa20       ?L2_initialize_array@@YAPAV?$Slist@U?$MBApair@QAVProto_candidate@@QAV1@@@@@PAV1@I@Z 00480a20 f i coverd:cover.obj
 0001:0007fad0       ?L2_free_array@@YAXPAV?$Slist@U?$MBApair@QAVProto_candidate@@QAV1@@@@@I@Z 00480ad0 f i coverd:cover.obj
 0001:0007fb80       ?L2_initialize_array@@YAPAPAVProto_candidate@@PAPAV1@I@Z 00480b80 f i coverd:cover.obj
 0001:0007fbe0       ?L2_free_array@@YAXPAPAVProto_candidate@@I@Z 00480be0 f i coverd:cover.obj
 0001:0007fc50       ?L2_free_array_no_dtor@@YAXPAPAVProto_candidate@@I@Z 00480c50 f i coverd:cover.obj
 0001:0007fc90       ??_G?$Slist@U?$MBApair@QBVAssignable@@$$CB_N@@@@QAEPAXI@Z 00480c90 f i coverd:cover.obj
 0001:0007fcf0       ??_G?$Slist@U?$MBApair@QAVProto_candidate@@QAV1@@@@@QAEPAXI@Z 00480cf0 f i coverd:cover.obj
 0001:0007fd50       ??0?$Hash_table_iterator@PBVAssignable@@_N@@AAE@AAV?$Hash_table@PBVAssignable@@_N@@IV?$Slist_iterator@U?$MBApair@QBVAssignable@@$$CB_N@@@@@Z 00480d50 f i coverd:cover.obj
 0001:0007fda0       ?erase@?$Hash_table_iterator@PBVAssignable@@_N@@AAEXXZ 00480da0 f i coverd:cover.obj
 0001:0007fe20       ??E?$Slist_iterator@U?$MBApair@QBVAssignable@@$$CB_N@@@@QAEAAV0@XZ 00480e20 f i coverd:cover.obj
 0001:0007fe70       ??9?$Slist_iterator@U?$MBApair@QBVAssignable@@$$CB_N@@@@QBE_NABV0@@Z 00480e70 f i coverd:cover.obj
 0001:0007feb0       ??0?$Hash_table_iterator@PAVProto_candidate@@PAV1@@@AAE@AAV?$Hash_table@PAVProto_candidate@@PAV1@@@IV?$Slist_iterator@U?$MBApair@QAVProto_candidate@@QAV1@@@@@@Z 00480eb0 f i coverd:cover.obj
 0001:0007ff00       ?erase@?$Hash_table_iterator@PAVProto_candidate@@PAV1@@@AAEXXZ 00480f00 f i coverd:cover.obj
 0001:0007ff80       ??E?$Slist_iterator@U?$MBApair@QAVProto_candidate@@QAV1@@@@@QAEAAV0@XZ 00480f80 f i coverd:cover.obj
 0001:0007ffd0       ??9?$Slist_iterator@U?$MBApair@QAVProto_candidate@@QAV1@@@@@QBE_NABV0@@Z 00480fd0 f i coverd:cover.obj
 0001:00080010       ??4?$Slist_iterator@U?$MBApair@QAVProto_candidate@@QAV1@@@@@QAEAAV0@ABV0@@Z 00481010 f i coverd:cover.obj
 0001:00080050       ??0?$MBApair@V?$Hash_table_iterator@PAVProto_candidate@@PAV1@@@_N@@QAE@ABV?$Hash_table_iterator@PAVProto_candidate@@PAV1@@@AB_N@Z 00481050 f i coverd:cover.obj
 0001:000800a0       ??0?$Slist@U?$MBApair@QBVAssignable@@$$CB_N@@@@QAE@XZ 004810a0 f i coverd:cover.obj
 0001:000800e0       ??1?$Slist@U?$MBApair@QBVAssignable@@$$CB_N@@@@QAE@XZ 004810e0 f i coverd:cover.obj
 0001:00080120       ?push_front@?$Slist@U?$MBApair@QBVAssignable@@$$CB_N@@@@QAEXABU?$MBApair@QBVAssignable@@$$CB_N@@@Z 00481120 f i coverd:cover.obj
 0001:000801a0       ?begin@?$Slist@U?$MBApair@QBVAssignable@@$$CB_N@@@@QAE?AV?$Slist_iterator@U?$MBApair@QBVAssignable@@$$CB_N@@@@XZ 004811a0 f i coverd:cover.obj
 0001:000801f0       ?end@?$Slist@U?$MBApair@QBVAssignable@@$$CB_N@@@@QAE?AV?$Slist_iterator@U?$MBApair@QBVAssignable@@$$CB_N@@@@XZ 004811f0 f i coverd:cover.obj
 0001:00080240       ??0?$MBApair@QBVAssignable@@$$CB_N@@QAE@ABQBVAssignable@@AB_N@Z 00481240 f i coverd:cover.obj
 0001:00080280       ??0?$Slist@U?$MBApair@QAVProto_candidate@@QAV1@@@@@QAE@XZ 00481280 f i coverd:cover.obj
 0001:000802c0       ??1?$Slist@U?$MBApair@QAVProto_candidate@@QAV1@@@@@QAE@XZ 004812c0 f i coverd:cover.obj
 0001:00080300       ?empty@?$Slist@U?$MBApair@QAVProto_candidate@@QAV1@@@@@QBE_NXZ 00481300 f i coverd:cover.obj
 0001:00080340       ?push_front@?$Slist@U?$MBApair@QAVProto_candidate@@QAV1@@@@@QAEXABU?$MBApair@QAVProto_candidate@@QAV1@@@@Z 00481340 f i coverd:cover.obj
 0001:000803c0       ?begin@?$Slist@U?$MBApair@QAVProto_candidate@@QAV1@@@@@QAE?AV?$Slist_iterator@U?$MBApair@QAVProto_candidate@@QAV1@@@@@XZ 004813c0 f i coverd:cover.obj
 0001:00080410       ?end@?$Slist@U?$MBApair@QAVProto_candidate@@QAV1@@@@@QAE?AV?$Slist_iterator@U?$MBApair@QAVProto_candidate@@QAV1@@@@@XZ 00481410 f i coverd:cover.obj
 0001:00080460       ??0?$MBApair@QAVProto_candidate@@QAV1@@@QAE@ABQAVProto_candidate@@0@Z 00481460 f i coverd:cover.obj
 0001:000804a0       ??0?$Slist_iterator@U?$MBApair@QBVAssignable@@$$CB_N@@@@QAE@PAV?$Slist_item@U?$MBApair@QBVAssignable@@$$CB_N@@@@@Z 004814a0 f i coverd:cover.obj
 0001:000804e0       ??0?$Slist_iterator@U?$MBApair@QAVProto_candidate@@QAV1@@@@@QAE@PAV?$Slist_item@U?$MBApair@QAVProto_candidate@@QAV1@@@@@@Z 004814e0 f i coverd:cover.obj
 0001:00080520       ?erase@?$Slist@U?$MBApair@QBVAssignable@@$$CB_N@@@@QAEXXZ 00481520 f i coverd:cover.obj
 0001:00080580       ??0?$Slist_item@U?$MBApair@QBVAssignable@@$$CB_N@@@@QAE@ABU?$MBApair@QBVAssignable@@$$CB_N@@PAV0@@Z 00481580 f i coverd:cover.obj
 0001:000805e0       ??0?$Slist_item@U?$MBApair@QAVProto_candidate@@QAV1@@@@@QAE@ABU?$MBApair@QAVProto_candidate@@QAV1@@@PAV0@@Z 004815e0 f i coverd:cover.obj
 0001:00080640       ?delete_list@?$Slist_item@U?$MBApair@QBVAssignable@@$$CB_N@@@@QAEXXZ 00481640 f i coverd:cover.obj
 0001:000806c0       ??_G?$Slist_item@U?$MBApair@QBVAssignable@@$$CB_N@@@@QAEPAXI@Z 004816c0 f i coverd:cover.obj
 0001:00080720       ??1?$Slist_item@U?$MBApair@QBVAssignable@@$$CB_N@@@@QAE@XZ 00481720 f i coverd:cover.obj
 0001:00080760       ??E?$Hash_table_iterator@PBVAssignable@@_N@@QAEAAV0@XZ 00481760 f i coverd:cover.obj
 0001:00080880       ??0?$Slist@U?$MBApair@QBVAssignable@@$$CB_N@@@@QAE@ABV0@@Z 00481880 f i coverd:cover.obj
 0001:00080980       ?erase@?$Slist@U?$MBApair@QBVAssignable@@$$CB_N@@@@QAEXAAV?$Slist_iterator@U?$MBApair@QBVAssignable@@$$CB_N@@@@@Z 00481980 f i coverd:cover.obj
 0001:00080a30       ??0?$Slist@U?$MBApair@QAVProto_candidate@@QAV1@@@@@QAE@ABV0@@Z 00481a30 f i coverd:cover.obj
 0001:00080b30       ?erase@?$Slist@U?$MBApair@QAVProto_candidate@@QAV1@@@@@QAEXAAV?$Slist_iterator@U?$MBApair@QAVProto_candidate@@QAV1@@@@@@Z 00481b30 f i coverd:cover.obj
 0001:00080be0       ?L2_free_array_no_dtor@@YAXPAV?$Slist@U?$MBApair@QBVAssignable@@$$CB_N@@@@I@Z 00481be0 f i coverd:cover.obj
 0001:00080c20       ?L2_free_array_no_dtor@@YAXPAV?$Slist@U?$MBApair@QAVProto_candidate@@QAV1@@@@@I@Z 00481c20 f i coverd:cover.obj
 0001:00080ce0       ??4?$Slist_iterator@U?$MBApair@QBVAssignable@@$$CB_N@@@@QAEAAV0@ABV0@@Z 00481ce0 f i coverd:cover.obj
 0001:00080d20       ?empty@?$Slist@U?$MBApair@QBVAssignable@@$$CB_N@@@@QBE_NXZ 00481d20 f i coverd:cover.obj
 0001:00080d60       ??0?$Slist_item@U?$MBApair@QBVAssignable@@$$CB_N@@@@QAE@ABU?$MBApair@QBVAssignable@@$$CB_N@@@Z 00481d60 f i coverd:cover.obj
 0001:00080dc0       ??0?$Slist_item@U?$MBApair@QAVProto_candidate@@QAV1@@@@@QAE@ABU?$MBApair@QAVProto_candidate@@QAV1@@@@Z 00481dc0 f i coverd:cover.obj
 0001:00081020       ??0CBFS_tracker@@QAE@AAVT_system@@IIII@Z 00482020 f   opsatd:cbfs_tracker.obj
 0001:000810e0       ?find_candidates@CBFS_tracker@@UAEXXZ 004820e0 f i opsatd:cbfs_tracker.obj
 0001:00081130       ?search_termination@CBFS_tracker@@UBE?AW4SearchTermination@@XZ 00482130 f i opsatd:cbfs_tracker.obj
 0001:00081170       ??_GCBFS_tracker@@UAEPAXI@Z 00482170 f i opsatd:cbfs_tracker.obj
 0001:00081170       ??_ECBFS_tracker@@UAEPAXI@Z 00482170 f i opsatd:cbfs_tracker.obj
 0001:000811d0       ??1CBFS_tracker@@UAE@XZ    004821d0 f i opsatd:cbfs_tracker.obj
 0001:00081250       ??1Opsat_CBFS@@QAE@XZ      00482250 f i opsatd:cbfs_tracker.obj
 0001:00081290       ?find_fresh_candidates@CBFS_tracker@@UAEXXZ 00482290 f   opsatd:cbfs_tracker.obj
 0001:000813a0       ?extend_candidates@CBFS_tracker@@UAEXXZ 004823a0 f   opsatd:cbfs_tracker.obj
 0001:00081430       ?set_t_system@Opsat_CBFS@@QAEXPAVT_system@@@Z 00482430 f i opsatd:cbfs_tracker.obj
 0001:000816e0       ??0to_t_system@@QAE@PBVL2_file@@PAVT_system@@@Z 004826e0 f   readersd:to_t_system.obj
 0001:00081770       ??0L2_file_writer@@IAE@PBVL2_file@@@Z 00482770 f i readersd:to_t_system.obj
 0001:000817d0       ??1L2_file_writer@@MAE@XZ  004827d0 f i readersd:to_t_system.obj
 0001:00081830       ??_EL2_file_writer@@MAEPAXI@Z 00482830 f i readersd:to_t_system.obj
 0001:00081830       ??_GL2_file_writer@@MAEPAXI@Z 00482830 f i readersd:to_t_system.obj
 0001:00081890       ??_Eto_t_system@@UAEPAXI@Z 00482890 f i readersd:to_t_system.obj
 0001:00081890       ??_Gto_t_system@@UAEPAXI@Z 00482890 f i readersd:to_t_system.obj
 0001:000818f0       ??1to_t_system@@UAE@XZ     004828f0 f   readersd:to_t_system.obj
 0001:000819e0       ?write@to_t_system@@UAE_NXZ 004829e0 f   readersd:to_t_system.obj
 0001:00081cb0       ??0L2_empty_model_error@@QAE@VMBA_string@@@Z 00482cb0 f i readersd:to_t_system.obj
 0001:00081d40       ?get_source@L2_file_writer@@QBEPBVL2_file@@XZ 00482d40 f i readersd:to_t_system.obj
 0001:00081d70       ??0tms_listener@to_t_system@@QAE@AAV?$Slist@PAVto_t_system_listener@@@@AAVPtheory@@@Z 00482d70 f i readersd:to_t_system.obj
 0001:00081e80       ??_Etms_listener@to_t_system@@UAEPAXI@Z 00482e80 f i readersd:to_t_system.obj
 0001:00081e80       ??_Gtms_listener@to_t_system@@UAEPAXI@Z 00482e80 f i readersd:to_t_system.obj
 0001:00081ee0       ??1tms_listener@to_t_system@@UAE@XZ 00482ee0 f i readersd:to_t_system.obj
 0001:00081fd0       ??1L2_empty_model_error@@QAE@XZ 00482fd0 f i readersd:to_t_system.obj
 0001:00082010       ??0L2_empty_model_error@@QAE@ABV0@@Z 00483010 f i readersd:to_t_system.obj
 0001:00082050       ?createVariable@to_t_system@@AAEXPBVL2rVariable@@@Z 00483050 f   readersd:to_t_system.obj
 0001:00082280       ?isVerbose@L2_file_writer@@QBE_NXZ 00483280 f i readersd:to_t_system.obj
 0001:000822b0       ?createTransitions@to_t_system@@AAEXPBVL2rVariable@@@Z 004832b0 f   readersd:to_t_system.obj
 0001:000824d0       ?get_ntransitions@Transitioned@@QBEIXZ 004834d0 f i readersd:to_t_system.obj
 0001:00082500       ?createBackground@to_t_system@@AAEXPBVL2rClause@@@Z 00483500 f   readersd:to_t_system.obj
 0001:00082550       ?expandClauseEquality@to_t_system@@AAEXABV?$Slist@PBVL2rPropVarVar@@@@AAV?$Array@U?$MBApair@PAVVariable@@I@@$0A@@@1_N@Z 00483550 f   readersd:to_t_system.obj
 0001:00082a00       ??0Partition@to_t_system@@QAE@ABV?$Array@U?$MBApair@PAVVariable@@I@@$0A@@@0ABV?$Slist@PBVL2rPropVarVar@@@@@Z 00483a00 f i readersd:to_t_system.obj
 0001:00082b20       ?getPositiveSingles@Partition@to_t_system@@QAEAAV?$Array@U?$MBApair@PAVVariable@@I@@$0A@@@XZ 00483b20 f i readersd:to_t_system.obj
 0001:00082b50       ?getNegativeSingles@Partition@to_t_system@@QAEAAV?$Array@U?$MBApair@PAVVariable@@I@@$0A@@@XZ 00483b50 f i readersd:to_t_system.obj
 0001:00082b80       ?getDuals@Partition@to_t_system@@QAEABV?$Slist@PBVL2rPropVarVar@@@@XZ 00483b80 f i readersd:to_t_system.obj
 0001:00082bb0       ??_GPartition@to_t_system@@QAEPAXI@Z 00483bb0 f i readersd:to_t_system.obj
 0001:00082c10       ??1Partition@to_t_system@@QAE@XZ 00483c10 f i readersd:to_t_system.obj
 0001:00082ca0       ?expandClause@to_t_system@@AAEXPBVL2rClause@@_N@Z 00483ca0 f   readersd:to_t_system.obj
 0001:00082e70       ?createTransition@to_t_system@@AAEXPAVTransitioned@@PBVL2rTransition@@I@Z 00483e70 f   readersd:to_t_system.obj
 0001:00083160       ??6@YAAAV?$basic_ostream@DU?$char_traits@D@std@@@std@@AAV01@PBVL2rTransition@@@Z 00484160 f i readersd:to_t_system.obj
 0001:000831c0       ?toOStream@L2rTransition@@QBEXAAV?$basic_ostream@DU?$char_traits@D@std@@@std@@@Z 004841c0 f i readersd:to_t_system.obj
 0001:00083220       ?add_idle_prototype@Transitioned@@QAEXI@Z 00484220 f i readersd:to_t_system.obj
 0001:000832a0       ?empty@?1??add_idle_prototype@Transitioned@@QAEXI@Z@$AV?$Slist@U?$MBApair@PAVVariable@@I@@@@B 004842a0 f i readersd:to_t_system.obj
 0001:000832e0       ?createInitialState@to_t_system@@QAEXXZ 004842e0 f   readersd:to_t_system.obj
 0001:000834f0       ?findVar@to_t_system@@ABEPAVVariable@@PBVL2rVariable@@@Z 004844f0 f   readersd:to_t_system.obj
 0001:00083540       ??0?$Array@U?$MBApair@PAVVariable@@I@@$0A@@@QAE@XZ 00484540 f i readersd:to_t_system.obj
 0001:00083590       ?empty@?$Slist@PBVL2rPropVarVar@@@@QBE_NXZ 00484590 f i readersd:to_t_system.obj
 0001:000835d0       ?pop_front@?$Slist@PBVL2rPropVarVar@@@@QAEXXZ 004845d0 f i readersd:to_t_system.obj
 0001:00083660       ?front@?$Slist@PBVL2rPropVarVar@@@@QBEABQBVL2rPropVarVar@@XZ 00484660 f i readersd:to_t_system.obj
 0001:000836c0       ??0?$Slist@PAVto_t_system_listener@@@@QAE@XZ 004846c0 f i readersd:to_t_system.obj
 0001:00083700       ??1?$Slist@PAVto_t_system_listener@@@@QAE@XZ 00484700 f i readersd:to_t_system.obj
 0001:00083740       ?empty@?$Slist@PAVto_t_system_listener@@@@QBE_NXZ 00484740 f i readersd:to_t_system.obj
 0001:00083780       ?begin@?$Slist@PAVto_t_system_listener@@@@QAE?AV?$Slist_iterator@PAVto_t_system_listener@@@@XZ 00484780 f i readersd:to_t_system.obj
 0001:000837d0       ?end@?$Slist@PAVto_t_system_listener@@@@QAE?AV?$Slist_iterator@PAVto_t_system_listener@@@@XZ 004847d0 f i readersd:to_t_system.obj
 0001:00083820       ??E?$Slist_iterator@PAVto_t_system_listener@@@@QAEAAV0@XZ 00484820 f i readersd:to_t_system.obj
 0001:00083870       ??D?$Slist_iterator@PAVto_t_system_listener@@@@QAEAAPAVto_t_system_listener@@XZ 00484870 f i readersd:to_t_system.obj
 0001:000838c0       ??9?$Slist_iterator@PAVto_t_system_listener@@@@QBE_NABV0@@Z 004848c0 f i readersd:to_t_system.obj
 0001:00083900       ??0?$Slist@PAVPartition@to_t_system@@@@QAE@XZ 00484900 f i readersd:to_t_system.obj
 0001:00083940       ??1?$Slist@PAVPartition@to_t_system@@@@QAE@XZ 00484940 f i readersd:to_t_system.obj
 0001:00083980       ?empty@?$Slist@PAVPartition@to_t_system@@@@QBE_NXZ 00484980 f i readersd:to_t_system.obj
 0001:000839c0       ?push_front@?$Slist@PAVPartition@to_t_system@@@@QAEXABQAVPartition@to_t_system@@@Z 004849c0 f i readersd:to_t_system.obj
 0001:00083a40       ?pop_front@?$Slist@PAVPartition@to_t_system@@@@QAEXXZ 00484a40 f i readersd:to_t_system.obj
 0001:00083ad0       ?front@?$Slist@PAVPartition@to_t_system@@@@QAEAAPAVPartition@to_t_system@@XZ 00484ad0 f i readersd:to_t_system.obj
 0001:00083b30       ??_G?$Slist_item@PAVPartition@to_t_system@@@@QAEPAXI@Z 00484b30 f i readersd:to_t_system.obj
 0001:00083b90       ??1?$Slist_item@PAVPartition@to_t_system@@@@QAE@XZ 00484b90 f i readersd:to_t_system.obj
 0001:00083bd0       ?erase@?$Slist@PAVto_t_system_listener@@@@QAEXXZ 00484bd0 f i readersd:to_t_system.obj
 0001:00083c30       ??0?$Slist_iterator@PAVto_t_system_listener@@@@QAE@PAV?$Slist_item@PAVto_t_system_listener@@@@@Z 00484c30 f i readersd:to_t_system.obj
 0001:00083c70       ?erase@?$Slist@PAVPartition@to_t_system@@@@QAEXXZ 00484c70 f i readersd:to_t_system.obj
 0001:00083cd0       ??0?$Slist_item@PAVPartition@to_t_system@@@@QAE@ABQAVPartition@to_t_system@@PAV0@@Z 00484cd0 f i readersd:to_t_system.obj
 0001:00083d20       ?delete_list@?$Slist_item@PAVto_t_system_listener@@@@QAEXXZ 00484d20 f i readersd:to_t_system.obj
 0001:00083da0       ?delete_list@?$Slist_item@PAVPartition@to_t_system@@@@QAEXXZ 00484da0 f i readersd:to_t_system.obj
 0001:00083e20       ??_G?$Slist_item@PAVto_t_system_listener@@@@QAEPAXI@Z 00484e20 f i readersd:to_t_system.obj
 0001:00083e80       ??1?$Slist_item@PAVto_t_system_listener@@@@QAE@XZ 00484e80 f i readersd:to_t_system.obj
 0001:00083ec0       ??0?$Slist@PBVL2rPropVarVar@@@@QAE@ABV0@@Z 00484ec0 f i readersd:to_t_system.obj
 0001:00083fc0       ??0?$Slist_item@PBVL2rPropVarVar@@@@QAE@ABQBVL2rPropVarVar@@@Z 00484fc0 f i readersd:to_t_system.obj
 0001:00084120       ?created_proposition@tms_listener@to_t_system@@$4PPPPPPPM@A@AEXAAVProposition@@@Z 00485120 f i readersd:to_t_system.obj
 0001:00084130       ?created_proposition@tms_listener@to_t_system@@UAEXAAVProposition@@@Z 00485130 f i readersd:to_t_system.obj
 0001:00084160       ?created_clause@tms_listener@to_t_system@@$4PPPPPPPM@A@AEXAAVClause@@@Z 00485160 f i readersd:to_t_system.obj
 0001:00084170       ?created_clause@tms_listener@to_t_system@@UAEXAAVClause@@@Z 00485170 f i readersd:to_t_system.obj
 0001:000842a0       ?destroying_proposition@tms_listener@to_t_system@@$4PPPPPPPM@A@AEXAAVProposition@@@Z 004852a0 f i readersd:to_t_system.obj
 0001:000842b0       ?destroying_proposition@tms_listener@to_t_system@@UAEXAAVProposition@@@Z 004852b0 f i readersd:to_t_system.obj
 0001:000842e0       ?destroying_clause@tms_listener@to_t_system@@$4PPPPPPPM@A@AEXAAVClause@@@Z 004852e0 f i readersd:to_t_system.obj
 0001:000842f0       ?destroying_clause@tms_listener@to_t_system@@UAEXAAVClause@@@Z 004852f0 f i readersd:to_t_system.obj
 0001:00084320       ?destroying_container@tms_listener@to_t_system@@$4PPPPPPPM@A@AEXAAVPtheory@@@Z 00485320 f i readersd:to_t_system.obj
 0001:00084330       ?destroying_container@tms_listener@to_t_system@@UAEXAAVPtheory@@@Z 00485330 f i readersd:to_t_system.obj
 0001:00084660       ??0Init@ios_base@std@@QAE@XZ 00485660 f   libcpmtd:iostream.obj
 0001:00084940       ?setf@ios_base@std@@QAEHH@Z 00485940 f i libcpmtd:iostream.obj
 0001:00084980       ??1Init@ios_base@std@@QAE@XZ 00485980 f   libcpmtd:iostream.obj
 0001:000849f0       ??0?$basic_ostream@DU?$char_traits@D@std@@@std@@QAE@W4_Uninitialized@1@@Z 004859f0 f i libcpmtd:iostream.obj
 0001:00084a80       ?tie@?$basic_ios@DU?$char_traits@D@std@@@std@@QAEPAV?$basic_ostream@DU?$char_traits@D@std@@@2@PAV32@@Z 00485a80 f i libcpmtd:iostream.obj
 0001:00084ab0       ??0?$basic_istream@DU?$char_traits@D@std@@@std@@QAE@W4_Uninitialized@1@@Z 00485ab0 f i libcpmtd:iostream.obj
 0001:00084b40       ??0?$basic_filebuf@DU?$char_traits@D@std@@@std@@QAE@W4_Uninitialized@1@@Z 00485b40 f i libcpmtd:iostream.obj
 0001:00084ba0       ??0?$basic_streambuf@DU?$char_traits@D@std@@@std@@IAE@W4_Uninitialized@1@@Z 00485ba0 f i libcpmtd:iostream.obj
 0001:00084c10       ?id@?$collate@D@std@@$D    00485c10 f i libcpmtd:iostream.obj
 0001:00084c60       ?id@?$collate@D@std@@$E    00485c60 f i libcpmtd:iostream.obj
 0001:00084e90       ??_D?$basic_istream@GU?$char_traits@G@std@@@std@@QAEXXZ 00485e90 f i libcpmtd:wiostrea.obj
 0001:00084f20       ??_D?$basic_ostream@GU?$char_traits@G@std@@@std@@QAEXXZ 00485f20 f i libcpmtd:wiostrea.obj
 0001:00085010       ??0_Winit@std@@QAE@XZ      00486010 f   libcpmtd:wiostrea.obj
 0001:000852f0       ??1_Winit@std@@QAE@XZ      004862f0 f   libcpmtd:wiostrea.obj
 0001:00085360       ??0?$basic_ostream@GU?$char_traits@G@std@@@std@@QAE@PAV?$basic_streambuf@GU?$char_traits@G@std@@@1@_N1@Z 00486360 f i libcpmtd:wiostrea.obj
 0001:00085410       ??0?$basic_ostream@GU?$char_traits@G@std@@@std@@QAE@W4_Uninitialized@1@@Z 00486410 f i libcpmtd:wiostrea.obj
 0001:000854a0       ??1?$basic_ostream@GU?$char_traits@G@std@@@std@@UAE@XZ 004864a0 f i libcpmtd:wiostrea.obj
 0001:000854c0       ?flush@?$basic_ostream@GU?$char_traits@G@std@@@std@@QAEAAV12@XZ 004864c0 f i libcpmtd:wiostrea.obj
 0001:00085530       ??1?$basic_ios@GU?$char_traits@G@std@@@std@@UAE@XZ 00486530 f i libcpmtd:wiostrea.obj
 0001:00085550       ?setstate@?$basic_ios@GU?$char_traits@G@std@@@std@@QAEXH_N@Z 00486550 f i libcpmtd:wiostrea.obj
 0001:00085580       ?tie@?$basic_ios@GU?$char_traits@G@std@@@std@@QAEPAV?$basic_ostream@GU?$char_traits@G@std@@@2@PAV32@@Z 00486580 f i libcpmtd:wiostrea.obj
 0001:000855b0       ?rdbuf@?$basic_ios@GU?$char_traits@G@std@@@std@@QBEPAV?$basic_streambuf@GU?$char_traits@G@std@@@2@XZ 004865b0 f i libcpmtd:wiostrea.obj
 0001:000855d0       ??0?$basic_istream@GU?$char_traits@G@std@@@std@@QAE@PAV?$basic_streambuf@GU?$char_traits@G@std@@@1@_N@Z 004865d0 f i libcpmtd:wiostrea.obj
 0001:00085670       ??0?$basic_istream@GU?$char_traits@G@std@@@std@@QAE@W4_Uninitialized@1@@Z 00486670 f i libcpmtd:wiostrea.obj
 0001:00085700       ??1?$basic_istream@GU?$char_traits@G@std@@@std@@UAE@XZ 00486700 f i libcpmtd:wiostrea.obj
 0001:00085720       ??0?$basic_filebuf@GU?$char_traits@G@std@@@std@@QAE@PAU_iobuf@@@Z 00486720 f i libcpmtd:wiostrea.obj
 0001:00085790       ??1?$basic_streambuf@GU?$char_traits@G@std@@@std@@UAE@XZ 00486790 f i libcpmtd:wiostrea.obj
 0001:000857b0       ?overflow@?$basic_streambuf@GU?$char_traits@G@std@@@std@@MAEGG@Z 004867b0 f i libcpmtd:wiostrea.obj
 0001:000857d0       ?eof@?$char_traits@G@std@@SAGXZ 004867d0 f i libcpmtd:wiostrea.obj
 0001:000857e0       ?pbackfail@?$basic_streambuf@GU?$char_traits@G@std@@@std@@MAEGG@Z 004867e0 f i libcpmtd:wiostrea.obj
 0001:00085800       ?showmanyc@?$basic_streambuf@GU?$char_traits@G@std@@@std@@MAEHXZ 00486800 f i libcpmtd:wiostrea.obj
 0001:00085810       ?underflow@?$basic_streambuf@GU?$char_traits@G@std@@@std@@MAEGXZ 00486810 f i libcpmtd:wiostrea.obj
 0001:00085820       ?uflow@?$basic_streambuf@GU?$char_traits@G@std@@@std@@MAEGXZ 00486820 f i libcpmtd:wiostrea.obj
 0001:00085890       ?to_int_type@?$char_traits@G@std@@SAGABG@Z 00486890 f i libcpmtd:wiostrea.obj
 0001:000858a0       ?eq_int_type@?$char_traits@G@std@@SA_NABG0@Z 004868a0 f i libcpmtd:wiostrea.obj
 0001:000858c0       ?xsgetn@?$basic_streambuf@GU?$char_traits@G@std@@@std@@MAEHPAGH@Z 004868c0 f i libcpmtd:wiostrea.obj
 0001:000859d0       ?copy@?$char_traits@G@std@@SAPAGPAGPBGI@Z 004869d0 f i libcpmtd:wiostrea.obj
 0001:000859f0       _wmemcpy                   004869f0 f i libcpmtd:wiostrea.obj
 0001:00085a40       ?to_char_type@?$char_traits@G@std@@SAGABG@Z 00486a40 f i libcpmtd:wiostrea.obj
 0001:00085a50       ?xsputn@?$basic_streambuf@GU?$char_traits@G@std@@@std@@MAEHPBGH@Z 00486a50 f i libcpmtd:wiostrea.obj
 0001:00085b60       ?seekoff@?$basic_streambuf@GU?$char_traits@G@std@@@std@@MAE?AV?$fpos@H@2@JW4seekdir@ios_base@2@H@Z 00486b60 f i libcpmtd:wiostrea.obj
 0001:00085b90       ?seekpos@?$basic_streambuf@GU?$char_traits@G@std@@@std@@MAE?AV?$fpos@H@2@V32@H@Z 00486b90 f i libcpmtd:wiostrea.obj
 0001:00085bc0       ?setbuf@?$basic_streambuf@GU?$char_traits@G@std@@@std@@MAEPAV12@PAGH@Z 00486bc0 f i libcpmtd:wiostrea.obj
 0001:00085bd0       ?sync@?$basic_streambuf@GU?$char_traits@G@std@@@std@@MAEHXZ 00486bd0 f i libcpmtd:wiostrea.obj
 0001:00085be0       ?imbue@?$basic_streambuf@GU?$char_traits@G@std@@@std@@MAEXABVlocale@2@@Z 00486be0 f i libcpmtd:wiostrea.obj
 0001:00085bf0       ??0?$basic_filebuf@GU?$char_traits@G@std@@@std@@QAE@W4_Uninitialized@1@@Z 00486bf0 f i libcpmtd:wiostrea.obj
 0001:00085c50       ??1?$basic_filebuf@GU?$char_traits@G@std@@@std@@UAE@XZ 00486c50 f i libcpmtd:wiostrea.obj
 0001:00085cf0       ?overflow@?$basic_filebuf@GU?$char_traits@G@std@@@std@@MAEGG@Z 00486cf0 f i libcpmtd:wiostrea.obj
 0001:00085f10       ?not_eof@?$char_traits@G@std@@SAGABG@Z 00486f10 f i libcpmtd:wiostrea.obj
 0001:00085f60       ?out@?$codecvt@GDH@std@@QBEHAAHPBG1AAPBGPAD3AAPAD@Z 00486f60 f i libcpmtd:wiostrea.obj
 0001:00085fa0       ?_Fputc@std@@YA_NGPAU_iobuf@@@Z 00486fa0 f i libcpmtd:wiostrea.obj
 0001:00085fd0       ?pbackfail@?$basic_filebuf@GU?$char_traits@G@std@@@std@@MAEGG@Z 00486fd0 f i libcpmtd:wiostrea.obj
 0001:00086160       ?_Ungetc@std@@YA_NGPAU_iobuf@@@Z 00487160 f i libcpmtd:wiostrea.obj
 0001:00086190       ?underflow@?$basic_filebuf@GU?$char_traits@G@std@@@std@@MAEGXZ 00487190 f i libcpmtd:wiostrea.obj
 0001:000861f0       ?uflow@?$basic_filebuf@GU?$char_traits@G@std@@@std@@MAEGXZ 004871f0 f i libcpmtd:wiostrea.obj
 0001:00086390       ?in@?$codecvt@GDH@std@@QBEHAAHPBD1AAPBDPAG3AAPAG@Z 00487390 f i libcpmtd:wiostrea.obj
 0001:000863d0       ?_Fgetc@std@@YA_NAAGPAU_iobuf@@@Z 004873d0 f i libcpmtd:wiostrea.obj
 0001:00086410       ?seekoff@?$basic_filebuf@GU?$char_traits@G@std@@@std@@MAE?AV?$fpos@H@2@JW4seekdir@ios_base@2@H@Z 00487410 f i libcpmtd:wiostrea.obj
 0001:000864a0       ?seekpos@?$basic_filebuf@GU?$char_traits@G@std@@@std@@MAE?AV?$fpos@H@2@V32@H@Z 004874a0 f i libcpmtd:wiostrea.obj
 0001:000865a0       ?setbuf@?$basic_filebuf@GU?$char_traits@G@std@@@std@@MAEPAV?$basic_streambuf@GU?$char_traits@G@std@@@2@PAGH@Z 004875a0 f i libcpmtd:wiostrea.obj
 0001:000865f0       ?sync@?$basic_filebuf@GU?$char_traits@G@std@@@std@@MAEHXZ 004875f0 f i libcpmtd:wiostrea.obj
 0001:00086630       ??_G?$basic_ostream@GU?$char_traits@G@std@@@std@@UAEPAXI@Z 00487630 f i libcpmtd:wiostrea.obj
 0001:00086630       ??_E?$basic_ostream@GU?$char_traits@G@std@@@std@@UAEPAXI@Z 00487630 f i libcpmtd:wiostrea.obj
 0001:00086670       ??_E?$basic_ios@GU?$char_traits@G@std@@@std@@UAEPAXI@Z 00487670 f i libcpmtd:wiostrea.obj
 0001:00086670       ??_G?$basic_ios@GU?$char_traits@G@std@@@std@@UAEPAXI@Z 00487670 f i libcpmtd:wiostrea.obj
 0001:000866a0       ??_G?$basic_istream@GU?$char_traits@G@std@@@std@@UAEPAXI@Z 004876a0 f i libcpmtd:wiostrea.obj
 0001:000866a0       ??_E?$basic_istream@GU?$char_traits@G@std@@@std@@UAEPAXI@Z 004876a0 f i libcpmtd:wiostrea.obj
 0001:000866e0       ??_E?$basic_streambuf@GU?$char_traits@G@std@@@std@@UAEPAXI@Z 004876e0 f i libcpmtd:wiostrea.obj
 0001:000866e0       ??_G?$basic_streambuf@GU?$char_traits@G@std@@@std@@UAEPAXI@Z 004876e0 f i libcpmtd:wiostrea.obj
 0001:00086710       ??_E?$basic_filebuf@GU?$char_traits@G@std@@@std@@UAEPAXI@Z 00487710 f i libcpmtd:wiostrea.obj
 0001:00086710       ??_G?$basic_filebuf@GU?$char_traits@G@std@@@std@@UAEPAXI@Z 00487710 f i libcpmtd:wiostrea.obj
 0001:00086740       ?clear@?$basic_ios@GU?$char_traits@G@std@@@std@@QAEXH_N@Z 00487740 f i libcpmtd:wiostrea.obj
 0001:00086780       ?init@?$basic_ios@GU?$char_traits@G@std@@@std@@IAEXPAV?$basic_streambuf@GU?$char_traits@G@std@@@2@_N@Z 00487780 f i libcpmtd:wiostrea.obj
 0001:000867f0       ?_Widen@std@@YAGDPAG@Z     004877f0 f i libcpmtd:wiostrea.obj
 0001:00086810       ??0?$basic_ios@GU?$char_traits@G@std@@@std@@IAE@XZ 00487810 f i libcpmtd:wiostrea.obj
 0001:00086830       ??0?$basic_streambuf@GU?$char_traits@G@std@@@std@@IAE@XZ 00487830 f i libcpmtd:wiostrea.obj
 0001:00086890       ??0?$basic_streambuf@GU?$char_traits@G@std@@@std@@IAE@W4_Uninitialized@1@@Z 00487890 f i libcpmtd:wiostrea.obj
 0001:000868c0       ?pubsync@?$basic_streambuf@GU?$char_traits@G@std@@@std@@QAEHXZ 004878c0 f i libcpmtd:wiostrea.obj
 0001:000868e0       ?eback@?$basic_streambuf@GU?$char_traits@G@std@@@std@@IBEPAGXZ 004878e0 f i libcpmtd:wiostrea.obj
 0001:00086900       ?gptr@?$basic_streambuf@GU?$char_traits@G@std@@@std@@IBEPAGXZ 00487900 f i libcpmtd:wiostrea.obj
 0001:00086920       ?pptr@?$basic_streambuf@GU?$char_traits@G@std@@@std@@IBEPAGXZ 00487920 f i libcpmtd:wiostrea.obj
 0001:00086940       ?egptr@?$basic_streambuf@GU?$char_traits@G@std@@@std@@IBEPAGXZ 00487940 f i libcpmtd:wiostrea.obj
 0001:00086960       ?gbump@?$basic_streambuf@GU?$char_traits@G@std@@@std@@IAEXH@Z 00487960 f i libcpmtd:wiostrea.obj
 0001:000869a0       ?epptr@?$basic_streambuf@GU?$char_traits@G@std@@@std@@IBEPAGXZ 004879a0 f i libcpmtd:wiostrea.obj
 0001:000869c0       ?_Gndec@?$basic_streambuf@GU?$char_traits@G@std@@@std@@IAEPAGXZ 004879c0 f i libcpmtd:wiostrea.obj
 0001:00086a00       ?_Gninc@?$basic_streambuf@GU?$char_traits@G@std@@@std@@IAEPAGXZ 00487a00 f i libcpmtd:wiostrea.obj
 0001:00086a40       ?pbump@?$basic_streambuf@GU?$char_traits@G@std@@@std@@IAEXH@Z 00487a40 f i libcpmtd:wiostrea.obj
 0001:00086a80       ?_Pninc@?$basic_streambuf@GU?$char_traits@G@std@@@std@@IAEPAGXZ 00487a80 f i libcpmtd:wiostrea.obj
 0001:00086ac0       ?close@?$basic_filebuf@GU?$char_traits@G@std@@@std@@QAEPAV12@XZ 00487ac0 f i libcpmtd:wiostrea.obj
 0001:00086b00       ?_Init@?$basic_filebuf@GU?$char_traits@G@std@@@std@@IAEXPAU_iobuf@@W4_Initfl@12@@Z 00487b00 f i libcpmtd:wiostrea.obj
 0001:00086be0       ?_Init@?$basic_streambuf@GU?$char_traits@G@std@@@std@@IAEXXZ 00487be0 f i libcpmtd:wiostrea.obj
 0001:00086c50       ?_Init@?$basic_streambuf@GU?$char_traits@G@std@@@std@@IAEXPAPAG0PAH001@Z 00487c50 f i libcpmtd:wiostrea.obj
 0001:00086ca0       ?setg@?$basic_streambuf@GU?$char_traits@G@std@@@std@@IAEXPAG00@Z 00487ca0 f i libcpmtd:wiostrea.obj
 0001:00086ce0       ?setp@?$basic_streambuf@GU?$char_traits@G@std@@@std@@IAEXPAG0@Z 00487ce0 f i libcpmtd:wiostrea.obj
 0001:00086d80       ?clear@ios_base@std@@QAEXH_N@Z 00487d80 f   libcpmtd:ios.obj
 0001:00086e60       ??0runtime_error@std@@QAE@ABV01@@Z 00487e60 f i libcpmtd:ios.obj
 0001:00086ed0       ?what@runtime_error@std@@UBEPBDXZ 00487ed0 f i libcpmtd:ios.obj
 0001:00086ef0       ?_Doraise@runtime_error@std@@MBEXXZ 00487ef0 f i libcpmtd:ios.obj
 0001:00086f20       ??1runtime_error@std@@UAE@XZ 00487f20 f i libcpmtd:ios.obj
 0001:00086f80       ??_Eruntime_error@std@@UAEPAXI@Z 00487f80 f i libcpmtd:ios.obj
 0001:00086f80       ??_Gruntime_error@std@@UAEPAXI@Z 00487f80 f i libcpmtd:ios.obj
 0001:00086fb0       ??0failure@ios_base@std@@QAE@ABV?$basic_string@DU?$char_traits@D@std@@V?$allocator@D@2@@2@@Z 00487fb0 f i libcpmtd:ios.obj
 0001:00086fe0       ??0runtime_error@std@@QAE@ABV?$basic_string@DU?$char_traits@D@std@@V?$allocator@D@2@@1@@Z 00487fe0 f i libcpmtd:ios.obj
 0001:00087050       ??1failure@ios_base@std@@UAE@XZ 00488050 f i libcpmtd:ios.obj
 0001:00087070       ?_Doraise@failure@ios_base@std@@MBEXXZ 00488070 f i libcpmtd:ios.obj
 0001:000870a0       ??_Efailure@ios_base@std@@UAEPAXI@Z 004880a0 f i libcpmtd:ios.obj
 0001:000870a0       ??_Gfailure@ios_base@std@@UAEPAXI@Z 004880a0 f i libcpmtd:ios.obj
 0001:000870d0       ??0failure@ios_base@std@@QAE@ABV012@@Z 004880d0 f i libcpmtd:ios.obj
 0001:00087100       ?copyfmt@ios_base@std@@QAEAAV12@ABV12@@Z 00488100 f   libcpmtd:ios.obj
 0001:000871e0       ?exceptions@ios_base@std@@QAEXH@Z 004881e0 f i libcpmtd:ios.obj
 0001:00087210       ?iword@ios_base@std@@QAEAAJH@Z 00488210 f i libcpmtd:ios.obj
 0001:00087230       ?pword@ios_base@std@@QAEAAPAXH@Z 00488230 f i libcpmtd:ios.obj
 0001:00087250       ?imbue@ios_base@std@@QAE?AVlocale@2@ABV32@@Z 00488250 f   libcpmtd:ios.obj
 0001:000872e0       ?register_callback@ios_base@std@@QAEXP6AXW4event@12@AAV12@H@ZH@Z 004882e0 f   libcpmtd:ios.obj
 0001:00087370       ??0_Fnarray@ios_base@std@@QAE@HP6AXW4event@12@AAV12@H@ZPAU012@@Z 00488370 f i libcpmtd:ios.obj
 0001:000873a0       ??1ios_base@std@@UAE@XZ    004883a0 f   libcpmtd:ios.obj
 0001:00087430       ?_Callfns@ios_base@std@@AAEXW4event@12@@Z 00488430 f   libcpmtd:ios.obj
 0001:00087480       ?_Findarr@ios_base@std@@AAEAAU_Iosarray@12@H@Z 00488480 f   libcpmtd:ios.obj
 0001:000875b0       ??0_Iosarray@ios_base@std@@QAE@HPAU012@@Z 004885b0 f i libcpmtd:ios.obj
 0001:000875f0       ?_Addstd@ios_base@std@@IAEXXZ 004885f0 f   libcpmtd:ios.obj
 0001:00087680       ?_Init@ios_base@std@@IAEXXZ 00488680 f   libcpmtd:ios.obj
 0001:00087710       ?_Tidy@ios_base@std@@AAEXXZ 00488710 f   libcpmtd:ios.obj
 0001:000877b0       ?uncaught_exception@std@@YA_NXZ 004887b0 f   libcpmtd:uncaught.obj
 0001:000877c0       ??3@YAXPAX@Z               004887c0 f   libcpmtd:delop.obj
 0001:000877e0       ??0_Lockit@std@@QAE@XZ     004887e0 f   libcpmtd:xlock.obj
 0001:000878c0       ??1_Lockit@std@@QAE@XZ     004888c0 f   libcpmtd:xlock.obj
 0001:000878e0       ?_Xlen@std@@YAXXZ          004888e0 f   libcpmtd:string.obj
 0001:00087940       ??0logic_error@std@@QAE@ABV01@@Z 00488940 f i libcpmtd:string.obj
 0001:000879b0       ?what@logic_error@std@@UBEPBDXZ 004889b0 f i libcpmtd:string.obj
 0001:000879d0       ?_Doraise@logic_error@std@@MBEXXZ 004889d0 f i libcpmtd:string.obj
 0001:00087a00       ??1logic_error@std@@UAE@XZ 00488a00 f i libcpmtd:string.obj
 0001:00087a60       ??_Glogic_error@std@@UAEPAXI@Z 00488a60 f i libcpmtd:string.obj
 0001:00087a60       ??_Elogic_error@std@@UAEPAXI@Z 00488a60 f i libcpmtd:string.obj
 0001:00087a90       ??0length_error@std@@QAE@ABV?$basic_string@DU?$char_traits@D@std@@V?$allocator@D@2@@1@@Z 00488a90 f i libcpmtd:string.obj
 0001:00087ac0       ??0logic_error@std@@QAE@ABV?$basic_string@DU?$char_traits@D@std@@V?$allocator@D@2@@1@@Z 00488ac0 f i libcpmtd:string.obj
 0001:00087b30       ??1length_error@std@@UAE@XZ 00488b30 f i libcpmtd:string.obj
 0001:00087b50       ?_Doraise@length_error@std@@MBEXXZ 00488b50 f i libcpmtd:string.obj
 0001:00087b80       ??_Elength_error@std@@UAEPAXI@Z 00488b80 f i libcpmtd:string.obj
 0001:00087b80       ??_Glength_error@std@@UAEPAXI@Z 00488b80 f i libcpmtd:string.obj
 0001:00087bb0       ??0length_error@std@@QAE@ABV01@@Z 00488bb0 f i libcpmtd:string.obj
 0001:00087be0       ?_Xran@std@@YAXXZ          00488be0 f   libcpmtd:string.obj
 0001:00087c40       ??0out_of_range@std@@QAE@ABV?$basic_string@DU?$char_traits@D@std@@V?$allocator@D@2@@1@@Z 00488c40 f i libcpmtd:string.obj
 0001:00087c70       ??1out_of_range@std@@UAE@XZ 00488c70 f i libcpmtd:string.obj
 0001:00087c90       ?_Doraise@out_of_range@std@@MBEXXZ 00488c90 f i libcpmtd:string.obj
 0001:00087cc0       ??_Eout_of_range@std@@UAEPAXI@Z 00488cc0 f i libcpmtd:string.obj
 0001:00087cc0       ??_Gout_of_range@std@@UAEPAXI@Z 00488cc0 f i libcpmtd:string.obj
 0001:00087cf0       ??0out_of_range@std@@QAE@ABV01@@Z 00488cf0 f i libcpmtd:string.obj
 0001:00087de0       ?classic@locale@std@@SAABV12@XZ 00488de0 f   libcpmtd:locale0.obj
 0001:00087e10       ?empty@locale@std@@SA?AV12@XZ 00488e10 f   libcpmtd:locale0.obj
 0001:00087ea0       ??0locale@std@@AAE@PAV_Locimp@01@@Z 00488ea0 f i libcpmtd:locale0.obj
 0001:00087ec0       ?_Getfacet@locale@std@@QBEPBVfacet@12@I_N@Z 00488ec0 f   libcpmtd:locale0.obj
 0001:00087f70       ?_Iscloc@locale@std@@QBE_NXZ 00488f70 f   libcpmtd:locale0.obj
 0001:00087fd0       ??8locale@std@@QBE_NABV01@@Z 00488fd0 f   libcpmtd:locale0.obj
 0001:000880f0       ?name@locale@std@@QBE?AV?$basic_string@DU?$char_traits@D@std@@V?$allocator@D@2@@2@XZ 004890f0 f i libcpmtd:locale0.obj
 0001:00088130       ?_Init@locale@std@@CAPAV_Locimp@12@XZ 00489130 f   libcpmtd:locale0.obj
 0001:00088260       ?_Tidy@locale@std@@CAXXZ   00489260 f   libcpmtd:locale0.obj
 0001:000882f0       ??0_Locimp@locale@std@@AAE@_N@Z 004892f0 f   libcpmtd:locale0.obj
 0001:00088380       ??_G_Locimp@locale@std@@UAEPAXI@Z 00489380 f i libcpmtd:locale0.obj
 0001:00088380       ??_E_Locimp@locale@std@@UAEPAXI@Z 00489380 f i libcpmtd:locale0.obj
 0001:000883b0       ??1_Locimp@locale@std@@UAE@XZ 004893b0 f   libcpmtd:locale0.obj
 0001:000884a0       ??4?$basic_string@DU?$char_traits@D@std@@V?$allocator@D@2@@std@@QAEAAV01@PBD@Z 004894a0 f i libcpmtd:locale0.obj
 0001:000884c0       ?compare@?$basic_string@DU?$char_traits@D@std@@V?$allocator@D@2@@std@@QBEHABV12@@Z 004894c0 f i libcpmtd:locale0.obj
 0001:000884f0       ?compare@?$basic_string@DU?$char_traits@D@std@@V?$allocator@D@2@@std@@QBEHPBD@Z 004894f0 f i libcpmtd:locale0.obj
 0001:00088520       ?compare@?$basic_string@DU?$char_traits@D@std@@V?$allocator@D@2@@std@@QBEHIIPBDI@Z 00489520 f i libcpmtd:locale0.obj
 0001:000885d0       ?compare@?$char_traits@D@std@@SAHPBD0I@Z 004895d0 f i libcpmtd:locale0.obj
 0001:00088650       ?__Fiopen@std@@YAPAU_iobuf@@PBDH@Z 00489650 f   libcpmtd:fiopen.obj
 0001:00088760       ??0locale@std@@QAE@ABV01@0H@Z 00489760 f   libcpmtd:locale.obj
 0001:00088850       ??0locale@std@@QAE@PBDH@Z  00489850 f   libcpmtd:locale.obj
 0001:000889c0       ?_Getname@_Locinfo@std@@QBE?AV?$basic_string@DU?$char_traits@D@std@@V?$allocator@D@2@@2@XZ 004899c0 f i libcpmtd:locale.obj
 0001:00088a00       ??0locale@std@@QAE@ABV01@PBDH@Z 00489a00 f   libcpmtd:locale.obj
 0001:00088b90       ?_Addfac@locale@std@@QAEAAV12@PAVfacet@12@II@Z 00489b90 f   libcpmtd:locale.obj
 0001:00088c50       ?global@locale@std@@SA?AV12@ABV12@@Z 00489c50 f   libcpmtd:locale.obj
 0001:00088dd0       ?_Makeloc@_Locimp@locale@std@@CAPAV123@ABV_Locinfo@3@HPAV123@PBV23@@Z 00489dd0 f   libcpmtd:locale.obj
 0001:00089190       ??0?$ctype@D@std@@QAE@ABV_Locinfo@1@I@Z 0048a190 f i libcpmtd:locale.obj
 0001:000891f0       ?_Getcat@?$ctype@D@std@@SAIXZ 0048a1f0 f i libcpmtd:locale.obj
 0001:00089200       ??0_Locimp@locale@std@@AAE@ABV012@@Z 0048a200 f   libcpmtd:locale.obj
 0001:00089390       ?_Addfac@_Locimp@locale@std@@AAEXPAVfacet@23@I@Z 0048a390 f   libcpmtd:locale.obj
 0001:000894c0       ??0_Locinfo@std@@QAE@PBD@Z 0048a4c0 f   libcpmtd:locale.obj
 0001:000895a0       ??0_Locinfo@std@@QAE@HPBD@Z 0048a5a0 f   libcpmtd:locale.obj
 0001:00089640       ??1_Locinfo@std@@QAE@XZ    0048a640 f   libcpmtd:locale.obj
 0001:000896e0       ?_Addcats@_Locinfo@std@@QAEAAV12@HPBD@Z 0048a6e0 f   libcpmtd:locale.obj
 0001:00089790       ??0?$codecvt@DDH@std@@QAE@ABV_Locinfo@1@I@Z 0048a790 f i libcpmtd:locale.obj
 0001:000897f0       ?_Getcat@?$num_get@DV?$istreambuf_iterator@DU?$char_traits@D@std@@@std@@@std@@SAIXZ 0048a7f0 f i libcpmtd:locale.obj
 0001:00089800       ??0?$num_get@DV?$istreambuf_iterator@DU?$char_traits@D@std@@@std@@@std@@QAE@ABV_Locinfo@1@I@Z 0048a800 f i libcpmtd:locale.obj
 0001:00089860       ?do_get@?$num_get@DV?$istreambuf_iterator@DU?$char_traits@D@std@@@std@@@std@@MBE?AV?$istreambuf_iterator@DU?$char_traits@D@std@@@2@V32@0AAVios_base@2@AAHAA_N@Z 0048a860 f i libcpmtd:locale.obj
 0001:00089ab0       ?do_get@?$num_get@DV?$istreambuf_iterator@DU?$char_traits@D@std@@@std@@@std@@MBE?AV?$istreambuf_iterator@DU?$char_traits@D@std@@@2@V32@0AAVios_base@2@AAHAAG@Z 0048aab0 f i libcpmtd:locale.obj
 0001:00089bf0       ?do_get@?$num_get@DV?$istreambuf_iterator@DU?$char_traits@D@std@@@std@@@std@@MBE?AV?$istreambuf_iterator@DU?$char_traits@D@std@@@2@V32@0AAVios_base@2@AAHAAI@Z 0048abf0 f i libcpmtd:locale.obj
 0001:00089d30       ?do_get@?$num_get@DV?$istreambuf_iterator@DU?$char_traits@D@std@@@std@@@std@@MBE?AV?$istreambuf_iterator@DU?$char_traits@D@std@@@2@V32@0AAVios_base@2@AAHAAJ@Z 0048ad30 f i libcpmtd:locale.obj
 0001:00089e30       ?do_get@?$num_get@DV?$istreambuf_iterator@DU?$char_traits@D@std@@@std@@@std@@MBE?AV?$istreambuf_iterator@DU?$char_traits@D@std@@@2@V32@0AAVios_base@2@AAHAAK@Z 0048ae30 f i libcpmtd:locale.obj
 0001:00089f30       ?do_get@?$num_get@DV?$istreambuf_iterator@DU?$char_traits@D@std@@@std@@@std@@MBE?AV?$istreambuf_iterator@DU?$char_traits@D@std@@@2@V32@0AAVios_base@2@AAHAAM@Z 0048af30 f i libcpmtd:locale.obj
 0001:0008a030       ?do_get@?$num_get@DV?$istreambuf_iterator@DU?$char_traits@D@std@@@std@@@std@@MBE?AV?$istreambuf_iterator@DU?$char_traits@D@std@@@2@V32@0AAVios_base@2@AAHAAN@Z 0048b030 f i libcpmtd:locale.obj
 0001:0008a130       ?do_get@?$num_get@DV?$istreambuf_iterator@DU?$char_traits@D@std@@@std@@@std@@MBE?AV?$istreambuf_iterator@DU?$char_traits@D@std@@@2@V32@0AAVios_base@2@AAHAAO@Z 0048b130 f i libcpmtd:locale.obj
 0001:0008a230       ?do_get@?$num_get@DV?$istreambuf_iterator@DU?$char_traits@D@std@@@std@@@std@@MBE?AV?$istreambuf_iterator@DU?$char_traits@D@std@@@2@V32@0AAVios_base@2@AAHAAPAX@Z 0048b230 f i libcpmtd:locale.obj
 0001:0008a3b0       ?_Getcat@?$num_put@DV?$ostreambuf_iterator@DU?$char_traits@D@std@@@std@@@std@@SAIXZ 0048b3b0 f i libcpmtd:locale.obj
 0001:0008a3c0       ??0?$num_put@DV?$ostreambuf_iterator@DU?$char_traits@D@std@@@std@@@std@@QAE@ABV_Locinfo@1@I@Z 0048b3c0 f i libcpmtd:locale.obj
 0001:0008a420       ??0?$numpunct@D@std@@QAE@ABV_Locinfo@1@I@Z 0048b420 f i libcpmtd:locale.obj
 0001:0008a480       ?_Getcat@?$numpunct@D@std@@SAIXZ 0048b480 f i libcpmtd:locale.obj
 0001:0008a490       ??_G?$num_get@DV?$istreambuf_iterator@DU?$char_traits@D@std@@@std@@@std@@UAEPAXI@Z 0048b490 f i libcpmtd:locale.obj
 0001:0008a490       ??_E?$num_get@DV?$istreambuf_iterator@DU?$char_traits@D@std@@@std@@@std@@UAEPAXI@Z 0048b490 f i libcpmtd:locale.obj
 0001:0008a4c0       ??1?$num_get@DV?$istreambuf_iterator@DU?$char_traits@D@std@@@std@@@std@@UAE@XZ 0048b4c0 f i libcpmtd:locale.obj
 0001:0008a4e0       ??0?$basic_string@DU?$char_traits@D@std@@V?$allocator@D@2@@std@@QAE@IDABV?$allocator@D@1@@Z 0048b4e0 f i libcpmtd:locale.obj
 0001:0008a520       ??Y?$basic_string@DU?$char_traits@D@std@@V?$allocator@D@2@@std@@QAEAAV01@ABV01@@Z 0048b520 f i libcpmtd:locale.obj
 0001:0008a540       ??Y?$basic_string@DU?$char_traits@D@std@@V?$allocator@D@2@@std@@QAEAAV01@D@Z 0048b540 f i libcpmtd:locale.obj
 0001:0008a560       ?_Init@?$num_get@DV?$istreambuf_iterator@DU?$char_traits@D@std@@@std@@@std@@IAEXABV_Locinfo@2@@Z 0048b560 f i libcpmtd:locale.obj
 0001:0008a570       ?_Getifld@?$num_get@DV?$istreambuf_iterator@DU?$char_traits@D@std@@@std@@@std@@CAHPADAAV?$istreambuf_iterator@DU?$char_traits@D@std@@@2@1HABVlocale@2@@Z 0048b570 f i libcpmtd:locale.obj
 0001:0008aa10       ?_Getffld@?$num_get@DV?$istreambuf_iterator@DU?$char_traits@D@std@@@std@@@std@@CAHPADAAV?$istreambuf_iterator@DU?$char_traits@D@std@@@2@1ABVlocale@2@@Z 0048ba10 f i libcpmtd:locale.obj
 0001:0008aef0       ??D?$istreambuf_iterator@DU?$char_traits@D@std@@@std@@QBEABDXZ 0048bef0 f i libcpmtd:locale.obj
 0001:0008af20       ??E?$istreambuf_iterator@DU?$char_traits@D@std@@@std@@QAEAAV01@XZ 0048bf20 f i libcpmtd:locale.obj
 0001:0008af40       ?append@?$basic_string@DU?$char_traits@D@std@@V?$allocator@D@2@@std@@QAEAAV12@ABV12@@Z 0048bf40 f i libcpmtd:locale.obj
 0001:0008af70       ?assign@?$basic_string@DU?$char_traits@D@std@@V?$allocator@D@2@@std@@QAEAAV12@ID@Z 0048bf70 f i libcpmtd:locale.obj
 0001:0008afd0       ??A?$basic_string@DU?$char_traits@D@std@@V?$allocator@D@2@@std@@QAEAADI@Z 0048bfd0 f i libcpmtd:locale.obj
 0001:0008b010       ?_Inc@?$istreambuf_iterator@DU?$char_traits@D@std@@@std@@AAEXXZ 0048c010 f i libcpmtd:locale.obj
 0001:0008b070       ?_Peek@?$istreambuf_iterator@DU?$char_traits@D@std@@@std@@AAEDXZ 0048c070 f i libcpmtd:locale.obj
 0001:0008b0e0       ?append@?$basic_string@DU?$char_traits@D@std@@V?$allocator@D@2@@std@@QAEAAV12@ABV12@II@Z 0048c0e0 f i libcpmtd:locale.obj
 0001:0008b190       ?use_facet@std@@YAABV?$num_get@DV?$istreambuf_iterator@DU?$char_traits@D@std@@@std@@@1@ABVlocale@1@PBV21@_N@Z 0048c190 f i libcpmtd:locale.obj
 0001:0008b2b0       ?_Getloctxt@std@@YAHAAV?$istreambuf_iterator@DU?$char_traits@D@std@@@1@0IPBD@Z 0048c2b0 f i libcpmtd:locale.obj
 0001:0008b4e0       ??8std@@YA_NABV?$istreambuf_iterator@DU?$char_traits@D@std@@@0@0@Z 0048c4e0 f i libcpmtd:locale.obj
 0001:0008b500       ??9std@@YA_NABV?$istreambuf_iterator@DU?$char_traits@D@std@@@0@0@Z 0048c500 f i libcpmtd:locale.obj
 0001:0008b520       ?_Narrow@std@@YAHD@Z       0048c520 f i libcpmtd:locale.obj
 0001:0008b530       ?isdigit@std@@YA_NDABVlocale@1@@Z 0048c530 f i libcpmtd:locale.obj
 0001:0008b560       ??0?$num_get@DV?$istreambuf_iterator@DU?$char_traits@D@std@@@std@@@std@@QAE@I@Z 0048c560 f i libcpmtd:locale.obj
 0001:0008b5f0       ?equal@?$istreambuf_iterator@DU?$char_traits@D@std@@@std@@QBE_NABV12@@Z 0048c5f0 f i libcpmtd:locale.obj
 0001:0008b660       ?_Save@?$_Tidyfac@V?$num_get@DV?$istreambuf_iterator@DU?$char_traits@D@std@@@std@@@std@@@std@@SAPAV?$num_get@DV?$istreambuf_iterator@DU?$char_traits@D@std@@@std@@@2@PAV32@@Z 0048c660 f i libcpmtd:locale.obj
 0001:0008b6d0       ?_Tidy@?$_Tidyfac@V?$num_get@DV?$istreambuf_iterator@DU?$char_traits@D@std@@@std@@@std@@@std@@SAXXZ 0048c6d0 f i libcpmtd:locale.obj
 0001:0008b7c0       __Wcrtomb                  0048c7c0 f   libcpmtd:xwctomb.obj
 0001:0008b840       ___Wcrtomb_lk              0048c840 f   libcpmtd:xwctomb.obj
 0001:0008b900       __Getcvt                   0048c900 f   libcpmtd:xwctomb.obj
 0001:0008b980       _wcrtomb                   0048c980 f   libcpmtd:xwctomb.obj
 0001:0008b9c0       _wcsrtombs                 0048c9c0 f   libcpmtd:xwctomb.obj
 0001:0008bbc0       _wctob                     0048cbc0 f   libcpmtd:xwctomb.obj
 0001:0008bc10       __Tolower                  0048cc10 f   libcpmtd:_tolower.obj
 0001:0008bcc0       __Tolower_lk               0048ccc0 f   libcpmtd:_tolower.obj
 0001:0008be20       __Getctype                 0048ce20 f   libcpmtd:_tolower.obj
 0001:0008bf00       __Toupper                  0048cf00 f   libcpmtd:_toupper.obj
 0001:0008bfb0       __Toupper_lk               0048cfb0 f   libcpmtd:_toupper.obj
 0001:0008c110       __Mbrtowc                  0048d110 f   libcpmtd:xmbtowc.obj
 0001:0008c3b0       _btowc                     0048d3b0 f   libcpmtd:xmbtowc.obj
 0001:0008c410       _mbrlen                    0048d410 f   libcpmtd:xmbtowc.obj
 0001:0008c4b0       _mbrtowc                   0048d4b0 f   libcpmtd:xmbtowc.obj
 0001:0008c590       _mbsrtowcs                 0048d590 f   libcpmtd:xmbtowc.obj
 0001:0008c720       ?_Nomemory@std@@YAXXZ      0048d720 f   libcpmtd:nomemory.obj
 0001:0008c780       ??0bad_alloc@std@@QAE@PBD@Z 0048d780 f i libcpmtd:nomemory.obj
 0001:0008c7b0       ??1bad_alloc@std@@UAE@XZ   0048d7b0 f i libcpmtd:nomemory.obj
 0001:0008c7d0       ?_Doraise@bad_alloc@std@@MBEXXZ 0048d7d0 f i libcpmtd:nomemory.obj
 0001:0008c800       ??_Gbad_alloc@std@@UAEPAXI@Z 0048d800 f i libcpmtd:nomemory.obj
 0001:0008c800       ??_Ebad_alloc@std@@UAEPAXI@Z 0048d800 f i libcpmtd:nomemory.obj
 0001:0008c830       ??0bad_alloc@std@@QAE@ABV01@@Z 0048d830 f i libcpmtd:nomemory.obj
 0001:0008c870       ?_Makewloc@_Locimp@locale@std@@CAXABV_Locinfo@3@HPAV123@PBV23@@Z 0048d870 f   libcpmtd:wlocale.obj
 0001:0008d0f0       ??0?$codecvt@GDH@std@@QAE@ABV_Locinfo@1@I@Z 0048e0f0 f i libcpmtd:wlocale.obj
 0001:0008d150       ?_Getcat@?$codecvt@GDH@std@@SAIXZ 0048e150 f i libcpmtd:wlocale.obj
 0001:0008d160       ?_Init@?$codecvt@GDH@std@@IAEXABV_Locinfo@2@@Z 0048e160 f i libcpmtd:wlocale.obj
 0001:0008d190       ?do_in@?$codecvt@GDH@std@@MBEHAAHPBD1AAPBDPAG3AAPAG@Z 0048e190 f i libcpmtd:wlocale.obj
 0001:0008d280       ?do_out@?$codecvt@GDH@std@@MBEHAAHPBG1AAPBGPAD3AAPAD@Z 0048e280 f i libcpmtd:wlocale.obj
 0001:0008d3d0       ?do_length@?$codecvt@GDH@std@@MBEHAAHPBG1I@Z 0048e3d0 f i libcpmtd:wlocale.obj
 0001:0008d450       ?do_always_noconv@?$codecvt@GDH@std@@MBE_NXZ 0048e450 f i libcpmtd:wlocale.obj
 0001:0008d460       ?do_max_length@?$codecvt@GDH@std@@MBEHXZ 0048e460 f i libcpmtd:wlocale.obj
 0001:0008d470       ?do_encoding@?$codecvt@GDH@std@@MBEHXZ 0048e470 f i libcpmtd:wlocale.obj
 0001:0008d480       ??_E?$codecvt@GDH@std@@UAEPAXI@Z 0048e480 f i libcpmtd:wlocale.obj
 0001:0008d480       ??_G?$codecvt@GDH@std@@UAEPAXI@Z 0048e480 f i libcpmtd:wlocale.obj
 0001:0008d4b0       ??1?$codecvt@GDH@std@@UAE@XZ 0048e4b0 f i libcpmtd:wlocale.obj
 0001:0008d4d0       ??0?$ctype@G@std@@QAE@ABV_Locinfo@1@I@Z 0048e4d0 f i libcpmtd:wlocale.obj
 0001:0008d530       ?_Getcat@?$ctype@G@std@@SAIXZ 0048e530 f i libcpmtd:wlocale.obj
 0001:0008d540       ?do_is@?$ctype@G@std@@MBE_NFG@Z 0048e540 f i libcpmtd:wlocale.obj
 0001:0008d580       ?do_is@?$ctype@G@std@@MBEPBGPBG0PAF@Z 0048e580 f i libcpmtd:wlocale.obj
 0001:0008d5e0       ?do_scan_is@?$ctype@G@std@@MBEPBGFPBG0@Z 0048e5e0 f i libcpmtd:wlocale.obj
 0001:0008d630       ?is@?$ctype@G@std@@QBE_NFG@Z 0048e630 f i libcpmtd:wlocale.obj
 0001:0008d660       ?do_scan_not@?$ctype@G@std@@MBEPBGFPBG0@Z 0048e660 f i libcpmtd:wlocale.obj
 0001:0008d6b0       ?do_tolower@?$ctype@G@std@@MBEGG@Z 0048e6b0 f i libcpmtd:wlocale.obj
 0001:0008d6f0       ?do_tolower@?$ctype@G@std@@MBEPBGPAGPBG@Z 0048e6f0 f i libcpmtd:wlocale.obj
 0001:0008d740       ?do_toupper@?$ctype@G@std@@MBEGG@Z 0048e740 f i libcpmtd:wlocale.obj
 0001:0008d780       ?do_toupper@?$ctype@G@std@@MBEPBGPAGPBG@Z 0048e780 f i libcpmtd:wlocale.obj
 0001:0008d7d0       ?do_widen@?$ctype@G@std@@MBEGD@Z 0048e7d0 f i libcpmtd:wlocale.obj
 0001:0008d7f0       ?do_widen@?$ctype@G@std@@MBEPBDPBD0PAG@Z 0048e7f0 f i libcpmtd:wlocale.obj
 0001:0008d840       ?do_narrow@?$ctype@G@std@@MBEDGD@Z 0048e840 f i libcpmtd:wlocale.obj
 0001:0008d860       ?_Narrow@std@@YAHG@Z       0048e860 f i libcpmtd:wlocale.obj
 0001:0008d880       ?do_narrow@?$ctype@G@std@@MBEPBGPBG0DPAD@Z 0048e880 f i libcpmtd:wlocale.obj
 0001:0008d8d0       ??0?$time_put@GV?$ostreambuf_iterator@GU?$char_traits@G@std@@@std@@@std@@QAE@ABV_Locinfo@1@I@Z 0048e8d0 f i libcpmtd:wlocale.obj
 0001:0008d940       ??0_Timevec@std@@QAE@PAX@Z 0048e940 f i libcpmtd:wlocale.obj
 0001:0008d960       ??1_Timevec@std@@QAE@XZ    0048e960 f i libcpmtd:wlocale.obj
 0001:0008d980       ??0time_base@std@@QAE@I@Z  0048e980 f i libcpmtd:wlocale.obj
 0001:0008d9b0       ??_Gtime_base@std@@UAEPAXI@Z 0048e9b0 f i libcpmtd:wlocale.obj
 0001:0008d9b0       ??_Etime_base@std@@UAEPAXI@Z 0048e9b0 f i libcpmtd:wlocale.obj
 0001:0008d9e0       ??1time_base@std@@UAE@XZ   0048e9e0 f i libcpmtd:wlocale.obj
 0001:0008da00       ?_Getcat@?$time_put@GV?$ostreambuf_iterator@GU?$char_traits@G@std@@@std@@@std@@SAIXZ 0048ea00 f i libcpmtd:wlocale.obj
 0001:0008da10       ?do_put@?$time_put@GV?$ostreambuf_iterator@GU?$char_traits@G@std@@@std@@@std@@MBE?AV?$ostreambuf_iterator@GU?$char_traits@G@std@@@2@V32@AAVios_base@2@PBUtm@@DD@Z 0048ea10 f i libcpmtd:wlocale.obj
 0001:0008db50       ?_Getptr@_Timevec@std@@QBEPAXXZ 0048eb50 f i libcpmtd:wlocale.obj
 0001:0008db60       ?_Getcat@?$num_get@GV?$istreambuf_iterator@GU?$char_traits@G@std@@@std@@@std@@SAIXZ 0048eb60 f i libcpmtd:wlocale.obj
 0001:0008db70       ??0?$num_get@GV?$istreambuf_iterator@GU?$char_traits@G@std@@@std@@@std@@QAE@ABV_Locinfo@1@I@Z 0048eb70 f i libcpmtd:wlocale.obj
 0001:0008dbd0       ?do_get@?$num_get@GV?$istreambuf_iterator@GU?$char_traits@G@std@@@std@@@std@@MBE?AV?$istreambuf_iterator@GU?$char_traits@G@std@@@2@V32@0AAVios_base@2@AAHAA_N@Z 0048ebd0 f i libcpmtd:wlocale.obj
 0001:0008de20       ?do_get@?$num_get@GV?$istreambuf_iterator@GU?$char_traits@G@std@@@std@@@std@@MBE?AV?$istreambuf_iterator@GU?$char_traits@G@std@@@2@V32@0AAVios_base@2@AAHAAG@Z 0048ee20 f i libcpmtd:wlocale.obj
 0001:0008df60       ?do_get@?$num_get@GV?$istreambuf_iterator@GU?$char_traits@G@std@@@std@@@std@@MBE?AV?$istreambuf_iterator@GU?$char_traits@G@std@@@2@V32@0AAVios_base@2@AAHAAI@Z 0048ef60 f i libcpmtd:wlocale.obj
 0001:0008e0a0       ?do_get@?$num_get@GV?$istreambuf_iterator@GU?$char_traits@G@std@@@std@@@std@@MBE?AV?$istreambuf_iterator@GU?$char_traits@G@std@@@2@V32@0AAVios_base@2@AAHAAJ@Z 0048f0a0 f i libcpmtd:wlocale.obj
 0001:0008e1a0       ?do_get@?$num_get@GV?$istreambuf_iterator@GU?$char_traits@G@std@@@std@@@std@@MBE?AV?$istreambuf_iterator@GU?$char_traits@G@std@@@2@V32@0AAVios_base@2@AAHAAK@Z 0048f1a0 f i libcpmtd:wlocale.obj
 0001:0008e2a0       ?do_get@?$num_get@GV?$istreambuf_iterator@GU?$char_traits@G@std@@@std@@@std@@MBE?AV?$istreambuf_iterator@GU?$char_traits@G@std@@@2@V32@0AAVios_base@2@AAHAAM@Z 0048f2a0 f i libcpmtd:wlocale.obj
 0001:0008e3a0       ?do_get@?$num_get@GV?$istreambuf_iterator@GU?$char_traits@G@std@@@std@@@std@@MBE?AV?$istreambuf_iterator@GU?$char_traits@G@std@@@2@V32@0AAVios_base@2@AAHAAN@Z 0048f3a0 f i libcpmtd:wlocale.obj
 0001:0008e4a0       ?do_get@?$num_get@GV?$istreambuf_iterator@GU?$char_traits@G@std@@@std@@@std@@MBE?AV?$istreambuf_iterator@GU?$char_traits@G@std@@@2@V32@0AAVios_base@2@AAHAAO@Z 0048f4a0 f i libcpmtd:wlocale.obj
 0001:0008e5a0       ?do_get@?$num_get@GV?$istreambuf_iterator@GU?$char_traits@G@std@@@std@@@std@@MBE?AV?$istreambuf_iterator@GU?$char_traits@G@std@@@2@V32@0AAVios_base@2@AAHAAPAX@Z 0048f5a0 f i libcpmtd:wlocale.obj
 0001:0008e730       ?_Getcat@?$num_put@GV?$ostreambuf_iterator@GU?$char_traits@G@std@@@std@@@std@@SAIXZ 0048f730 f i libcpmtd:wlocale.obj
 0001:0008e740       ??0?$num_put@GV?$ostreambuf_iterator@GU?$char_traits@G@std@@@std@@@std@@QAE@ABV_Locinfo@1@I@Z 0048f740 f i libcpmtd:wlocale.obj
 0001:0008e7a0       ?do_put@?$num_put@GV?$ostreambuf_iterator@GU?$char_traits@G@std@@@std@@@std@@MBE?AV?$ostreambuf_iterator@GU?$char_traits@G@std@@@2@V32@AAVios_base@2@G_N@Z 0048f7a0 f i libcpmtd:wlocale.obj
 0001:0008e9e0       ?do_put@?$num_put@GV?$ostreambuf_iterator@GU?$char_traits@G@std@@@std@@@std@@MBE?AV?$ostreambuf_iterator@GU?$char_traits@G@std@@@2@V32@AAVios_base@2@GJ@Z 0048f9e0 f i libcpmtd:wlocale.obj
 0001:0008ea50       ?do_put@?$num_put@GV?$ostreambuf_iterator@GU?$char_traits@G@std@@@std@@@std@@MBE?AV?$ostreambuf_iterator@GU?$char_traits@G@std@@@2@V32@AAVios_base@2@GK@Z 0048fa50 f i libcpmtd:wlocale.obj
 0001:0008eac0       ?do_put@?$num_put@GV?$ostreambuf_iterator@GU?$char_traits@G@std@@@std@@@std@@MBE?AV?$ostreambuf_iterator@GU?$char_traits@G@std@@@2@V32@AAVios_base@2@GN@Z 0048fac0 f i libcpmtd:wlocale.obj
 0001:0008eb90       ?do_put@?$num_put@GV?$ostreambuf_iterator@GU?$char_traits@G@std@@@std@@@std@@MBE?AV?$ostreambuf_iterator@GU?$char_traits@G@std@@@2@V32@AAVios_base@2@GO@Z 0048fb90 f i libcpmtd:wlocale.obj
 0001:0008ec60       ?do_put@?$num_put@GV?$ostreambuf_iterator@GU?$char_traits@G@std@@@std@@@std@@MBE?AV?$ostreambuf_iterator@GU?$char_traits@G@std@@@2@V32@AAVios_base@2@GPBX@Z 0048fc60 f i libcpmtd:wlocale.obj
 0001:0008ed70       ??0?$numpunct@G@std@@QAE@ABV_Locinfo@1@I@Z 0048fd70 f i libcpmtd:wlocale.obj
 0001:0008edd0       ?_Getcat@?$numpunct@G@std@@SAIXZ 0048fdd0 f i libcpmtd:wlocale.obj
 0001:0008ede0       ?do_decimal_point@?$numpunct@G@std@@MBEGXZ 0048fde0 f i libcpmtd:wlocale.obj
 0001:0008ee00       ?do_thousands_sep@?$numpunct@G@std@@MBEGXZ 0048fe00 f i libcpmtd:wlocale.obj
 0001:0008ee20       ?do_grouping@?$numpunct@G@std@@MBE?AV?$basic_string@DU?$char_traits@D@std@@V?$allocator@D@2@@2@XZ 0048fe20 f i libcpmtd:wlocale.obj
 0001:0008ee60       ?do_falsename@?$numpunct@G@std@@MBE?AV?$basic_string@GU?$char_traits@G@std@@V?$allocator@G@2@@2@XZ 0048fe60 f i libcpmtd:wlocale.obj
 0001:0008eea0       ?do_truename@?$numpunct@G@std@@MBE?AV?$basic_string@GU?$char_traits@G@std@@V?$allocator@G@2@@2@XZ 0048fea0 f i libcpmtd:wlocale.obj
 0001:0008eee0       ??0?$collate@G@std@@QAE@ABV_Locinfo@1@I@Z 0048fee0 f i libcpmtd:wlocale.obj
 0001:0008ef40       ?_Getcat@?$collate@G@std@@SAIXZ 0048ff40 f i libcpmtd:wlocale.obj
 0001:0008ef50       ?do_compare@?$collate@G@std@@MBEHPBG000@Z 0048ff50 f i libcpmtd:wlocale.obj
 0001:0008ef80       ?do_transform@?$collate@G@std@@MBE?AV?$basic_string@GU?$char_traits@G@std@@V?$allocator@G@2@@2@PBG0@Z 0048ff80 f i libcpmtd:wlocale.obj
 0001:0008f080       ?do_hash@?$collate@G@std@@MBEJPBG0@Z 00490080 f i libcpmtd:wlocale.obj
 0001:0008f0d0       ??0?$messages@G@std@@QAE@ABV_Locinfo@1@I@Z 004900d0 f i libcpmtd:wlocale.obj
 0001:0008f130       ??0messages_base@std@@QAE@I@Z 00490130 f i libcpmtd:wlocale.obj
 0001:0008f160       ??_Emessages_base@std@@UAEPAXI@Z 00490160 f i libcpmtd:wlocale.obj
 0001:0008f160       ??_Gmessages_base@std@@UAEPAXI@Z 00490160 f i libcpmtd:wlocale.obj
